
kernel.elf:     file format elf64-littleaarch64


Disassembly of section .init:

0000000000080000 <_start>:
   80000:	1000000c 	adr	x12, 80000 <_start>
   80004:	58000fa1 	ldr	x1, 801f8 <secondary_spin+0x28>
   80008:	b900002c 	str	w12, [x1]
   8000c:	58000fa0 	ldr	x0, 80200 <secondary_spin+0x30>
   80010:	58000fc1 	ldr	x1, 80208 <secondary_spin+0x38>
   80014:	b9000020 	str	w0, [x1]
   80018:	58000fc0 	ldr	x0, 80210 <secondary_spin+0x40>
   8001c:	58000fe1 	ldr	x1, 80218 <secondary_spin+0x48>
   80020:	b9000020 	str	w0, [x1]
   80024:	d2800020 	mov	x0, #0x1                   	// #1
   80028:	58000fc1 	ldr	x1, 80220 <secondary_spin+0x50>
   8002c:	b9000020 	str	w0, [x1]
   80030:	d2801300 	mov	x0, #0x98                  	// #152
   80034:	58000fa1 	ldr	x1, 80228 <secondary_spin+0x58>
   80038:	b9000020 	str	w0, [x1]
   8003c:	d5380000 	mrs	x0, midr_el1
   80040:	58000f81 	ldr	x1, 80230 <secondary_spin+0x60>
   80044:	b9000020 	str	w0, [x1]
   80048:	d53ce100 	mrs	x0, cnthctl_el2
   8004c:	b2400400 	orr	x0, x0, #0x3
   80050:	d51ce100 	msr	cnthctl_el2, x0
   80054:	d51ce07f 	msr	cntvoff_el2, xzr
   80058:	d538e100 	mrs	x0, cntkctl_el1
   8005c:	b2400400 	orr	x0, x0, #0x3
   80060:	d518e100 	msr	cntkctl_el1, x0

0000000000080064 <multicore_start>:
   80064:	58000ea2 	ldr	x2, 80238 <secondary_spin+0x68>
   80068:	58000ec3 	ldr	x3, 80240 <secondary_spin+0x70>
   8006c:	58000ee4 	ldr	x4, 80248 <secondary_spin+0x78>
   80070:	d53800a6 	mrs	x6, mpidr_el1
   80074:	f24004c6 	ands	x6, x6, #0x3
   80078:	540001c0 	b.eq	800b0 <set_stacks>  // b.none
   8007c:	58000ea2 	ldr	x2, 80250 <secondary_spin+0x80>
   80080:	58000ec3 	ldr	x3, 80258 <secondary_spin+0x88>
   80084:	58000ee4 	ldr	x4, 80260 <secondary_spin+0x90>
   80088:	f10004df 	cmp	x6, #0x1
   8008c:	54000120 	b.eq	800b0 <set_stacks>  // b.none
   80090:	58000ec2 	ldr	x2, 80268 <secondary_spin+0x98>
   80094:	58000ee3 	ldr	x3, 80270 <secondary_spin+0xa0>
   80098:	58000f04 	ldr	x4, 80278 <secondary_spin+0xa8>
   8009c:	f10008df 	cmp	x6, #0x2
   800a0:	54000080 	b.eq	800b0 <set_stacks>  // b.none
   800a4:	58000ee2 	ldr	x2, 80280 <secondary_spin+0xb0>
   800a8:	58000f03 	ldr	x3, 80288 <secondary_spin+0xb8>
   800ac:	58000f24 	ldr	x4, 80290 <secondary_spin+0xc0>

00000000000800b0 <set_stacks>:
   800b0:	9100005f 	mov	sp, x2
   800b4:	d51c4103 	msr	sp_el1, x3
   800b8:	d5184104 	msr	sp_el0, x4
   800bc:	d5380000 	mrs	x0, midr_el1
   800c0:	d53800a1 	mrs	x1, mpidr_el1
   800c4:	d51c0000 	msr	vpidr_el2, x0
   800c8:	d51c00a1 	msr	vmpidr_el2, x1
   800cc:	d2867fe0 	mov	x0, #0x33ff                	// #13311
   800d0:	d51c1140 	msr	cptr_el2, x0
   800d4:	d51c117f 	msr	hstr_el2, xzr
   800d8:	d2a00600 	mov	x0, #0x300000              	// #3145728
   800dc:	d5181040 	msr	cpacr_el1, x0
   800e0:	d2b00000 	mov	x0, #0x80000000            	// #2147483648
   800e4:	d51c1100 	msr	hcr_el2, x0
   800e8:	d2810000 	mov	x0, #0x800                 	// #2048
   800ec:	f2a61a00 	movk	x0, #0x30d0, lsl #16
   800f0:	b27e0000 	orr	x0, x0, #0x4
   800f4:	b2740000 	orr	x0, x0, #0x1000
   800f8:	d5181000 	msr	sctlr_el1, x0
   800fc:	d28078a0 	mov	x0, #0x3c5                 	// #965
   80100:	d51c4000 	msr	spsr_el2, x0
   80104:	10000060 	adr	x0, 80110 <exit_el1>
   80108:	d51c4020 	msr	elr_el2, x0
   8010c:	d69f03e0 	eret

0000000000080110 <exit_el1>:
   80110:	d53800a6 	mrs	x6, mpidr_el1
   80114:	924004c6 	and	x6, x6, #0x3
   80118:	b40000c6 	cbz	x6, 80130 <cpu0_exit_multicore_park>
   8011c:	58000821 	ldr	x1, 80220 <secondary_spin+0x50>
   80120:	b9400020 	ldr	w0, [x1]
   80124:	11000400 	add	w0, w0, #0x1
   80128:	b9000020 	str	w0, [x1]
   8012c:	14000024 	b	801bc <StartSecondarySpin>

0000000000080130 <cpu0_exit_multicore_park>:
   80130:	58000b40 	ldr	x0, 80298 <secondary_spin+0xc8>
   80134:	d518c000 	msr	vbar_el1, x0
   80138:	58000b43 	ldr	x3, 802a0 <secondary_spin+0xd0>
   8013c:	58000b60 	ldr	x0, 802a8 <secondary_spin+0xd8>
   80140:	eb03001f 	cmp	x0, x3
   80144:	54000082 	b.cs	80154 <.bss_cleared>  // b.hs, b.nlast

0000000000080148 <.bss_zero_loop>:
   80148:	b800441f 	str	wzr, [x0], #4
   8014c:	eb00007f 	cmp	x3, x0
   80150:	54ffffc8 	b.hi	80148 <.bss_zero_loop>  // b.pmore

0000000000080154 <.bss_cleared>:
   80154:	d2801c01 	mov	x1, #0xe0                  	// #224
   80158:	58000ac2 	ldr	x2, 802b0 <secondary_spin+0xe0>
   8015c:	f9000022 	str	x2, [x1]
   80160:	d503209f 	sev
   80164:	580005e3 	ldr	x3, 80220 <secondary_spin+0x50>

0000000000080168 <.WaitCore1ACK>:
   80168:	b9400061 	ldr	w1, [x3]
   8016c:	7100083f 	cmp	w1, #0x2
   80170:	54ffffc1 	b.ne	80168 <.WaitCore1ACK>  // b.any
   80174:	d2801d01 	mov	x1, #0xe8                  	// #232
   80178:	580009c2 	ldr	x2, 802b0 <secondary_spin+0xe0>
   8017c:	f9000022 	str	x2, [x1]
   80180:	d503209f 	sev
   80184:	580004e3 	ldr	x3, 80220 <secondary_spin+0x50>

0000000000080188 <.WaitCore2ACK>:
   80188:	b9400061 	ldr	w1, [x3]
   8018c:	71000c3f 	cmp	w1, #0x3
   80190:	54ffffc1 	b.ne	80188 <.WaitCore2ACK>  // b.any
   80194:	d2801e01 	mov	x1, #0xf0                  	// #240
   80198:	580008c2 	ldr	x2, 802b0 <secondary_spin+0xe0>
   8019c:	f9000022 	str	x2, [x1]
   801a0:	d503209f 	sev
   801a4:	580003e3 	ldr	x3, 80220 <secondary_spin+0x50>

00000000000801a8 <.WaitCore3ACK>:
   801a8:	b9400061 	ldr	w1, [x3]
   801ac:	7100103f 	cmp	w1, #0x4
   801b0:	54ffffc1 	b.ne	801a8 <.WaitCore3ACK>  // b.any
   801b4:	14000193 	b	80800 <EcoMain>

00000000000801b8 <hang>:
   801b8:	14000000 	b	801b8 <hang>

00000000000801bc <StartSecondarySpin>:
   801bc:	d53800a6 	mrs	x6, mpidr_el1
   801c0:	924004c6 	and	x6, x6, #0x3
   801c4:	d2801b05 	mov	x5, #0xd8                  	// #216
   801c8:	d2800001 	mov	x1, #0x0                   	// #0
   801cc:	f82678a1 	str	x1, [x5, x6, lsl #3]

00000000000801d0 <secondary_spin>:
   801d0:	d503205f 	wfe
   801d4:	f86678a4 	ldr	x4, [x5, x6, lsl #3]
   801d8:	b4ffffc4 	cbz	x4, 801d0 <secondary_spin>
   801dc:	d2800000 	mov	x0, #0x0                   	// #0
   801e0:	f82678a0 	str	x0, [x5, x6, lsl #3]
   801e4:	d2800001 	mov	x1, #0x0                   	// #0
   801e8:	d2800002 	mov	x2, #0x0                   	// #0
   801ec:	d2800003 	mov	x3, #0x0                   	// #0
   801f0:	d63f0080 	blr	x4
   801f4:	17fffff2 	b	801bc <StartSecondarySpin>
   801f8:	00090dc0 	.word	0x00090dc0
   801fc:	00000000 	.word	0x00000000
   80200:	3f000000 	.word	0x3f000000
   80204:	00000000 	.word	0x00000000
   80208:	00090db8 	.word	0x00090db8
   8020c:	00000000 	.word	0x00000000
   80210:	c0000000 	.word	0xc0000000
   80214:	00000000 	.word	0x00000000
   80218:	00090dbc 	.word	0x00090dbc
   8021c:	00000000 	.word	0x00000000
   80220:	00090dc4 	.word	0x00090dc4
   80224:	00000000 	.word	0x00000000
   80228:	00090dd0 	.word	0x00090dd0
   8022c:	00000000 	.word	0x00000000
   80230:	00090dcc 	.word	0x00090dcc
   80234:	00000000 	.word	0x00000000
   80238:	00116db0 	.word	0x00116db0
   8023c:	00000000 	.word	0x00000000
   80240:	00115db0 	.word	0x00115db0
   80244:	00000000 	.word	0x00000000
   80248:	00111db0 	.word	0x00111db0
   8024c:	00000000 	.word	0x00000000
   80250:	001181b0 	.word	0x001181b0
   80254:	00000000 	.word	0x00000000
   80258:	001171b0 	.word	0x001171b0
   8025c:	00000000 	.word	0x00000000
   80260:	00116fb0 	.word	0x00116fb0
   80264:	00000000 	.word	0x00000000
   80268:	001195b0 	.word	0x001195b0
   8026c:	00000000 	.word	0x00000000
   80270:	001185b0 	.word	0x001185b0
   80274:	00000000 	.word	0x00000000
   80278:	001183b0 	.word	0x001183b0
   8027c:	00000000 	.word	0x00000000
   80280:	0011a9b0 	.word	0x0011a9b0
   80284:	00000000 	.word	0x00000000
   80288:	001199b0 	.word	0x001199b0
   8028c:	00000000 	.word	0x00000000
   80290:	001197b0 	.word	0x001197b0
   80294:	00000000 	.word	0x00000000
   80298:	00083000 	.word	0x00083000
   8029c:	00000000 	.word	0x00000000
   802a0:	0010f1f0 	.word	0x0010f1f0
   802a4:	00000000 	.word	0x00000000
   802a8:	00091750 	.word	0x00091750
   802ac:	00000000 	.word	0x00000000
   802b0:	00080064 	.word	0x00080064
   802b4:	00000000 	.word	0x00000000

Disassembly of section .text:

0000000000080800 <EcoMain>:
   80800:	f8140ffe 	str	x30, [sp, #-192]!
   80804:	f9000fe0 	str	x0, [sp, #24]
   80808:	12800000 	mov	w0, #0xffffffff            	// #-1
   8080c:	79017fe0 	strh	w0, [sp, #190]
   80810:	f90053ff 	str	xzr, [sp, #160]
   80814:	f90033ff 	str	xzr, [sp, #96]
   80818:	f9002fff 	str	xzr, [sp, #88]
   8081c:	f9002bff 	str	xzr, [sp, #80]
   80820:	f90027ff 	str	xzr, [sp, #72]
   80824:	f90023ff 	str	xzr, [sp, #64]
   80828:	f90017ff 	str	xzr, [sp, #40]
   8082c:	f9001bff 	str	xzr, [sp, #48]
   80830:	b9003bff 	str	wzr, [sp, #56]
   80834:	f90013ff 	str	xzr, [sp, #32]
   80838:	f9004fff 	str	xzr, [sp, #152]
   8083c:	f9004bff 	str	xzr, [sp, #144]
   80840:	f90047ff 	str	xzr, [sp, #136]
   80844:	f90043ff 	str	xzr, [sp, #128]
   80848:	f9003fff 	str	xzr, [sp, #120]
   8084c:	f9003bff 	str	xzr, [sp, #112]
   80850:	f9005bff 	str	xzr, [sp, #176]
   80854:	f90057ff 	str	xzr, [sp, #168]
   80858:	f90037ff 	str	xzr, [sp, #104]
   8085c:	b0000080 	adrp	x0, 91000 <g_xF10BC39A4F2143CF8A1E104650A2C302Factory+0x58>
   80860:	9113a000 	add	x0, x0, #0x4e8
   80864:	f9400000 	ldr	x0, [x0]
   80868:	f9400000 	ldr	x0, [x0]
   8086c:	f9400c05 	ldr	x5, [x0, #24]
   80870:	b0000080 	adrp	x0, 91000 <g_xF10BC39A4F2143CF8A1E104650A2C302Factory+0x58>
   80874:	9113a000 	add	x0, x0, #0x4e8
   80878:	f9400006 	ldr	x6, [x0]
   8087c:	910183e0 	add	x0, sp, #0x60
   80880:	aa0003e4 	mov	x4, x0
   80884:	f0000460 	adrp	x0, 10f000 <EcoVirtualMemory1Lab_623E1838_MemoryMap+0x7d610>
   80888:	910ee003 	add	x3, x0, #0x3b8
   8088c:	d2800002 	mov	x2, #0x0                   	// #0
   80890:	d2800001 	mov	x1, #0x0                   	// #0
   80894:	aa0603e0 	mov	x0, x6
   80898:	d63f00a0 	blr	x5
   8089c:	79017fe0 	strh	w0, [sp, #190]
   808a0:	79c17fe0 	ldrsh	w0, [sp, #190]
   808a4:	7100001f 	cmp	w0, #0x0
   808a8:	54000080 	b.eq	808b8 <EcoMain+0xb8>  // b.none
   808ac:	f94033e0 	ldr	x0, [sp, #96]
   808b0:	f100001f 	cmp	x0, #0x0
   808b4:	5400c480 	b.eq	82144 <EcoMain+0x1944>  // b.none
   808b8:	f94033e0 	ldr	x0, [sp, #96]
   808bc:	f9400000 	ldr	x0, [x0]
   808c0:	f9401403 	ldr	x3, [x0, #40]
   808c4:	f94033e4 	ldr	x4, [sp, #96]
   808c8:	90000080 	adrp	x0, 90000 <CEcoMemoryAllocator1Lab_623E1838_Compare+0x60>
   808cc:	913b4000 	add	x0, x0, #0xed0
   808d0:	f9400000 	ldr	x0, [x0]
   808d4:	aa0003e2 	mov	x2, x0
   808d8:	f0000460 	adrp	x0, 10f000 <EcoVirtualMemory1Lab_623E1838_MemoryMap+0x7d610>
   808dc:	910e2001 	add	x1, x0, #0x388
   808e0:	aa0403e0 	mov	x0, x4
   808e4:	d63f0060 	blr	x3
   808e8:	79017fe0 	strh	w0, [sp, #190]
   808ec:	f94033e0 	ldr	x0, [sp, #96]
   808f0:	f9400000 	ldr	x0, [x0]
   808f4:	f9401403 	ldr	x3, [x0, #40]
   808f8:	f94033e4 	ldr	x4, [sp, #96]
   808fc:	b0000080 	adrp	x0, 91000 <g_xF10BC39A4F2143CF8A1E104650A2C302Factory+0x58>
   80900:	911a4000 	add	x0, x0, #0x690
   80904:	f9400000 	ldr	x0, [x0]
   80908:	aa0003e2 	mov	x2, x0
   8090c:	f0000460 	adrp	x0, 10f000 <EcoVirtualMemory1Lab_623E1838_MemoryMap+0x7d610>
   80910:	910e8001 	add	x1, x0, #0x3a0
   80914:	aa0403e0 	mov	x0, x4
   80918:	d63f0060 	blr	x3
   8091c:	79017fe0 	strh	w0, [sp, #190]
   80920:	79c17fe0 	ldrsh	w0, [sp, #190]
   80924:	7100001f 	cmp	w0, #0x0
   80928:	5400c121 	b.ne	8214c <EcoMain+0x194c>  // b.any
   8092c:	f94033e0 	ldr	x0, [sp, #96]
   80930:	f9400000 	ldr	x0, [x0]
   80934:	f9401403 	ldr	x3, [x0, #40]
   80938:	f94033e4 	ldr	x4, [sp, #96]
   8093c:	b0000080 	adrp	x0, 91000 <g_xF10BC39A4F2143CF8A1E104650A2C302Factory+0x58>
   80940:	91016000 	add	x0, x0, #0x58
   80944:	f9400000 	ldr	x0, [x0]
   80948:	aa0003e2 	mov	x2, x0
   8094c:	f0000460 	adrp	x0, 10f000 <EcoVirtualMemory1Lab_623E1838_MemoryMap+0x7d610>
   80950:	91106001 	add	x1, x0, #0x418
   80954:	aa0403e0 	mov	x0, x4
   80958:	d63f0060 	blr	x3
   8095c:	79017fe0 	strh	w0, [sp, #190]
   80960:	79c17fe0 	ldrsh	w0, [sp, #190]
   80964:	7100001f 	cmp	w0, #0x0
   80968:	5400bf61 	b.ne	82154 <EcoMain+0x1954>  // b.any
   8096c:	f94033e0 	ldr	x0, [sp, #96]
   80970:	f9400000 	ldr	x0, [x0]
   80974:	f9400003 	ldr	x3, [x0]
   80978:	f94033e4 	ldr	x4, [sp, #96]
   8097c:	910123e0 	add	x0, sp, #0x48
   80980:	aa0003e2 	mov	x2, x0
   80984:	f0000460 	adrp	x0, 10f000 <EcoVirtualMemory1Lab_623E1838_MemoryMap+0x7d610>
   80988:	910fa001 	add	x1, x0, #0x3e8
   8098c:	aa0403e0 	mov	x0, x4
   80990:	d63f0060 	blr	x3
   80994:	79017fe0 	strh	w0, [sp, #190]
   80998:	79c17fe0 	ldrsh	w0, [sp, #190]
   8099c:	7100001f 	cmp	w0, #0x0
   809a0:	54000241 	b.ne	809e8 <EcoMain+0x1e8>  // b.any
   809a4:	f94027e0 	ldr	x0, [sp, #72]
   809a8:	f100001f 	cmp	x0, #0x0
   809ac:	540001e0 	b.eq	809e8 <EcoMain+0x1e8>  // b.none
   809b0:	f94027e0 	ldr	x0, [sp, #72]
   809b4:	f9400000 	ldr	x0, [x0]
   809b8:	f9400c02 	ldr	x2, [x0, #24]
   809bc:	f94027e3 	ldr	x3, [sp, #72]
   809c0:	f0000460 	adrp	x0, 10f000 <EcoVirtualMemory1Lab_623E1838_MemoryMap+0x7d610>
   809c4:	910e8001 	add	x1, x0, #0x3a0
   809c8:	aa0303e0 	mov	x0, x3
   809cc:	d63f0040 	blr	x2
   809d0:	f94027e0 	ldr	x0, [sp, #72]
   809d4:	f9400000 	ldr	x0, [x0]
   809d8:	f9401402 	ldr	x2, [x0, #40]
   809dc:	f94027e0 	ldr	x0, [sp, #72]
   809e0:	52800021 	mov	w1, #0x1                   	// #1
   809e4:	d63f0040 	blr	x2
   809e8:	f94033e0 	ldr	x0, [sp, #96]
   809ec:	f9400000 	ldr	x0, [x0]
   809f0:	f9401c05 	ldr	x5, [x0, #56]
   809f4:	f94033e6 	ldr	x6, [sp, #96]
   809f8:	910143e0 	add	x0, sp, #0x50
   809fc:	aa0003e4 	mov	x4, x0
   80a00:	f0000460 	adrp	x0, 10f000 <EcoVirtualMemory1Lab_623E1838_MemoryMap+0x7d610>
   80a04:	910dc003 	add	x3, x0, #0x370
   80a08:	d2800002 	mov	x2, #0x0                   	// #0
   80a0c:	f0000460 	adrp	x0, 10f000 <EcoVirtualMemory1Lab_623E1838_MemoryMap+0x7d610>
   80a10:	910e8001 	add	x1, x0, #0x3a0
   80a14:	aa0603e0 	mov	x0, x6
   80a18:	d63f00a0 	blr	x5
   80a1c:	79017fe0 	strh	w0, [sp, #190]
   80a20:	79c17fe0 	ldrsh	w0, [sp, #190]
   80a24:	7100001f 	cmp	w0, #0x0
   80a28:	54000081 	b.ne	80a38 <EcoMain+0x238>  // b.any
   80a2c:	f9402be0 	ldr	x0, [sp, #80]
   80a30:	f100001f 	cmp	x0, #0x0
   80a34:	54000061 	b.ne	80a40 <EcoMain+0x240>  // b.any
   80a38:	79c17fe0 	ldrsh	w0, [sp, #190]
   80a3c:	140005f6 	b	82214 <EcoMain+0x1a14>
   80a40:	f9402be0 	ldr	x0, [sp, #80]
   80a44:	f9400000 	ldr	x0, [x0]
   80a48:	f9400c03 	ldr	x3, [x0, #24]
   80a4c:	f9402be4 	ldr	x4, [sp, #80]
   80a50:	52a00102 	mov	w2, #0x80000               	// #524288
   80a54:	90000500 	adrp	x0, 120000 <pg_dir+0x2000>
   80a58:	9126c001 	add	x1, x0, #0x9b0
   80a5c:	aa0403e0 	mov	x0, x4
   80a60:	d63f0060 	blr	x3
   80a64:	f94033e0 	ldr	x0, [sp, #96]
   80a68:	f9400000 	ldr	x0, [x0]
   80a6c:	f9401403 	ldr	x3, [x0, #40]
   80a70:	f94033e4 	ldr	x4, [sp, #96]
   80a74:	b0000080 	adrp	x0, 91000 <g_xF10BC39A4F2143CF8A1E104650A2C302Factory+0x58>
   80a78:	9106e000 	add	x0, x0, #0x1b8
   80a7c:	f9400000 	ldr	x0, [x0]
   80a80:	aa0003e2 	mov	x2, x0
   80a84:	f0000460 	adrp	x0, 10f000 <EcoVirtualMemory1Lab_623E1838_MemoryMap+0x7d610>
   80a88:	91118001 	add	x1, x0, #0x460
   80a8c:	aa0403e0 	mov	x0, x4
   80a90:	d63f0060 	blr	x3
   80a94:	79017fe0 	strh	w0, [sp, #190]
   80a98:	79c17fe0 	ldrsh	w0, [sp, #190]
   80a9c:	7100001f 	cmp	w0, #0x0
   80aa0:	5400b5e1 	b.ne	8215c <EcoMain+0x195c>  // b.any
   80aa4:	f9402be0 	ldr	x0, [sp, #80]
   80aa8:	f9400000 	ldr	x0, [x0]
   80aac:	f9400003 	ldr	x3, [x0]
   80ab0:	f9402be4 	ldr	x4, [sp, #80]
   80ab4:	910163e0 	add	x0, sp, #0x58
   80ab8:	aa0003e2 	mov	x2, x0
   80abc:	f0000460 	adrp	x0, 10f000 <EcoVirtualMemory1Lab_623E1838_MemoryMap+0x7d610>
   80ac0:	910d6001 	add	x1, x0, #0x358
   80ac4:	aa0403e0 	mov	x0, x4
   80ac8:	d63f0060 	blr	x3
   80acc:	79017fe0 	strh	w0, [sp, #190]
   80ad0:	79c17fe0 	ldrsh	w0, [sp, #190]
   80ad4:	7100001f 	cmp	w0, #0x0
   80ad8:	5400b461 	b.ne	82164 <EcoMain+0x1964>  // b.any
   80adc:	f9402fe0 	ldr	x0, [sp, #88]
   80ae0:	f100001f 	cmp	x0, #0x0
   80ae4:	5400b400 	b.eq	82164 <EcoMain+0x1964>  // b.none
   80ae8:	f94033e0 	ldr	x0, [sp, #96]
   80aec:	f9400000 	ldr	x0, [x0]
   80af0:	f9401c05 	ldr	x5, [x0, #56]
   80af4:	f94033e6 	ldr	x6, [sp, #96]
   80af8:	910103e0 	add	x0, sp, #0x40
   80afc:	aa0003e4 	mov	x4, x0
   80b00:	f0000460 	adrp	x0, 10f000 <EcoVirtualMemory1Lab_623E1838_MemoryMap+0x7d610>
   80b04:	91112003 	add	x3, x0, #0x448
   80b08:	d2800002 	mov	x2, #0x0                   	// #0
   80b0c:	f0000460 	adrp	x0, 10f000 <EcoVirtualMemory1Lab_623E1838_MemoryMap+0x7d610>
   80b10:	91118001 	add	x1, x0, #0x460
   80b14:	aa0603e0 	mov	x0, x6
   80b18:	d63f00a0 	blr	x5
   80b1c:	79017fe0 	strh	w0, [sp, #190]
   80b20:	79c17fe0 	ldrsh	w0, [sp, #190]
   80b24:	7100001f 	cmp	w0, #0x0
   80b28:	5400b221 	b.ne	8216c <EcoMain+0x196c>  // b.any
   80b2c:	f94023e0 	ldr	x0, [sp, #64]
   80b30:	f100001f 	cmp	x0, #0x0
   80b34:	5400b1c0 	b.eq	8216c <EcoMain+0x196c>  // b.none
   80b38:	f94023e0 	ldr	x0, [sp, #64]
   80b3c:	f9400000 	ldr	x0, [x0]
   80b40:	f9401c02 	ldr	x2, [x0, #56]
   80b44:	f94023e0 	ldr	x0, [sp, #64]
   80b48:	9100a3e1 	add	x1, sp, #0x28
   80b4c:	d63f0040 	blr	x2
   80b50:	79017fe0 	strh	w0, [sp, #190]
   80b54:	f94023e0 	ldr	x0, [sp, #64]
   80b58:	f9400000 	ldr	x0, [x0]
   80b5c:	f9400c05 	ldr	x5, [x0, #24]
   80b60:	f94023e0 	ldr	x0, [sp, #64]
   80b64:	b9402be1 	ldr	w1, [sp, #40]
   80b68:	b9402fe2 	ldr	w2, [sp, #44]
   80b6c:	2a0203e4 	mov	w4, w2
   80b70:	2a0103e3 	mov	w3, w1
   80b74:	52800002 	mov	w2, #0x0                   	// #0
   80b78:	52800001 	mov	w1, #0x0                   	// #0
   80b7c:	d63f00a0 	blr	x5
   80b80:	f94023e0 	ldr	x0, [sp, #64]
   80b84:	f9400000 	ldr	x0, [x0]
   80b88:	f9400003 	ldr	x3, [x0]
   80b8c:	f94023e4 	ldr	x4, [sp, #64]
   80b90:	910083e0 	add	x0, sp, #0x20
   80b94:	aa0003e2 	mov	x2, x0
   80b98:	f0000460 	adrp	x0, 10f000 <EcoVirtualMemory1Lab_623E1838_MemoryMap+0x7d610>
   80b9c:	9111e001 	add	x1, x0, #0x478
   80ba0:	aa0403e0 	mov	x0, x4
   80ba4:	d63f0060 	blr	x3
   80ba8:	79017fe0 	strh	w0, [sp, #190]
   80bac:	f94013e0 	ldr	x0, [sp, #32]
   80bb0:	f9400000 	ldr	x0, [x0]
   80bb4:	f9405808 	ldr	x8, [x0, #176]
   80bb8:	f94013e9 	ldr	x9, [sp, #32]
   80bbc:	52800247 	mov	w7, #0x12                  	// #18
   80bc0:	f0000460 	adrp	x0, 10f000 <EcoVirtualMemory1Lab_623E1838_MemoryMap+0x7d610>
   80bc4:	91124006 	add	x6, x0, #0x490
   80bc8:	528001c5 	mov	w5, #0xe                   	// #14
   80bcc:	52800004 	mov	w4, #0x0                   	// #0
   80bd0:	52800003 	mov	w3, #0x0                   	// #0
   80bd4:	52800002 	mov	w2, #0x0                   	// #0
   80bd8:	52800001 	mov	w1, #0x0                   	// #0
   80bdc:	aa0903e0 	mov	x0, x9
   80be0:	d63f0100 	blr	x8
   80be4:	f94013e0 	ldr	x0, [sp, #32]
   80be8:	f9400000 	ldr	x0, [x0]
   80bec:	f9405808 	ldr	x8, [x0, #176]
   80bf0:	f94013e9 	ldr	x9, [sp, #32]
   80bf4:	52800687 	mov	w7, #0x34                  	// #52
   80bf8:	f0000460 	adrp	x0, 10f000 <EcoVirtualMemory1Lab_623E1838_MemoryMap+0x7d610>
   80bfc:	9112a006 	add	x6, x0, #0x4a8
   80c00:	528001c5 	mov	w5, #0xe                   	// #14
   80c04:	52800024 	mov	w4, #0x1                   	// #1
   80c08:	52800003 	mov	w3, #0x0                   	// #0
   80c0c:	52800002 	mov	w2, #0x0                   	// #0
   80c10:	52800001 	mov	w1, #0x0                   	// #0
   80c14:	aa0903e0 	mov	x0, x9
   80c18:	d63f0100 	blr	x8
   80c1c:	f9402fe0 	ldr	x0, [sp, #88]
   80c20:	f9400000 	ldr	x0, [x0]
   80c24:	f9400c02 	ldr	x2, [x0, #24]
   80c28:	f9402fe0 	ldr	x0, [sp, #88]
   80c2c:	52803201 	mov	w1, #0x190                 	// #400
   80c30:	d63f0040 	blr	x2
   80c34:	f9004fe0 	str	x0, [sp, #152]
   80c38:	f9402fe0 	ldr	x0, [sp, #88]
   80c3c:	f9400000 	ldr	x0, [x0]
   80c40:	f9400c02 	ldr	x2, [x0, #24]
   80c44:	f9402fe0 	ldr	x0, [sp, #88]
   80c48:	52800801 	mov	w1, #0x40                  	// #64
   80c4c:	d63f0040 	blr	x2
   80c50:	f9004be0 	str	x0, [sp, #144]
   80c54:	f9402fe0 	ldr	x0, [sp, #88]
   80c58:	f9400000 	ldr	x0, [x0]
   80c5c:	f9400c02 	ldr	x2, [x0, #24]
   80c60:	f9402fe0 	ldr	x0, [sp, #88]
   80c64:	52802581 	mov	w1, #0x12c                 	// #300
   80c68:	d63f0040 	blr	x2
   80c6c:	f90047e0 	str	x0, [sp, #136]
   80c70:	f9402fe0 	ldr	x0, [sp, #88]
   80c74:	f9400000 	ldr	x0, [x0]
   80c78:	f9400c02 	ldr	x2, [x0, #24]
   80c7c:	f9402fe0 	ldr	x0, [sp, #88]
   80c80:	52801901 	mov	w1, #0xc8                  	// #200
   80c84:	d63f0040 	blr	x2
   80c88:	f9003fe0 	str	x0, [sp, #120]
   80c8c:	f94047e0 	ldr	x0, [sp, #136]
   80c90:	f9003be0 	str	x0, [sp, #112]
   80c94:	f9404fe0 	ldr	x0, [sp, #152]
   80c98:	f100001f 	cmp	x0, #0x0
   80c9c:	54000ba0 	b.eq	80e10 <EcoMain+0x610>  // b.none
   80ca0:	f9404be0 	ldr	x0, [sp, #144]
   80ca4:	f100001f 	cmp	x0, #0x0
   80ca8:	54000b40 	b.eq	80e10 <EcoMain+0x610>  // b.none
   80cac:	f94047e0 	ldr	x0, [sp, #136]
   80cb0:	f100001f 	cmp	x0, #0x0
   80cb4:	54000ae0 	b.eq	80e10 <EcoMain+0x610>  // b.none
   80cb8:	f9403fe0 	ldr	x0, [sp, #120]
   80cbc:	f100001f 	cmp	x0, #0x0
   80cc0:	54000a80 	b.eq	80e10 <EcoMain+0x610>  // b.none
   80cc4:	f9402fe0 	ldr	x0, [sp, #88]
   80cc8:	f9400000 	ldr	x0, [x0]
   80ccc:	f9401002 	ldr	x2, [x0, #32]
   80cd0:	f9402fe0 	ldr	x0, [sp, #88]
   80cd4:	f9404fe1 	ldr	x1, [sp, #152]
   80cd8:	d63f0040 	blr	x2
   80cdc:	f9402fe0 	ldr	x0, [sp, #88]
   80ce0:	f9400000 	ldr	x0, [x0]
   80ce4:	f9401002 	ldr	x2, [x0, #32]
   80ce8:	f9402fe0 	ldr	x0, [sp, #88]
   80cec:	f94047e1 	ldr	x1, [sp, #136]
   80cf0:	d63f0040 	blr	x2
   80cf4:	f9402fe0 	ldr	x0, [sp, #88]
   80cf8:	f9400000 	ldr	x0, [x0]
   80cfc:	f9400c02 	ldr	x2, [x0, #24]
   80d00:	f9402fe0 	ldr	x0, [sp, #88]
   80d04:	52802301 	mov	w1, #0x118                 	// #280
   80d08:	d63f0040 	blr	x2
   80d0c:	f90043e0 	str	x0, [sp, #128]
   80d10:	f94043e0 	ldr	x0, [sp, #128]
   80d14:	f100001f 	cmp	x0, #0x0
   80d18:	54000280 	b.eq	80d68 <EcoMain+0x568>  // b.none
   80d1c:	f94043e1 	ldr	x1, [sp, #128]
   80d20:	f9403be0 	ldr	x0, [sp, #112]
   80d24:	eb00003f 	cmp	x1, x0
   80d28:	54000201 	b.ne	80d68 <EcoMain+0x568>  // b.any
   80d2c:	f94013e0 	ldr	x0, [sp, #32]
   80d30:	f9400000 	ldr	x0, [x0]
   80d34:	f9405808 	ldr	x8, [x0, #176]
   80d38:	f94013e9 	ldr	x9, [sp, #32]
   80d3c:	52800467 	mov	w7, #0x23                  	// #35
   80d40:	f0000460 	adrp	x0, 10f000 <EcoVirtualMemory1Lab_623E1838_MemoryMap+0x7d610>
   80d44:	91138006 	add	x6, x0, #0x4e0
   80d48:	52800045 	mov	w5, #0x2                   	// #2
   80d4c:	52800044 	mov	w4, #0x2                   	// #2
   80d50:	52800003 	mov	w3, #0x0                   	// #0
   80d54:	52800002 	mov	w2, #0x0                   	// #0
   80d58:	52800001 	mov	w1, #0x0                   	// #0
   80d5c:	aa0903e0 	mov	x0, x9
   80d60:	d63f0100 	blr	x8
   80d64:	1400000f 	b	80da0 <EcoMain+0x5a0>
   80d68:	f94013e0 	ldr	x0, [sp, #32]
   80d6c:	f9400000 	ldr	x0, [x0]
   80d70:	f9405808 	ldr	x8, [x0, #176]
   80d74:	f94013e9 	ldr	x9, [sp, #32]
   80d78:	52800487 	mov	w7, #0x24                  	// #36
   80d7c:	f0000460 	adrp	x0, 10f000 <EcoVirtualMemory1Lab_623E1838_MemoryMap+0x7d610>
   80d80:	91142006 	add	x6, x0, #0x508
   80d84:	52800085 	mov	w5, #0x4                   	// #4
   80d88:	52800044 	mov	w4, #0x2                   	// #2
   80d8c:	52800003 	mov	w3, #0x0                   	// #0
   80d90:	52800002 	mov	w2, #0x0                   	// #0
   80d94:	52800001 	mov	w1, #0x0                   	// #0
   80d98:	aa0903e0 	mov	x0, x9
   80d9c:	d63f0100 	blr	x8
   80da0:	f94043e0 	ldr	x0, [sp, #128]
   80da4:	f100001f 	cmp	x0, #0x0
   80da8:	540000e0 	b.eq	80dc4 <EcoMain+0x5c4>  // b.none
   80dac:	f9402fe0 	ldr	x0, [sp, #88]
   80db0:	f9400000 	ldr	x0, [x0]
   80db4:	f9401002 	ldr	x2, [x0, #32]
   80db8:	f9402fe0 	ldr	x0, [sp, #88]
   80dbc:	f94043e1 	ldr	x1, [sp, #128]
   80dc0:	d63f0040 	blr	x2
   80dc4:	f9403fe0 	ldr	x0, [sp, #120]
   80dc8:	f100001f 	cmp	x0, #0x0
   80dcc:	540000e0 	b.eq	80de8 <EcoMain+0x5e8>  // b.none
   80dd0:	f9402fe0 	ldr	x0, [sp, #88]
   80dd4:	f9400000 	ldr	x0, [x0]
   80dd8:	f9401002 	ldr	x2, [x0, #32]
   80ddc:	f9402fe0 	ldr	x0, [sp, #88]
   80de0:	f9403fe1 	ldr	x1, [sp, #120]
   80de4:	d63f0040 	blr	x2
   80de8:	f9404be0 	ldr	x0, [sp, #144]
   80dec:	f100001f 	cmp	x0, #0x0
   80df0:	54000740 	b.eq	80ed8 <EcoMain+0x6d8>  // b.none
   80df4:	f9402fe0 	ldr	x0, [sp, #88]
   80df8:	f9400000 	ldr	x0, [x0]
   80dfc:	f9401002 	ldr	x2, [x0, #32]
   80e00:	f9402fe0 	ldr	x0, [sp, #88]
   80e04:	f9404be1 	ldr	x1, [sp, #144]
   80e08:	d63f0040 	blr	x2
   80e0c:	14000033 	b	80ed8 <EcoMain+0x6d8>
   80e10:	f94013e0 	ldr	x0, [sp, #32]
   80e14:	f9400000 	ldr	x0, [x0]
   80e18:	f9405808 	ldr	x8, [x0, #176]
   80e1c:	f94013e9 	ldr	x9, [sp, #32]
   80e20:	52800487 	mov	w7, #0x24                  	// #36
   80e24:	f0000460 	adrp	x0, 10f000 <EcoVirtualMemory1Lab_623E1838_MemoryMap+0x7d610>
   80e28:	91142006 	add	x6, x0, #0x508
   80e2c:	52800085 	mov	w5, #0x4                   	// #4
   80e30:	52800044 	mov	w4, #0x2                   	// #2
   80e34:	52800003 	mov	w3, #0x0                   	// #0
   80e38:	52800002 	mov	w2, #0x0                   	// #0
   80e3c:	52800001 	mov	w1, #0x0                   	// #0
   80e40:	aa0903e0 	mov	x0, x9
   80e44:	d63f0100 	blr	x8
   80e48:	f9404fe0 	ldr	x0, [sp, #152]
   80e4c:	f100001f 	cmp	x0, #0x0
   80e50:	540000e0 	b.eq	80e6c <EcoMain+0x66c>  // b.none
   80e54:	f9402fe0 	ldr	x0, [sp, #88]
   80e58:	f9400000 	ldr	x0, [x0]
   80e5c:	f9401002 	ldr	x2, [x0, #32]
   80e60:	f9402fe0 	ldr	x0, [sp, #88]
   80e64:	f9404fe1 	ldr	x1, [sp, #152]
   80e68:	d63f0040 	blr	x2
   80e6c:	f9404be0 	ldr	x0, [sp, #144]
   80e70:	f100001f 	cmp	x0, #0x0
   80e74:	540000e0 	b.eq	80e90 <EcoMain+0x690>  // b.none
   80e78:	f9402fe0 	ldr	x0, [sp, #88]
   80e7c:	f9400000 	ldr	x0, [x0]
   80e80:	f9401002 	ldr	x2, [x0, #32]
   80e84:	f9402fe0 	ldr	x0, [sp, #88]
   80e88:	f9404be1 	ldr	x1, [sp, #144]
   80e8c:	d63f0040 	blr	x2
   80e90:	f94047e0 	ldr	x0, [sp, #136]
   80e94:	f100001f 	cmp	x0, #0x0
   80e98:	540000e0 	b.eq	80eb4 <EcoMain+0x6b4>  // b.none
   80e9c:	f9402fe0 	ldr	x0, [sp, #88]
   80ea0:	f9400000 	ldr	x0, [x0]
   80ea4:	f9401002 	ldr	x2, [x0, #32]
   80ea8:	f9402fe0 	ldr	x0, [sp, #88]
   80eac:	f94047e1 	ldr	x1, [sp, #136]
   80eb0:	d63f0040 	blr	x2
   80eb4:	f9403fe0 	ldr	x0, [sp, #120]
   80eb8:	f100001f 	cmp	x0, #0x0
   80ebc:	540000e0 	b.eq	80ed8 <EcoMain+0x6d8>  // b.none
   80ec0:	f9402fe0 	ldr	x0, [sp, #88]
   80ec4:	f9400000 	ldr	x0, [x0]
   80ec8:	f9401002 	ldr	x2, [x0, #32]
   80ecc:	f9402fe0 	ldr	x0, [sp, #88]
   80ed0:	f9403fe1 	ldr	x1, [sp, #120]
   80ed4:	d63f0040 	blr	x2
   80ed8:	f94013e0 	ldr	x0, [sp, #32]
   80edc:	f9400000 	ldr	x0, [x0]
   80ee0:	f9405808 	ldr	x8, [x0, #176]
   80ee4:	f94013e9 	ldr	x9, [sp, #32]
   80ee8:	52800527 	mov	w7, #0x29                  	// #41
   80eec:	f0000460 	adrp	x0, 10f000 <EcoVirtualMemory1Lab_623E1838_MemoryMap+0x7d610>
   80ef0:	9114c006 	add	x6, x0, #0x530
   80ef4:	528001c5 	mov	w5, #0xe                   	// #14
   80ef8:	52800064 	mov	w4, #0x3                   	// #3
   80efc:	52800003 	mov	w3, #0x0                   	// #0
   80f00:	52800002 	mov	w2, #0x0                   	// #0
   80f04:	52800001 	mov	w1, #0x0                   	// #0
   80f08:	aa0903e0 	mov	x0, x9
   80f0c:	d63f0100 	blr	x8
   80f10:	f9402fe0 	ldr	x0, [sp, #88]
   80f14:	f9400000 	ldr	x0, [x0]
   80f18:	f9400c02 	ldr	x2, [x0, #24]
   80f1c:	f9402fe0 	ldr	x0, [sp, #88]
   80f20:	52804101 	mov	w1, #0x208                 	// #520
   80f24:	d63f0040 	blr	x2
   80f28:	f9004fe0 	str	x0, [sp, #152]
   80f2c:	f9402fe0 	ldr	x0, [sp, #88]
   80f30:	f9400000 	ldr	x0, [x0]
   80f34:	f9400c02 	ldr	x2, [x0, #24]
   80f38:	f9402fe0 	ldr	x0, [sp, #88]
   80f3c:	52800801 	mov	w1, #0x40                  	// #64
   80f40:	d63f0040 	blr	x2
   80f44:	f9004be0 	str	x0, [sp, #144]
   80f48:	f9402fe0 	ldr	x0, [sp, #88]
   80f4c:	f9400000 	ldr	x0, [x0]
   80f50:	f9400c02 	ldr	x2, [x0, #24]
   80f54:	f9402fe0 	ldr	x0, [sp, #88]
   80f58:	52802a81 	mov	w1, #0x154                 	// #340
   80f5c:	d63f0040 	blr	x2
   80f60:	f90047e0 	str	x0, [sp, #136]
   80f64:	f9402fe0 	ldr	x0, [sp, #88]
   80f68:	f9400000 	ldr	x0, [x0]
   80f6c:	f9400c02 	ldr	x2, [x0, #24]
   80f70:	f9402fe0 	ldr	x0, [sp, #88]
   80f74:	52800801 	mov	w1, #0x40                  	// #64
   80f78:	d63f0040 	blr	x2
   80f7c:	f90043e0 	str	x0, [sp, #128]
   80f80:	f9402fe0 	ldr	x0, [sp, #88]
   80f84:	f9400000 	ldr	x0, [x0]
   80f88:	f9400c02 	ldr	x2, [x0, #24]
   80f8c:	f9402fe0 	ldr	x0, [sp, #88]
   80f90:	52802081 	mov	w1, #0x104                 	// #260
   80f94:	d63f0040 	blr	x2
   80f98:	f9003fe0 	str	x0, [sp, #120]
   80f9c:	f9402fe0 	ldr	x0, [sp, #88]
   80fa0:	f9400000 	ldr	x0, [x0]
   80fa4:	f9400c02 	ldr	x2, [x0, #24]
   80fa8:	f9402fe0 	ldr	x0, [sp, #88]
   80fac:	52800801 	mov	w1, #0x40                  	// #64
   80fb0:	d63f0040 	blr	x2
   80fb4:	f9003be0 	str	x0, [sp, #112]
   80fb8:	f9402fe0 	ldr	x0, [sp, #88]
   80fbc:	f9400000 	ldr	x0, [x0]
   80fc0:	f9400c02 	ldr	x2, [x0, #24]
   80fc4:	f9402fe0 	ldr	x0, [sp, #88]
   80fc8:	52803c01 	mov	w1, #0x1e0                 	// #480
   80fcc:	d63f0040 	blr	x2
   80fd0:	f90057e0 	str	x0, [sp, #168]
   80fd4:	f9402fe0 	ldr	x0, [sp, #88]
   80fd8:	f9400000 	ldr	x0, [x0]
   80fdc:	f9400c02 	ldr	x2, [x0, #24]
   80fe0:	f9402fe0 	ldr	x0, [sp, #88]
   80fe4:	52800801 	mov	w1, #0x40                  	// #64
   80fe8:	d63f0040 	blr	x2
   80fec:	f90037e0 	str	x0, [sp, #104]
   80ff0:	f9404fe0 	ldr	x0, [sp, #152]
   80ff4:	f100001f 	cmp	x0, #0x0
   80ff8:	540010e0 	b.eq	81214 <EcoMain+0xa14>  // b.none
   80ffc:	f9404be0 	ldr	x0, [sp, #144]
   81000:	f100001f 	cmp	x0, #0x0
   81004:	54001080 	b.eq	81214 <EcoMain+0xa14>  // b.none
   81008:	f94047e0 	ldr	x0, [sp, #136]
   8100c:	f100001f 	cmp	x0, #0x0
   81010:	54001020 	b.eq	81214 <EcoMain+0xa14>  // b.none
   81014:	f94043e0 	ldr	x0, [sp, #128]
   81018:	f100001f 	cmp	x0, #0x0
   8101c:	54000fc0 	b.eq	81214 <EcoMain+0xa14>  // b.none
   81020:	f9403fe0 	ldr	x0, [sp, #120]
   81024:	f100001f 	cmp	x0, #0x0
   81028:	54000f60 	b.eq	81214 <EcoMain+0xa14>  // b.none
   8102c:	f9403be0 	ldr	x0, [sp, #112]
   81030:	f100001f 	cmp	x0, #0x0
   81034:	54000f00 	b.eq	81214 <EcoMain+0xa14>  // b.none
   81038:	f94057e0 	ldr	x0, [sp, #168]
   8103c:	f100001f 	cmp	x0, #0x0
   81040:	54000ea0 	b.eq	81214 <EcoMain+0xa14>  // b.none
   81044:	f94037e0 	ldr	x0, [sp, #104]
   81048:	f100001f 	cmp	x0, #0x0
   8104c:	54000e40 	b.eq	81214 <EcoMain+0xa14>  // b.none
   81050:	f9402fe0 	ldr	x0, [sp, #88]
   81054:	f9400000 	ldr	x0, [x0]
   81058:	f9401002 	ldr	x2, [x0, #32]
   8105c:	f9402fe0 	ldr	x0, [sp, #88]
   81060:	f9404fe1 	ldr	x1, [sp, #152]
   81064:	d63f0040 	blr	x2
   81068:	f9402fe0 	ldr	x0, [sp, #88]
   8106c:	f9400000 	ldr	x0, [x0]
   81070:	f9401002 	ldr	x2, [x0, #32]
   81074:	f9402fe0 	ldr	x0, [sp, #88]
   81078:	f94047e1 	ldr	x1, [sp, #136]
   8107c:	d63f0040 	blr	x2
   81080:	f9402fe0 	ldr	x0, [sp, #88]
   81084:	f9400000 	ldr	x0, [x0]
   81088:	f9401002 	ldr	x2, [x0, #32]
   8108c:	f9402fe0 	ldr	x0, [sp, #88]
   81090:	f9403fe1 	ldr	x1, [sp, #120]
   81094:	d63f0040 	blr	x2
   81098:	f9402fe0 	ldr	x0, [sp, #88]
   8109c:	f9400000 	ldr	x0, [x0]
   810a0:	f9401002 	ldr	x2, [x0, #32]
   810a4:	f9402fe0 	ldr	x0, [sp, #88]
   810a8:	f94057e1 	ldr	x1, [sp, #168]
   810ac:	d63f0040 	blr	x2
   810b0:	f9402fe0 	ldr	x0, [sp, #88]
   810b4:	f9400000 	ldr	x0, [x0]
   810b8:	f9400c02 	ldr	x2, [x0, #24]
   810bc:	f9402fe0 	ldr	x0, [sp, #88]
   810c0:	52801e01 	mov	w1, #0xf0                  	// #240
   810c4:	d63f0040 	blr	x2
   810c8:	f9005be0 	str	x0, [sp, #176]
   810cc:	f9405be0 	ldr	x0, [sp, #176]
   810d0:	f100001f 	cmp	x0, #0x0
   810d4:	54000280 	b.eq	81124 <EcoMain+0x924>  // b.none
   810d8:	f9405be1 	ldr	x1, [sp, #176]
   810dc:	f9403fe0 	ldr	x0, [sp, #120]
   810e0:	eb00003f 	cmp	x1, x0
   810e4:	54000201 	b.ne	81124 <EcoMain+0x924>  // b.any
   810e8:	f94013e0 	ldr	x0, [sp, #32]
   810ec:	f9400000 	ldr	x0, [x0]
   810f0:	f9405808 	ldr	x8, [x0, #176]
   810f4:	f94013e9 	ldr	x9, [sp, #32]
   810f8:	52800447 	mov	w7, #0x22                  	// #34
   810fc:	d0000460 	adrp	x0, 10f000 <EcoVirtualMemory1Lab_623E1838_MemoryMap+0x7d610>
   81100:	91158006 	add	x6, x0, #0x560
   81104:	52800045 	mov	w5, #0x2                   	// #2
   81108:	52800084 	mov	w4, #0x4                   	// #4
   8110c:	52800003 	mov	w3, #0x0                   	// #0
   81110:	52800002 	mov	w2, #0x0                   	// #0
   81114:	52800001 	mov	w1, #0x0                   	// #0
   81118:	aa0903e0 	mov	x0, x9
   8111c:	d63f0100 	blr	x8
   81120:	1400000f 	b	8115c <EcoMain+0x95c>
   81124:	f94013e0 	ldr	x0, [sp, #32]
   81128:	f9400000 	ldr	x0, [x0]
   8112c:	f9405808 	ldr	x8, [x0, #176]
   81130:	f94013e9 	ldr	x9, [sp, #32]
   81134:	528003e7 	mov	w7, #0x1f                  	// #31
   81138:	d0000460 	adrp	x0, 10f000 <EcoVirtualMemory1Lab_623E1838_MemoryMap+0x7d610>
   8113c:	91162006 	add	x6, x0, #0x588
   81140:	52800085 	mov	w5, #0x4                   	// #4
   81144:	52800084 	mov	w4, #0x4                   	// #4
   81148:	52800003 	mov	w3, #0x0                   	// #0
   8114c:	52800002 	mov	w2, #0x0                   	// #0
   81150:	52800001 	mov	w1, #0x0                   	// #0
   81154:	aa0903e0 	mov	x0, x9
   81158:	d63f0100 	blr	x8
   8115c:	f9405be0 	ldr	x0, [sp, #176]
   81160:	f100001f 	cmp	x0, #0x0
   81164:	540000e0 	b.eq	81180 <EcoMain+0x980>  // b.none
   81168:	f9402fe0 	ldr	x0, [sp, #88]
   8116c:	f9400000 	ldr	x0, [x0]
   81170:	f9401002 	ldr	x2, [x0, #32]
   81174:	f9402fe0 	ldr	x0, [sp, #88]
   81178:	f9405be1 	ldr	x1, [sp, #176]
   8117c:	d63f0040 	blr	x2
   81180:	f9404be0 	ldr	x0, [sp, #144]
   81184:	f100001f 	cmp	x0, #0x0
   81188:	540000e0 	b.eq	811a4 <EcoMain+0x9a4>  // b.none
   8118c:	f9402fe0 	ldr	x0, [sp, #88]
   81190:	f9400000 	ldr	x0, [x0]
   81194:	f9401002 	ldr	x2, [x0, #32]
   81198:	f9402fe0 	ldr	x0, [sp, #88]
   8119c:	f9404be1 	ldr	x1, [sp, #144]
   811a0:	d63f0040 	blr	x2
   811a4:	f94043e0 	ldr	x0, [sp, #128]
   811a8:	f100001f 	cmp	x0, #0x0
   811ac:	540000e0 	b.eq	811c8 <EcoMain+0x9c8>  // b.none
   811b0:	f9402fe0 	ldr	x0, [sp, #88]
   811b4:	f9400000 	ldr	x0, [x0]
   811b8:	f9401002 	ldr	x2, [x0, #32]
   811bc:	f9402fe0 	ldr	x0, [sp, #88]
   811c0:	f94043e1 	ldr	x1, [sp, #128]
   811c4:	d63f0040 	blr	x2
   811c8:	f9403be0 	ldr	x0, [sp, #112]
   811cc:	f100001f 	cmp	x0, #0x0
   811d0:	540000e0 	b.eq	811ec <EcoMain+0x9ec>  // b.none
   811d4:	f9402fe0 	ldr	x0, [sp, #88]
   811d8:	f9400000 	ldr	x0, [x0]
   811dc:	f9401002 	ldr	x2, [x0, #32]
   811e0:	f9402fe0 	ldr	x0, [sp, #88]
   811e4:	f9403be1 	ldr	x1, [sp, #112]
   811e8:	d63f0040 	blr	x2
   811ec:	f94037e0 	ldr	x0, [sp, #104]
   811f0:	f100001f 	cmp	x0, #0x0
   811f4:	54000ce0 	b.eq	81390 <EcoMain+0xb90>  // b.none
   811f8:	f9402fe0 	ldr	x0, [sp, #88]
   811fc:	f9400000 	ldr	x0, [x0]
   81200:	f9401002 	ldr	x2, [x0, #32]
   81204:	f9402fe0 	ldr	x0, [sp, #88]
   81208:	f94037e1 	ldr	x1, [sp, #104]
   8120c:	d63f0040 	blr	x2
   81210:	14000060 	b	81390 <EcoMain+0xb90>
   81214:	f94013e0 	ldr	x0, [sp, #32]
   81218:	f9400000 	ldr	x0, [x0]
   8121c:	f9405808 	ldr	x8, [x0, #176]
   81220:	f94013e9 	ldr	x9, [sp, #32]
   81224:	528003e7 	mov	w7, #0x1f                  	// #31
   81228:	d0000460 	adrp	x0, 10f000 <EcoVirtualMemory1Lab_623E1838_MemoryMap+0x7d610>
   8122c:	91162006 	add	x6, x0, #0x588
   81230:	52800085 	mov	w5, #0x4                   	// #4
   81234:	52800084 	mov	w4, #0x4                   	// #4
   81238:	52800003 	mov	w3, #0x0                   	// #0
   8123c:	52800002 	mov	w2, #0x0                   	// #0
   81240:	52800001 	mov	w1, #0x0                   	// #0
   81244:	aa0903e0 	mov	x0, x9
   81248:	d63f0100 	blr	x8
   8124c:	f9404fe0 	ldr	x0, [sp, #152]
   81250:	f100001f 	cmp	x0, #0x0
   81254:	540000e0 	b.eq	81270 <EcoMain+0xa70>  // b.none
   81258:	f9402fe0 	ldr	x0, [sp, #88]
   8125c:	f9400000 	ldr	x0, [x0]
   81260:	f9401002 	ldr	x2, [x0, #32]
   81264:	f9402fe0 	ldr	x0, [sp, #88]
   81268:	f9404fe1 	ldr	x1, [sp, #152]
   8126c:	d63f0040 	blr	x2
   81270:	f9404be0 	ldr	x0, [sp, #144]
   81274:	f100001f 	cmp	x0, #0x0
   81278:	540000e0 	b.eq	81294 <EcoMain+0xa94>  // b.none
   8127c:	f9402fe0 	ldr	x0, [sp, #88]
   81280:	f9400000 	ldr	x0, [x0]
   81284:	f9401002 	ldr	x2, [x0, #32]
   81288:	f9402fe0 	ldr	x0, [sp, #88]
   8128c:	f9404be1 	ldr	x1, [sp, #144]
   81290:	d63f0040 	blr	x2
   81294:	f94047e0 	ldr	x0, [sp, #136]
   81298:	f100001f 	cmp	x0, #0x0
   8129c:	540000e0 	b.eq	812b8 <EcoMain+0xab8>  // b.none
   812a0:	f9402fe0 	ldr	x0, [sp, #88]
   812a4:	f9400000 	ldr	x0, [x0]
   812a8:	f9401002 	ldr	x2, [x0, #32]
   812ac:	f9402fe0 	ldr	x0, [sp, #88]
   812b0:	f94047e1 	ldr	x1, [sp, #136]
   812b4:	d63f0040 	blr	x2
   812b8:	f94043e0 	ldr	x0, [sp, #128]
   812bc:	f100001f 	cmp	x0, #0x0
   812c0:	540000e0 	b.eq	812dc <EcoMain+0xadc>  // b.none
   812c4:	f9402fe0 	ldr	x0, [sp, #88]
   812c8:	f9400000 	ldr	x0, [x0]
   812cc:	f9401002 	ldr	x2, [x0, #32]
   812d0:	f9402fe0 	ldr	x0, [sp, #88]
   812d4:	f94043e1 	ldr	x1, [sp, #128]
   812d8:	d63f0040 	blr	x2
   812dc:	f9403fe0 	ldr	x0, [sp, #120]
   812e0:	f100001f 	cmp	x0, #0x0
   812e4:	540000e0 	b.eq	81300 <EcoMain+0xb00>  // b.none
   812e8:	f9402fe0 	ldr	x0, [sp, #88]
   812ec:	f9400000 	ldr	x0, [x0]
   812f0:	f9401002 	ldr	x2, [x0, #32]
   812f4:	f9402fe0 	ldr	x0, [sp, #88]
   812f8:	f9403fe1 	ldr	x1, [sp, #120]
   812fc:	d63f0040 	blr	x2
   81300:	f9403be0 	ldr	x0, [sp, #112]
   81304:	f100001f 	cmp	x0, #0x0
   81308:	540000e0 	b.eq	81324 <EcoMain+0xb24>  // b.none
   8130c:	f9402fe0 	ldr	x0, [sp, #88]
   81310:	f9400000 	ldr	x0, [x0]
   81314:	f9401002 	ldr	x2, [x0, #32]
   81318:	f9402fe0 	ldr	x0, [sp, #88]
   8131c:	f9403be1 	ldr	x1, [sp, #112]
   81320:	d63f0040 	blr	x2
   81324:	f94057e0 	ldr	x0, [sp, #168]
   81328:	f100001f 	cmp	x0, #0x0
   8132c:	540000e0 	b.eq	81348 <EcoMain+0xb48>  // b.none
   81330:	f9402fe0 	ldr	x0, [sp, #88]
   81334:	f9400000 	ldr	x0, [x0]
   81338:	f9401002 	ldr	x2, [x0, #32]
   8133c:	f9402fe0 	ldr	x0, [sp, #88]
   81340:	f94057e1 	ldr	x1, [sp, #168]
   81344:	d63f0040 	blr	x2
   81348:	f94037e0 	ldr	x0, [sp, #104]
   8134c:	f100001f 	cmp	x0, #0x0
   81350:	540000e0 	b.eq	8136c <EcoMain+0xb6c>  // b.none
   81354:	f9402fe0 	ldr	x0, [sp, #88]
   81358:	f9400000 	ldr	x0, [x0]
   8135c:	f9401002 	ldr	x2, [x0, #32]
   81360:	f9402fe0 	ldr	x0, [sp, #88]
   81364:	f94037e1 	ldr	x1, [sp, #104]
   81368:	d63f0040 	blr	x2
   8136c:	f9405be0 	ldr	x0, [sp, #176]
   81370:	f100001f 	cmp	x0, #0x0
   81374:	540000e0 	b.eq	81390 <EcoMain+0xb90>  // b.none
   81378:	f9402fe0 	ldr	x0, [sp, #88]
   8137c:	f9400000 	ldr	x0, [x0]
   81380:	f9401002 	ldr	x2, [x0, #32]
   81384:	f9402fe0 	ldr	x0, [sp, #88]
   81388:	f9405be1 	ldr	x1, [sp, #176]
   8138c:	d63f0040 	blr	x2
   81390:	f94013e0 	ldr	x0, [sp, #32]
   81394:	f9400000 	ldr	x0, [x0]
   81398:	f9405808 	ldr	x8, [x0, #176]
   8139c:	f94013e9 	ldr	x9, [sp, #32]
   813a0:	52800467 	mov	w7, #0x23                  	// #35
   813a4:	d0000460 	adrp	x0, 10f000 <EcoVirtualMemory1Lab_623E1838_MemoryMap+0x7d610>
   813a8:	9116a006 	add	x6, x0, #0x5a8
   813ac:	528001c5 	mov	w5, #0xe                   	// #14
   813b0:	528000a4 	mov	w4, #0x5                   	// #5
   813b4:	52800003 	mov	w3, #0x0                   	// #0
   813b8:	52800002 	mov	w2, #0x0                   	// #0
   813bc:	52800001 	mov	w1, #0x0                   	// #0
   813c0:	aa0903e0 	mov	x0, x9
   813c4:	d63f0100 	blr	x8
   813c8:	f9402fe0 	ldr	x0, [sp, #88]
   813cc:	f9400000 	ldr	x0, [x0]
   813d0:	f9400c02 	ldr	x2, [x0, #24]
   813d4:	f9402fe0 	ldr	x0, [sp, #88]
   813d8:	52801e01 	mov	w1, #0xf0                  	// #240
   813dc:	d63f0040 	blr	x2
   813e0:	f9004fe0 	str	x0, [sp, #152]
   813e4:	f9402fe0 	ldr	x0, [sp, #88]
   813e8:	f9400000 	ldr	x0, [x0]
   813ec:	f9400c02 	ldr	x2, [x0, #24]
   813f0:	f9402fe0 	ldr	x0, [sp, #88]
   813f4:	52800801 	mov	w1, #0x40                  	// #64
   813f8:	d63f0040 	blr	x2
   813fc:	f9004be0 	str	x0, [sp, #144]
   81400:	f9402fe0 	ldr	x0, [sp, #88]
   81404:	f9400000 	ldr	x0, [x0]
   81408:	f9400c02 	ldr	x2, [x0, #24]
   8140c:	f9402fe0 	ldr	x0, [sp, #88]
   81410:	52801401 	mov	w1, #0xa0                  	// #160
   81414:	d63f0040 	blr	x2
   81418:	f90047e0 	str	x0, [sp, #136]
   8141c:	f9402fe0 	ldr	x0, [sp, #88]
   81420:	f9400000 	ldr	x0, [x0]
   81424:	f9400c02 	ldr	x2, [x0, #24]
   81428:	f9402fe0 	ldr	x0, [sp, #88]
   8142c:	52800801 	mov	w1, #0x40                  	// #64
   81430:	d63f0040 	blr	x2
   81434:	f9003fe0 	str	x0, [sp, #120]
   81438:	f94047e0 	ldr	x0, [sp, #136]
   8143c:	f9003be0 	str	x0, [sp, #112]
   81440:	f9404fe0 	ldr	x0, [sp, #152]
   81444:	f100001f 	cmp	x0, #0x0
   81448:	54000ba0 	b.eq	815bc <EcoMain+0xdbc>  // b.none
   8144c:	f9404be0 	ldr	x0, [sp, #144]
   81450:	f100001f 	cmp	x0, #0x0
   81454:	54000b40 	b.eq	815bc <EcoMain+0xdbc>  // b.none
   81458:	f94047e0 	ldr	x0, [sp, #136]
   8145c:	f100001f 	cmp	x0, #0x0
   81460:	54000ae0 	b.eq	815bc <EcoMain+0xdbc>  // b.none
   81464:	f9403fe0 	ldr	x0, [sp, #120]
   81468:	f100001f 	cmp	x0, #0x0
   8146c:	54000a80 	b.eq	815bc <EcoMain+0xdbc>  // b.none
   81470:	f9402fe0 	ldr	x0, [sp, #88]
   81474:	f9400000 	ldr	x0, [x0]
   81478:	f9401002 	ldr	x2, [x0, #32]
   8147c:	f9402fe0 	ldr	x0, [sp, #88]
   81480:	f9404fe1 	ldr	x1, [sp, #152]
   81484:	d63f0040 	blr	x2
   81488:	f9402fe0 	ldr	x0, [sp, #88]
   8148c:	f9400000 	ldr	x0, [x0]
   81490:	f9401002 	ldr	x2, [x0, #32]
   81494:	f9402fe0 	ldr	x0, [sp, #88]
   81498:	f94047e1 	ldr	x1, [sp, #136]
   8149c:	d63f0040 	blr	x2
   814a0:	f9402fe0 	ldr	x0, [sp, #88]
   814a4:	f9400000 	ldr	x0, [x0]
   814a8:	f9400c02 	ldr	x2, [x0, #24]
   814ac:	f9402fe0 	ldr	x0, [sp, #88]
   814b0:	52801401 	mov	w1, #0xa0                  	// #160
   814b4:	d63f0040 	blr	x2
   814b8:	f90043e0 	str	x0, [sp, #128]
   814bc:	f94043e0 	ldr	x0, [sp, #128]
   814c0:	f100001f 	cmp	x0, #0x0
   814c4:	54000280 	b.eq	81514 <EcoMain+0xd14>  // b.none
   814c8:	f94043e1 	ldr	x1, [sp, #128]
   814cc:	f9403be0 	ldr	x0, [sp, #112]
   814d0:	eb00003f 	cmp	x1, x0
   814d4:	54000201 	b.ne	81514 <EcoMain+0xd14>  // b.any
   814d8:	f94013e0 	ldr	x0, [sp, #32]
   814dc:	f9400000 	ldr	x0, [x0]
   814e0:	f9405808 	ldr	x8, [x0, #176]
   814e4:	f94013e9 	ldr	x9, [sp, #32]
   814e8:	52800427 	mov	w7, #0x21                  	// #33
   814ec:	d0000460 	adrp	x0, 10f000 <EcoVirtualMemory1Lab_623E1838_MemoryMap+0x7d610>
   814f0:	91174006 	add	x6, x0, #0x5d0
   814f4:	52800045 	mov	w5, #0x2                   	// #2
   814f8:	528000c4 	mov	w4, #0x6                   	// #6
   814fc:	52800003 	mov	w3, #0x0                   	// #0
   81500:	52800002 	mov	w2, #0x0                   	// #0
   81504:	52800001 	mov	w1, #0x0                   	// #0
   81508:	aa0903e0 	mov	x0, x9
   8150c:	d63f0100 	blr	x8
   81510:	1400000f 	b	8154c <EcoMain+0xd4c>
   81514:	f94013e0 	ldr	x0, [sp, #32]
   81518:	f9400000 	ldr	x0, [x0]
   8151c:	f9405808 	ldr	x8, [x0, #176]
   81520:	f94013e9 	ldr	x9, [sp, #32]
   81524:	52800447 	mov	w7, #0x22                  	// #34
   81528:	d0000460 	adrp	x0, 10f000 <EcoVirtualMemory1Lab_623E1838_MemoryMap+0x7d610>
   8152c:	9117e006 	add	x6, x0, #0x5f8
   81530:	52800085 	mov	w5, #0x4                   	// #4
   81534:	528000c4 	mov	w4, #0x6                   	// #6
   81538:	52800003 	mov	w3, #0x0                   	// #0
   8153c:	52800002 	mov	w2, #0x0                   	// #0
   81540:	52800001 	mov	w1, #0x0                   	// #0
   81544:	aa0903e0 	mov	x0, x9
   81548:	d63f0100 	blr	x8
   8154c:	f94043e0 	ldr	x0, [sp, #128]
   81550:	f100001f 	cmp	x0, #0x0
   81554:	540000e0 	b.eq	81570 <EcoMain+0xd70>  // b.none
   81558:	f9402fe0 	ldr	x0, [sp, #88]
   8155c:	f9400000 	ldr	x0, [x0]
   81560:	f9401002 	ldr	x2, [x0, #32]
   81564:	f9402fe0 	ldr	x0, [sp, #88]
   81568:	f94043e1 	ldr	x1, [sp, #128]
   8156c:	d63f0040 	blr	x2
   81570:	f9403fe0 	ldr	x0, [sp, #120]
   81574:	f100001f 	cmp	x0, #0x0
   81578:	540000e0 	b.eq	81594 <EcoMain+0xd94>  // b.none
   8157c:	f9402fe0 	ldr	x0, [sp, #88]
   81580:	f9400000 	ldr	x0, [x0]
   81584:	f9401002 	ldr	x2, [x0, #32]
   81588:	f9402fe0 	ldr	x0, [sp, #88]
   8158c:	f9403fe1 	ldr	x1, [sp, #120]
   81590:	d63f0040 	blr	x2
   81594:	f9404be0 	ldr	x0, [sp, #144]
   81598:	f100001f 	cmp	x0, #0x0
   8159c:	54000740 	b.eq	81684 <EcoMain+0xe84>  // b.none
   815a0:	f9402fe0 	ldr	x0, [sp, #88]
   815a4:	f9400000 	ldr	x0, [x0]
   815a8:	f9401002 	ldr	x2, [x0, #32]
   815ac:	f9402fe0 	ldr	x0, [sp, #88]
   815b0:	f9404be1 	ldr	x1, [sp, #144]
   815b4:	d63f0040 	blr	x2
   815b8:	14000033 	b	81684 <EcoMain+0xe84>
   815bc:	f94013e0 	ldr	x0, [sp, #32]
   815c0:	f9400000 	ldr	x0, [x0]
   815c4:	f9405808 	ldr	x8, [x0, #176]
   815c8:	f94013e9 	ldr	x9, [sp, #32]
   815cc:	52800447 	mov	w7, #0x22                  	// #34
   815d0:	d0000460 	adrp	x0, 10f000 <EcoVirtualMemory1Lab_623E1838_MemoryMap+0x7d610>
   815d4:	9117e006 	add	x6, x0, #0x5f8
   815d8:	52800085 	mov	w5, #0x4                   	// #4
   815dc:	528000c4 	mov	w4, #0x6                   	// #6
   815e0:	52800003 	mov	w3, #0x0                   	// #0
   815e4:	52800002 	mov	w2, #0x0                   	// #0
   815e8:	52800001 	mov	w1, #0x0                   	// #0
   815ec:	aa0903e0 	mov	x0, x9
   815f0:	d63f0100 	blr	x8
   815f4:	f9404fe0 	ldr	x0, [sp, #152]
   815f8:	f100001f 	cmp	x0, #0x0
   815fc:	540000e0 	b.eq	81618 <EcoMain+0xe18>  // b.none
   81600:	f9402fe0 	ldr	x0, [sp, #88]
   81604:	f9400000 	ldr	x0, [x0]
   81608:	f9401002 	ldr	x2, [x0, #32]
   8160c:	f9402fe0 	ldr	x0, [sp, #88]
   81610:	f9404fe1 	ldr	x1, [sp, #152]
   81614:	d63f0040 	blr	x2
   81618:	f9404be0 	ldr	x0, [sp, #144]
   8161c:	f100001f 	cmp	x0, #0x0
   81620:	540000e0 	b.eq	8163c <EcoMain+0xe3c>  // b.none
   81624:	f9402fe0 	ldr	x0, [sp, #88]
   81628:	f9400000 	ldr	x0, [x0]
   8162c:	f9401002 	ldr	x2, [x0, #32]
   81630:	f9402fe0 	ldr	x0, [sp, #88]
   81634:	f9404be1 	ldr	x1, [sp, #144]
   81638:	d63f0040 	blr	x2
   8163c:	f94047e0 	ldr	x0, [sp, #136]
   81640:	f100001f 	cmp	x0, #0x0
   81644:	540000e0 	b.eq	81660 <EcoMain+0xe60>  // b.none
   81648:	f9402fe0 	ldr	x0, [sp, #88]
   8164c:	f9400000 	ldr	x0, [x0]
   81650:	f9401002 	ldr	x2, [x0, #32]
   81654:	f9402fe0 	ldr	x0, [sp, #88]
   81658:	f94047e1 	ldr	x1, [sp, #136]
   8165c:	d63f0040 	blr	x2
   81660:	f9403fe0 	ldr	x0, [sp, #120]
   81664:	f100001f 	cmp	x0, #0x0
   81668:	540000e0 	b.eq	81684 <EcoMain+0xe84>  // b.none
   8166c:	f9402fe0 	ldr	x0, [sp, #88]
   81670:	f9400000 	ldr	x0, [x0]
   81674:	f9401002 	ldr	x2, [x0, #32]
   81678:	f9402fe0 	ldr	x0, [sp, #88]
   8167c:	f9403fe1 	ldr	x1, [sp, #120]
   81680:	d63f0040 	blr	x2
   81684:	f94013e0 	ldr	x0, [sp, #32]
   81688:	f9400000 	ldr	x0, [x0]
   8168c:	f9405808 	ldr	x8, [x0, #176]
   81690:	f94013e9 	ldr	x9, [sp, #32]
   81694:	528004a7 	mov	w7, #0x25                  	// #37
   81698:	d0000460 	adrp	x0, 10f000 <EcoVirtualMemory1Lab_623E1838_MemoryMap+0x7d610>
   8169c:	91188006 	add	x6, x0, #0x620
   816a0:	528001c5 	mov	w5, #0xe                   	// #14
   816a4:	528000e4 	mov	w4, #0x7                   	// #7
   816a8:	52800003 	mov	w3, #0x0                   	// #0
   816ac:	52800002 	mov	w2, #0x0                   	// #0
   816b0:	52800001 	mov	w1, #0x0                   	// #0
   816b4:	aa0903e0 	mov	x0, x9
   816b8:	d63f0100 	blr	x8
   816bc:	f9402fe0 	ldr	x0, [sp, #88]
   816c0:	f9400000 	ldr	x0, [x0]
   816c4:	f9400c02 	ldr	x2, [x0, #24]
   816c8:	f9402fe0 	ldr	x0, [sp, #88]
   816cc:	52808001 	mov	w1, #0x400                 	// #1024
   816d0:	d63f0040 	blr	x2
   816d4:	f9004fe0 	str	x0, [sp, #152]
   816d8:	f9402fe0 	ldr	x0, [sp, #88]
   816dc:	f9400000 	ldr	x0, [x0]
   816e0:	f9400c02 	ldr	x2, [x0, #24]
   816e4:	f9402fe0 	ldr	x0, [sp, #88]
   816e8:	52800801 	mov	w1, #0x40                  	// #64
   816ec:	d63f0040 	blr	x2
   816f0:	f9004be0 	str	x0, [sp, #144]
   816f4:	f9402fe0 	ldr	x0, [sp, #88]
   816f8:	f9400000 	ldr	x0, [x0]
   816fc:	f9400c02 	ldr	x2, [x0, #24]
   81700:	f9402fe0 	ldr	x0, [sp, #88]
   81704:	52810001 	mov	w1, #0x800                 	// #2048
   81708:	d63f0040 	blr	x2
   8170c:	f90047e0 	str	x0, [sp, #136]
   81710:	f9402fe0 	ldr	x0, [sp, #88]
   81714:	f9400000 	ldr	x0, [x0]
   81718:	f9400c02 	ldr	x2, [x0, #24]
   8171c:	f9402fe0 	ldr	x0, [sp, #88]
   81720:	52800801 	mov	w1, #0x40                  	// #64
   81724:	d63f0040 	blr	x2
   81728:	f9003fe0 	str	x0, [sp, #120]
   8172c:	f94047e0 	ldr	x0, [sp, #136]
   81730:	f9003be0 	str	x0, [sp, #112]
   81734:	f9404fe0 	ldr	x0, [sp, #152]
   81738:	f100001f 	cmp	x0, #0x0
   8173c:	54000e80 	b.eq	8190c <EcoMain+0x110c>  // b.none
   81740:	f9404be0 	ldr	x0, [sp, #144]
   81744:	f100001f 	cmp	x0, #0x0
   81748:	54000e20 	b.eq	8190c <EcoMain+0x110c>  // b.none
   8174c:	f94047e0 	ldr	x0, [sp, #136]
   81750:	f100001f 	cmp	x0, #0x0
   81754:	54000dc0 	b.eq	8190c <EcoMain+0x110c>  // b.none
   81758:	f9403fe0 	ldr	x0, [sp, #120]
   8175c:	f100001f 	cmp	x0, #0x0
   81760:	54000d60 	b.eq	8190c <EcoMain+0x110c>  // b.none
   81764:	f9402fe0 	ldr	x0, [sp, #88]
   81768:	f9400000 	ldr	x0, [x0]
   8176c:	f9401002 	ldr	x2, [x0, #32]
   81770:	f9402fe0 	ldr	x0, [sp, #88]
   81774:	f9404fe1 	ldr	x1, [sp, #152]
   81778:	d63f0040 	blr	x2
   8177c:	f9402fe0 	ldr	x0, [sp, #88]
   81780:	f9400000 	ldr	x0, [x0]
   81784:	f9401002 	ldr	x2, [x0, #32]
   81788:	f9402fe0 	ldr	x0, [sp, #88]
   8178c:	f94047e1 	ldr	x1, [sp, #136]
   81790:	d63f0040 	blr	x2
   81794:	f9402fe0 	ldr	x0, [sp, #88]
   81798:	f9400000 	ldr	x0, [x0]
   8179c:	f9400c02 	ldr	x2, [x0, #24]
   817a0:	f9402fe0 	ldr	x0, [sp, #88]
   817a4:	52804001 	mov	w1, #0x200                 	// #512
   817a8:	d63f0040 	blr	x2
   817ac:	f90057e0 	str	x0, [sp, #168]
   817b0:	f9402fe0 	ldr	x0, [sp, #88]
   817b4:	f9400000 	ldr	x0, [x0]
   817b8:	f9400c02 	ldr	x2, [x0, #24]
   817bc:	f9402fe0 	ldr	x0, [sp, #88]
   817c0:	52801001 	mov	w1, #0x80                  	// #128
   817c4:	d63f0040 	blr	x2
   817c8:	f90037e0 	str	x0, [sp, #104]
   817cc:	f94057e0 	ldr	x0, [sp, #168]
   817d0:	f100001f 	cmp	x0, #0x0
   817d4:	54000360 	b.eq	81840 <EcoMain+0x1040>  // b.none
   817d8:	f94037e0 	ldr	x0, [sp, #104]
   817dc:	f100001f 	cmp	x0, #0x0
   817e0:	54000300 	b.eq	81840 <EcoMain+0x1040>  // b.none
   817e4:	f94057e1 	ldr	x1, [sp, #168]
   817e8:	f9404fe0 	ldr	x0, [sp, #152]
   817ec:	eb00003f 	cmp	x1, x0
   817f0:	54000281 	b.ne	81840 <EcoMain+0x1040>  // b.any
   817f4:	f94037e1 	ldr	x1, [sp, #104]
   817f8:	f9403be0 	ldr	x0, [sp, #112]
   817fc:	eb00003f 	cmp	x1, x0
   81800:	54000200 	b.eq	81840 <EcoMain+0x1040>  // b.none
   81804:	f94013e0 	ldr	x0, [sp, #32]
   81808:	f9400000 	ldr	x0, [x0]
   8180c:	f9405808 	ldr	x8, [x0, #176]
   81810:	f94013e9 	ldr	x9, [sp, #32]
   81814:	52800407 	mov	w7, #0x20                  	// #32
   81818:	d0000460 	adrp	x0, 10f000 <EcoVirtualMemory1Lab_623E1838_MemoryMap+0x7d610>
   8181c:	91192006 	add	x6, x0, #0x648
   81820:	52800045 	mov	w5, #0x2                   	// #2
   81824:	52800104 	mov	w4, #0x8                   	// #8
   81828:	52800003 	mov	w3, #0x0                   	// #0
   8182c:	52800002 	mov	w2, #0x0                   	// #0
   81830:	52800001 	mov	w1, #0x0                   	// #0
   81834:	aa0903e0 	mov	x0, x9
   81838:	d63f0100 	blr	x8
   8183c:	1400000f 	b	81878 <EcoMain+0x1078>
   81840:	f94013e0 	ldr	x0, [sp, #32]
   81844:	f9400000 	ldr	x0, [x0]
   81848:	f9405808 	ldr	x8, [x0, #176]
   8184c:	f94013e9 	ldr	x9, [sp, #32]
   81850:	52800447 	mov	w7, #0x22                  	// #34
   81854:	d0000460 	adrp	x0, 10f000 <EcoVirtualMemory1Lab_623E1838_MemoryMap+0x7d610>
   81858:	9119c006 	add	x6, x0, #0x670
   8185c:	52800085 	mov	w5, #0x4                   	// #4
   81860:	52800104 	mov	w4, #0x8                   	// #8
   81864:	52800003 	mov	w3, #0x0                   	// #0
   81868:	52800002 	mov	w2, #0x0                   	// #0
   8186c:	52800001 	mov	w1, #0x0                   	// #0
   81870:	aa0903e0 	mov	x0, x9
   81874:	d63f0100 	blr	x8
   81878:	f94037e0 	ldr	x0, [sp, #104]
   8187c:	f100001f 	cmp	x0, #0x0
   81880:	540000e0 	b.eq	8189c <EcoMain+0x109c>  // b.none
   81884:	f9402fe0 	ldr	x0, [sp, #88]
   81888:	f9400000 	ldr	x0, [x0]
   8188c:	f9401002 	ldr	x2, [x0, #32]
   81890:	f9402fe0 	ldr	x0, [sp, #88]
   81894:	f94037e1 	ldr	x1, [sp, #104]
   81898:	d63f0040 	blr	x2
   8189c:	f94057e0 	ldr	x0, [sp, #168]
   818a0:	f100001f 	cmp	x0, #0x0
   818a4:	540000e0 	b.eq	818c0 <EcoMain+0x10c0>  // b.none
   818a8:	f9402fe0 	ldr	x0, [sp, #88]
   818ac:	f9400000 	ldr	x0, [x0]
   818b0:	f9401002 	ldr	x2, [x0, #32]
   818b4:	f9402fe0 	ldr	x0, [sp, #88]
   818b8:	f94057e1 	ldr	x1, [sp, #168]
   818bc:	d63f0040 	blr	x2
   818c0:	f9403fe0 	ldr	x0, [sp, #120]
   818c4:	f100001f 	cmp	x0, #0x0
   818c8:	540000e0 	b.eq	818e4 <EcoMain+0x10e4>  // b.none
   818cc:	f9402fe0 	ldr	x0, [sp, #88]
   818d0:	f9400000 	ldr	x0, [x0]
   818d4:	f9401002 	ldr	x2, [x0, #32]
   818d8:	f9402fe0 	ldr	x0, [sp, #88]
   818dc:	f9403fe1 	ldr	x1, [sp, #120]
   818e0:	d63f0040 	blr	x2
   818e4:	f9404be0 	ldr	x0, [sp, #144]
   818e8:	f100001f 	cmp	x0, #0x0
   818ec:	54000980 	b.eq	81a1c <EcoMain+0x121c>  // b.none
   818f0:	f9402fe0 	ldr	x0, [sp, #88]
   818f4:	f9400000 	ldr	x0, [x0]
   818f8:	f9401002 	ldr	x2, [x0, #32]
   818fc:	f9402fe0 	ldr	x0, [sp, #88]
   81900:	f9404be1 	ldr	x1, [sp, #144]
   81904:	d63f0040 	blr	x2
   81908:	14000045 	b	81a1c <EcoMain+0x121c>
   8190c:	f94013e0 	ldr	x0, [sp, #32]
   81910:	f9400000 	ldr	x0, [x0]
   81914:	f9405808 	ldr	x8, [x0, #176]
   81918:	f94013e9 	ldr	x9, [sp, #32]
   8191c:	52800447 	mov	w7, #0x22                  	// #34
   81920:	d0000460 	adrp	x0, 10f000 <EcoVirtualMemory1Lab_623E1838_MemoryMap+0x7d610>
   81924:	9119c006 	add	x6, x0, #0x670
   81928:	52800085 	mov	w5, #0x4                   	// #4
   8192c:	52800104 	mov	w4, #0x8                   	// #8
   81930:	52800003 	mov	w3, #0x0                   	// #0
   81934:	52800002 	mov	w2, #0x0                   	// #0
   81938:	52800001 	mov	w1, #0x0                   	// #0
   8193c:	aa0903e0 	mov	x0, x9
   81940:	d63f0100 	blr	x8
   81944:	f9404fe0 	ldr	x0, [sp, #152]
   81948:	f100001f 	cmp	x0, #0x0
   8194c:	540000e0 	b.eq	81968 <EcoMain+0x1168>  // b.none
   81950:	f9402fe0 	ldr	x0, [sp, #88]
   81954:	f9400000 	ldr	x0, [x0]
   81958:	f9401002 	ldr	x2, [x0, #32]
   8195c:	f9402fe0 	ldr	x0, [sp, #88]
   81960:	f9404fe1 	ldr	x1, [sp, #152]
   81964:	d63f0040 	blr	x2
   81968:	f9404be0 	ldr	x0, [sp, #144]
   8196c:	f100001f 	cmp	x0, #0x0
   81970:	540000e0 	b.eq	8198c <EcoMain+0x118c>  // b.none
   81974:	f9402fe0 	ldr	x0, [sp, #88]
   81978:	f9400000 	ldr	x0, [x0]
   8197c:	f9401002 	ldr	x2, [x0, #32]
   81980:	f9402fe0 	ldr	x0, [sp, #88]
   81984:	f9404be1 	ldr	x1, [sp, #144]
   81988:	d63f0040 	blr	x2
   8198c:	f94047e0 	ldr	x0, [sp, #136]
   81990:	f100001f 	cmp	x0, #0x0
   81994:	540000e0 	b.eq	819b0 <EcoMain+0x11b0>  // b.none
   81998:	f9402fe0 	ldr	x0, [sp, #88]
   8199c:	f9400000 	ldr	x0, [x0]
   819a0:	f9401002 	ldr	x2, [x0, #32]
   819a4:	f9402fe0 	ldr	x0, [sp, #88]
   819a8:	f94047e1 	ldr	x1, [sp, #136]
   819ac:	d63f0040 	blr	x2
   819b0:	f9403fe0 	ldr	x0, [sp, #120]
   819b4:	f100001f 	cmp	x0, #0x0
   819b8:	540000e0 	b.eq	819d4 <EcoMain+0x11d4>  // b.none
   819bc:	f9402fe0 	ldr	x0, [sp, #88]
   819c0:	f9400000 	ldr	x0, [x0]
   819c4:	f9401002 	ldr	x2, [x0, #32]
   819c8:	f9402fe0 	ldr	x0, [sp, #88]
   819cc:	f9403fe1 	ldr	x1, [sp, #120]
   819d0:	d63f0040 	blr	x2
   819d4:	f94057e0 	ldr	x0, [sp, #168]
   819d8:	f100001f 	cmp	x0, #0x0
   819dc:	540000e0 	b.eq	819f8 <EcoMain+0x11f8>  // b.none
   819e0:	f9402fe0 	ldr	x0, [sp, #88]
   819e4:	f9400000 	ldr	x0, [x0]
   819e8:	f9401002 	ldr	x2, [x0, #32]
   819ec:	f9402fe0 	ldr	x0, [sp, #88]
   819f0:	f94057e1 	ldr	x1, [sp, #168]
   819f4:	d63f0040 	blr	x2
   819f8:	f94037e0 	ldr	x0, [sp, #104]
   819fc:	f100001f 	cmp	x0, #0x0
   81a00:	540000e0 	b.eq	81a1c <EcoMain+0x121c>  // b.none
   81a04:	f9402fe0 	ldr	x0, [sp, #88]
   81a08:	f9400000 	ldr	x0, [x0]
   81a0c:	f9401002 	ldr	x2, [x0, #32]
   81a10:	f9402fe0 	ldr	x0, [sp, #88]
   81a14:	f94037e1 	ldr	x1, [sp, #104]
   81a18:	d63f0040 	blr	x2
   81a1c:	f94013e0 	ldr	x0, [sp, #32]
   81a20:	f9400000 	ldr	x0, [x0]
   81a24:	f9405808 	ldr	x8, [x0, #176]
   81a28:	f94013e9 	ldr	x9, [sp, #32]
   81a2c:	52800427 	mov	w7, #0x21                  	// #33
   81a30:	d0000460 	adrp	x0, 10f000 <EcoVirtualMemory1Lab_623E1838_MemoryMap+0x7d610>
   81a34:	911a6006 	add	x6, x0, #0x698
   81a38:	528001c5 	mov	w5, #0xe                   	// #14
   81a3c:	52800124 	mov	w4, #0x9                   	// #9
   81a40:	52800003 	mov	w3, #0x0                   	// #0
   81a44:	52800002 	mov	w2, #0x0                   	// #0
   81a48:	52800001 	mov	w1, #0x0                   	// #0
   81a4c:	aa0903e0 	mov	x0, x9
   81a50:	d63f0100 	blr	x8
   81a54:	f9402fe0 	ldr	x0, [sp, #88]
   81a58:	f9400000 	ldr	x0, [x0]
   81a5c:	f9400c02 	ldr	x2, [x0, #24]
   81a60:	f9402fe0 	ldr	x0, [sp, #88]
   81a64:	52801901 	mov	w1, #0xc8                  	// #200
   81a68:	d63f0040 	blr	x2
   81a6c:	f9004fe0 	str	x0, [sp, #152]
   81a70:	f9402fe0 	ldr	x0, [sp, #88]
   81a74:	f9400000 	ldr	x0, [x0]
   81a78:	f9400c02 	ldr	x2, [x0, #24]
   81a7c:	f9402fe0 	ldr	x0, [sp, #88]
   81a80:	52801901 	mov	w1, #0xc8                  	// #200
   81a84:	d63f0040 	blr	x2
   81a88:	f9004be0 	str	x0, [sp, #144]
   81a8c:	f9402fe0 	ldr	x0, [sp, #88]
   81a90:	f9400000 	ldr	x0, [x0]
   81a94:	f9400c02 	ldr	x2, [x0, #24]
   81a98:	f9402fe0 	ldr	x0, [sp, #88]
   81a9c:	52801901 	mov	w1, #0xc8                  	// #200
   81aa0:	d63f0040 	blr	x2
   81aa4:	f90047e0 	str	x0, [sp, #136]
   81aa8:	f9402fe0 	ldr	x0, [sp, #88]
   81aac:	f9400000 	ldr	x0, [x0]
   81ab0:	f9400c02 	ldr	x2, [x0, #24]
   81ab4:	f9402fe0 	ldr	x0, [sp, #88]
   81ab8:	52800801 	mov	w1, #0x40                  	// #64
   81abc:	d63f0040 	blr	x2
   81ac0:	f90043e0 	str	x0, [sp, #128]
   81ac4:	f9402fe0 	ldr	x0, [sp, #88]
   81ac8:	f9400000 	ldr	x0, [x0]
   81acc:	f9400c02 	ldr	x2, [x0, #24]
   81ad0:	f9402fe0 	ldr	x0, [sp, #88]
   81ad4:	52806401 	mov	w1, #0x320                 	// #800
   81ad8:	d63f0040 	blr	x2
   81adc:	f9003fe0 	str	x0, [sp, #120]
   81ae0:	f9404fe0 	ldr	x0, [sp, #152]
   81ae4:	f100001f 	cmp	x0, #0x0
   81ae8:	54000c60 	b.eq	81c74 <EcoMain+0x1474>  // b.none
   81aec:	f9404be0 	ldr	x0, [sp, #144]
   81af0:	f100001f 	cmp	x0, #0x0
   81af4:	54000c00 	b.eq	81c74 <EcoMain+0x1474>  // b.none
   81af8:	f94047e0 	ldr	x0, [sp, #136]
   81afc:	f100001f 	cmp	x0, #0x0
   81b00:	54000ba0 	b.eq	81c74 <EcoMain+0x1474>  // b.none
   81b04:	f94043e0 	ldr	x0, [sp, #128]
   81b08:	f100001f 	cmp	x0, #0x0
   81b0c:	54000b40 	b.eq	81c74 <EcoMain+0x1474>  // b.none
   81b10:	f9403fe0 	ldr	x0, [sp, #120]
   81b14:	f100001f 	cmp	x0, #0x0
   81b18:	54000ae0 	b.eq	81c74 <EcoMain+0x1474>  // b.none
   81b1c:	f9402fe0 	ldr	x0, [sp, #88]
   81b20:	f9400000 	ldr	x0, [x0]
   81b24:	f9401002 	ldr	x2, [x0, #32]
   81b28:	f9402fe0 	ldr	x0, [sp, #88]
   81b2c:	f9404fe1 	ldr	x1, [sp, #152]
   81b30:	d63f0040 	blr	x2
   81b34:	f9402fe0 	ldr	x0, [sp, #88]
   81b38:	f9400000 	ldr	x0, [x0]
   81b3c:	f9401002 	ldr	x2, [x0, #32]
   81b40:	f9402fe0 	ldr	x0, [sp, #88]
   81b44:	f9404be1 	ldr	x1, [sp, #144]
   81b48:	d63f0040 	blr	x2
   81b4c:	f9402fe0 	ldr	x0, [sp, #88]
   81b50:	f9400000 	ldr	x0, [x0]
   81b54:	f9401002 	ldr	x2, [x0, #32]
   81b58:	f9402fe0 	ldr	x0, [sp, #88]
   81b5c:	f94047e1 	ldr	x1, [sp, #136]
   81b60:	d63f0040 	blr	x2
   81b64:	f9402fe0 	ldr	x0, [sp, #88]
   81b68:	f9400000 	ldr	x0, [x0]
   81b6c:	f9401002 	ldr	x2, [x0, #32]
   81b70:	f9402fe0 	ldr	x0, [sp, #88]
   81b74:	f9403fe1 	ldr	x1, [sp, #120]
   81b78:	d63f0040 	blr	x2
   81b7c:	f9402fe0 	ldr	x0, [sp, #88]
   81b80:	f9400000 	ldr	x0, [x0]
   81b84:	f9400c02 	ldr	x2, [x0, #24]
   81b88:	f9402fe0 	ldr	x0, [sp, #88]
   81b8c:	52803e81 	mov	w1, #0x1f4                 	// #500
   81b90:	d63f0040 	blr	x2
   81b94:	f9005be0 	str	x0, [sp, #176]
   81b98:	f9405be0 	ldr	x0, [sp, #176]
   81b9c:	f100001f 	cmp	x0, #0x0
   81ba0:	54000280 	b.eq	81bf0 <EcoMain+0x13f0>  // b.none
   81ba4:	f9405be1 	ldr	x1, [sp, #176]
   81ba8:	f9404fe0 	ldr	x0, [sp, #152]
   81bac:	eb00003f 	cmp	x1, x0
   81bb0:	54000201 	b.ne	81bf0 <EcoMain+0x13f0>  // b.any
   81bb4:	f94013e0 	ldr	x0, [sp, #32]
   81bb8:	f9400000 	ldr	x0, [x0]
   81bbc:	f9405808 	ldr	x8, [x0, #176]
   81bc0:	f94013e9 	ldr	x9, [sp, #32]
   81bc4:	52800367 	mov	w7, #0x1b                  	// #27
   81bc8:	d0000460 	adrp	x0, 10f000 <EcoVirtualMemory1Lab_623E1838_MemoryMap+0x7d610>
   81bcc:	911b0006 	add	x6, x0, #0x6c0
   81bd0:	52800045 	mov	w5, #0x2                   	// #2
   81bd4:	52800144 	mov	w4, #0xa                   	// #10
   81bd8:	52800003 	mov	w3, #0x0                   	// #0
   81bdc:	52800002 	mov	w2, #0x0                   	// #0
   81be0:	52800001 	mov	w1, #0x0                   	// #0
   81be4:	aa0903e0 	mov	x0, x9
   81be8:	d63f0100 	blr	x8
   81bec:	1400000f 	b	81c28 <EcoMain+0x1428>
   81bf0:	f94013e0 	ldr	x0, [sp, #32]
   81bf4:	f9400000 	ldr	x0, [x0]
   81bf8:	f9405808 	ldr	x8, [x0, #176]
   81bfc:	f94013e9 	ldr	x9, [sp, #32]
   81c00:	528003c7 	mov	w7, #0x1e                  	// #30
   81c04:	d0000460 	adrp	x0, 10f000 <EcoVirtualMemory1Lab_623E1838_MemoryMap+0x7d610>
   81c08:	911b8006 	add	x6, x0, #0x6e0
   81c0c:	52800085 	mov	w5, #0x4                   	// #4
   81c10:	52800144 	mov	w4, #0xa                   	// #10
   81c14:	52800003 	mov	w3, #0x0                   	// #0
   81c18:	52800002 	mov	w2, #0x0                   	// #0
   81c1c:	52800001 	mov	w1, #0x0                   	// #0
   81c20:	aa0903e0 	mov	x0, x9
   81c24:	d63f0100 	blr	x8
   81c28:	f9405be0 	ldr	x0, [sp, #176]
   81c2c:	f100001f 	cmp	x0, #0x0
   81c30:	540000e0 	b.eq	81c4c <EcoMain+0x144c>  // b.none
   81c34:	f9402fe0 	ldr	x0, [sp, #88]
   81c38:	f9400000 	ldr	x0, [x0]
   81c3c:	f9401002 	ldr	x2, [x0, #32]
   81c40:	f9402fe0 	ldr	x0, [sp, #88]
   81c44:	f9405be1 	ldr	x1, [sp, #176]
   81c48:	d63f0040 	blr	x2
   81c4c:	f94043e0 	ldr	x0, [sp, #128]
   81c50:	f100001f 	cmp	x0, #0x0
   81c54:	54000980 	b.eq	81d84 <EcoMain+0x1584>  // b.none
   81c58:	f9402fe0 	ldr	x0, [sp, #88]
   81c5c:	f9400000 	ldr	x0, [x0]
   81c60:	f9401002 	ldr	x2, [x0, #32]
   81c64:	f9402fe0 	ldr	x0, [sp, #88]
   81c68:	f94043e1 	ldr	x1, [sp, #128]
   81c6c:	d63f0040 	blr	x2
   81c70:	14000045 	b	81d84 <EcoMain+0x1584>
   81c74:	f94013e0 	ldr	x0, [sp, #32]
   81c78:	f9400000 	ldr	x0, [x0]
   81c7c:	f9405808 	ldr	x8, [x0, #176]
   81c80:	f94013e9 	ldr	x9, [sp, #32]
   81c84:	528003c7 	mov	w7, #0x1e                  	// #30
   81c88:	d0000460 	adrp	x0, 10f000 <EcoVirtualMemory1Lab_623E1838_MemoryMap+0x7d610>
   81c8c:	911b8006 	add	x6, x0, #0x6e0
   81c90:	52800085 	mov	w5, #0x4                   	// #4
   81c94:	52800144 	mov	w4, #0xa                   	// #10
   81c98:	52800003 	mov	w3, #0x0                   	// #0
   81c9c:	52800002 	mov	w2, #0x0                   	// #0
   81ca0:	52800001 	mov	w1, #0x0                   	// #0
   81ca4:	aa0903e0 	mov	x0, x9
   81ca8:	d63f0100 	blr	x8
   81cac:	f9404fe0 	ldr	x0, [sp, #152]
   81cb0:	f100001f 	cmp	x0, #0x0
   81cb4:	540000e0 	b.eq	81cd0 <EcoMain+0x14d0>  // b.none
   81cb8:	f9402fe0 	ldr	x0, [sp, #88]
   81cbc:	f9400000 	ldr	x0, [x0]
   81cc0:	f9401002 	ldr	x2, [x0, #32]
   81cc4:	f9402fe0 	ldr	x0, [sp, #88]
   81cc8:	f9404fe1 	ldr	x1, [sp, #152]
   81ccc:	d63f0040 	blr	x2
   81cd0:	f9404be0 	ldr	x0, [sp, #144]
   81cd4:	f100001f 	cmp	x0, #0x0
   81cd8:	540000e0 	b.eq	81cf4 <EcoMain+0x14f4>  // b.none
   81cdc:	f9402fe0 	ldr	x0, [sp, #88]
   81ce0:	f9400000 	ldr	x0, [x0]
   81ce4:	f9401002 	ldr	x2, [x0, #32]
   81ce8:	f9402fe0 	ldr	x0, [sp, #88]
   81cec:	f9404be1 	ldr	x1, [sp, #144]
   81cf0:	d63f0040 	blr	x2
   81cf4:	f94047e0 	ldr	x0, [sp, #136]
   81cf8:	f100001f 	cmp	x0, #0x0
   81cfc:	540000e0 	b.eq	81d18 <EcoMain+0x1518>  // b.none
   81d00:	f9402fe0 	ldr	x0, [sp, #88]
   81d04:	f9400000 	ldr	x0, [x0]
   81d08:	f9401002 	ldr	x2, [x0, #32]
   81d0c:	f9402fe0 	ldr	x0, [sp, #88]
   81d10:	f94047e1 	ldr	x1, [sp, #136]
   81d14:	d63f0040 	blr	x2
   81d18:	f94043e0 	ldr	x0, [sp, #128]
   81d1c:	f100001f 	cmp	x0, #0x0
   81d20:	540000e0 	b.eq	81d3c <EcoMain+0x153c>  // b.none
   81d24:	f9402fe0 	ldr	x0, [sp, #88]
   81d28:	f9400000 	ldr	x0, [x0]
   81d2c:	f9401002 	ldr	x2, [x0, #32]
   81d30:	f9402fe0 	ldr	x0, [sp, #88]
   81d34:	f94043e1 	ldr	x1, [sp, #128]
   81d38:	d63f0040 	blr	x2
   81d3c:	f9403fe0 	ldr	x0, [sp, #120]
   81d40:	f100001f 	cmp	x0, #0x0
   81d44:	540000e0 	b.eq	81d60 <EcoMain+0x1560>  // b.none
   81d48:	f9402fe0 	ldr	x0, [sp, #88]
   81d4c:	f9400000 	ldr	x0, [x0]
   81d50:	f9401002 	ldr	x2, [x0, #32]
   81d54:	f9402fe0 	ldr	x0, [sp, #88]
   81d58:	f9403fe1 	ldr	x1, [sp, #120]
   81d5c:	d63f0040 	blr	x2
   81d60:	f9405be0 	ldr	x0, [sp, #176]
   81d64:	f100001f 	cmp	x0, #0x0
   81d68:	540000e0 	b.eq	81d84 <EcoMain+0x1584>  // b.none
   81d6c:	f9402fe0 	ldr	x0, [sp, #88]
   81d70:	f9400000 	ldr	x0, [x0]
   81d74:	f9401002 	ldr	x2, [x0, #32]
   81d78:	f9402fe0 	ldr	x0, [sp, #88]
   81d7c:	f9405be1 	ldr	x1, [sp, #176]
   81d80:	d63f0040 	blr	x2
   81d84:	f94013e0 	ldr	x0, [sp, #32]
   81d88:	f9400000 	ldr	x0, [x0]
   81d8c:	f9405808 	ldr	x8, [x0, #176]
   81d90:	f94013e9 	ldr	x9, [sp, #32]
   81d94:	528006a7 	mov	w7, #0x35                  	// #53
   81d98:	d0000460 	adrp	x0, 10f000 <EcoVirtualMemory1Lab_623E1838_MemoryMap+0x7d610>
   81d9c:	911c0006 	add	x6, x0, #0x700
   81da0:	528001c5 	mov	w5, #0xe                   	// #14
   81da4:	52800164 	mov	w4, #0xb                   	// #11
   81da8:	52800003 	mov	w3, #0x0                   	// #0
   81dac:	52800002 	mov	w2, #0x0                   	// #0
   81db0:	52800001 	mov	w1, #0x0                   	// #0
   81db4:	aa0903e0 	mov	x0, x9
   81db8:	d63f0100 	blr	x8
   81dbc:	f9402fe0 	ldr	x0, [sp, #88]
   81dc0:	f9400000 	ldr	x0, [x0]
   81dc4:	f9400c02 	ldr	x2, [x0, #24]
   81dc8:	f9402fe0 	ldr	x0, [sp, #88]
   81dcc:	52802001 	mov	w1, #0x100                 	// #256
   81dd0:	d63f0040 	blr	x2
   81dd4:	f9004fe0 	str	x0, [sp, #152]
   81dd8:	f9402fe0 	ldr	x0, [sp, #88]
   81ddc:	f9400000 	ldr	x0, [x0]
   81de0:	f9400c02 	ldr	x2, [x0, #24]
   81de4:	f9402fe0 	ldr	x0, [sp, #88]
   81de8:	52800801 	mov	w1, #0x40                  	// #64
   81dec:	d63f0040 	blr	x2
   81df0:	f9004be0 	str	x0, [sp, #144]
   81df4:	f9402fe0 	ldr	x0, [sp, #88]
   81df8:	f9400000 	ldr	x0, [x0]
   81dfc:	f9400c02 	ldr	x2, [x0, #24]
   81e00:	f9402fe0 	ldr	x0, [sp, #88]
   81e04:	52802001 	mov	w1, #0x100                 	// #256
   81e08:	d63f0040 	blr	x2
   81e0c:	f90047e0 	str	x0, [sp, #136]
   81e10:	f9402fe0 	ldr	x0, [sp, #88]
   81e14:	f9400000 	ldr	x0, [x0]
   81e18:	f9400c02 	ldr	x2, [x0, #24]
   81e1c:	f9402fe0 	ldr	x0, [sp, #88]
   81e20:	52800801 	mov	w1, #0x40                  	// #64
   81e24:	d63f0040 	blr	x2
   81e28:	f90043e0 	str	x0, [sp, #128]
   81e2c:	f9402fe0 	ldr	x0, [sp, #88]
   81e30:	f9400000 	ldr	x0, [x0]
   81e34:	f9400c02 	ldr	x2, [x0, #24]
   81e38:	f9402fe0 	ldr	x0, [sp, #88]
   81e3c:	52802001 	mov	w1, #0x100                 	// #256
   81e40:	d63f0040 	blr	x2
   81e44:	f9003fe0 	str	x0, [sp, #120]
   81e48:	f9404fe0 	ldr	x0, [sp, #152]
   81e4c:	f100001f 	cmp	x0, #0x0
   81e50:	54000d20 	b.eq	81ff4 <EcoMain+0x17f4>  // b.none
   81e54:	f9404be0 	ldr	x0, [sp, #144]
   81e58:	f100001f 	cmp	x0, #0x0
   81e5c:	54000cc0 	b.eq	81ff4 <EcoMain+0x17f4>  // b.none
   81e60:	f94047e0 	ldr	x0, [sp, #136]
   81e64:	f100001f 	cmp	x0, #0x0
   81e68:	54000c60 	b.eq	81ff4 <EcoMain+0x17f4>  // b.none
   81e6c:	f94043e0 	ldr	x0, [sp, #128]
   81e70:	f100001f 	cmp	x0, #0x0
   81e74:	54000c00 	b.eq	81ff4 <EcoMain+0x17f4>  // b.none
   81e78:	f9403fe0 	ldr	x0, [sp, #120]
   81e7c:	f100001f 	cmp	x0, #0x0
   81e80:	54000ba0 	b.eq	81ff4 <EcoMain+0x17f4>  // b.none
   81e84:	f9402fe0 	ldr	x0, [sp, #88]
   81e88:	f9400000 	ldr	x0, [x0]
   81e8c:	f9401002 	ldr	x2, [x0, #32]
   81e90:	f9402fe0 	ldr	x0, [sp, #88]
   81e94:	f9404fe1 	ldr	x1, [sp, #152]
   81e98:	d63f0040 	blr	x2
   81e9c:	f9402fe0 	ldr	x0, [sp, #88]
   81ea0:	f9400000 	ldr	x0, [x0]
   81ea4:	f9401002 	ldr	x2, [x0, #32]
   81ea8:	f9402fe0 	ldr	x0, [sp, #88]
   81eac:	f94047e1 	ldr	x1, [sp, #136]
   81eb0:	d63f0040 	blr	x2
   81eb4:	f9402fe0 	ldr	x0, [sp, #88]
   81eb8:	f9400000 	ldr	x0, [x0]
   81ebc:	f9400c02 	ldr	x2, [x0, #24]
   81ec0:	f9402fe0 	ldr	x0, [sp, #88]
   81ec4:	52801001 	mov	w1, #0x80                  	// #128
   81ec8:	d63f0040 	blr	x2
   81ecc:	f90057e0 	str	x0, [sp, #168]
   81ed0:	f94057e0 	ldr	x0, [sp, #168]
   81ed4:	f100001f 	cmp	x0, #0x0
   81ed8:	54000280 	b.eq	81f28 <EcoMain+0x1728>  // b.none
   81edc:	f94057e1 	ldr	x1, [sp, #168]
   81ee0:	f9404fe0 	ldr	x0, [sp, #152]
   81ee4:	eb00003f 	cmp	x1, x0
   81ee8:	54000201 	b.ne	81f28 <EcoMain+0x1728>  // b.any
   81eec:	f94013e0 	ldr	x0, [sp, #32]
   81ef0:	f9400000 	ldr	x0, [x0]
   81ef4:	f9405808 	ldr	x8, [x0, #176]
   81ef8:	f94013e9 	ldr	x9, [sp, #32]
   81efc:	52800427 	mov	w7, #0x21                  	// #33
   81f00:	d0000460 	adrp	x0, 10f000 <EcoVirtualMemory1Lab_623E1838_MemoryMap+0x7d610>
   81f04:	911ce006 	add	x6, x0, #0x738
   81f08:	52800045 	mov	w5, #0x2                   	// #2
   81f0c:	52800184 	mov	w4, #0xc                   	// #12
   81f10:	52800003 	mov	w3, #0x0                   	// #0
   81f14:	52800002 	mov	w2, #0x0                   	// #0
   81f18:	52800001 	mov	w1, #0x0                   	// #0
   81f1c:	aa0903e0 	mov	x0, x9
   81f20:	d63f0100 	blr	x8
   81f24:	1400000f 	b	81f60 <EcoMain+0x1760>
   81f28:	f94013e0 	ldr	x0, [sp, #32]
   81f2c:	f9400000 	ldr	x0, [x0]
   81f30:	f9405808 	ldr	x8, [x0, #176]
   81f34:	f94013e9 	ldr	x9, [sp, #32]
   81f38:	528004c7 	mov	w7, #0x26                  	// #38
   81f3c:	d0000460 	adrp	x0, 10f000 <EcoVirtualMemory1Lab_623E1838_MemoryMap+0x7d610>
   81f40:	911d8006 	add	x6, x0, #0x760
   81f44:	52800085 	mov	w5, #0x4                   	// #4
   81f48:	52800184 	mov	w4, #0xc                   	// #12
   81f4c:	52800003 	mov	w3, #0x0                   	// #0
   81f50:	52800002 	mov	w2, #0x0                   	// #0
   81f54:	52800001 	mov	w1, #0x0                   	// #0
   81f58:	aa0903e0 	mov	x0, x9
   81f5c:	d63f0100 	blr	x8
   81f60:	f94057e0 	ldr	x0, [sp, #168]
   81f64:	f100001f 	cmp	x0, #0x0
   81f68:	540000e0 	b.eq	81f84 <EcoMain+0x1784>  // b.none
   81f6c:	f9402fe0 	ldr	x0, [sp, #88]
   81f70:	f9400000 	ldr	x0, [x0]
   81f74:	f9401002 	ldr	x2, [x0, #32]
   81f78:	f9402fe0 	ldr	x0, [sp, #88]
   81f7c:	f94057e1 	ldr	x1, [sp, #168]
   81f80:	d63f0040 	blr	x2
   81f84:	f9403fe0 	ldr	x0, [sp, #120]
   81f88:	f100001f 	cmp	x0, #0x0
   81f8c:	540000e0 	b.eq	81fa8 <EcoMain+0x17a8>  // b.none
   81f90:	f9402fe0 	ldr	x0, [sp, #88]
   81f94:	f9400000 	ldr	x0, [x0]
   81f98:	f9401002 	ldr	x2, [x0, #32]
   81f9c:	f9402fe0 	ldr	x0, [sp, #88]
   81fa0:	f9403fe1 	ldr	x1, [sp, #120]
   81fa4:	d63f0040 	blr	x2
   81fa8:	f9404be0 	ldr	x0, [sp, #144]
   81fac:	f100001f 	cmp	x0, #0x0
   81fb0:	540000e0 	b.eq	81fcc <EcoMain+0x17cc>  // b.none
   81fb4:	f9402fe0 	ldr	x0, [sp, #88]
   81fb8:	f9400000 	ldr	x0, [x0]
   81fbc:	f9401002 	ldr	x2, [x0, #32]
   81fc0:	f9402fe0 	ldr	x0, [sp, #88]
   81fc4:	f9404be1 	ldr	x1, [sp, #144]
   81fc8:	d63f0040 	blr	x2
   81fcc:	f94043e0 	ldr	x0, [sp, #128]
   81fd0:	f100001f 	cmp	x0, #0x0
   81fd4:	54000980 	b.eq	82104 <EcoMain+0x1904>  // b.none
   81fd8:	f9402fe0 	ldr	x0, [sp, #88]
   81fdc:	f9400000 	ldr	x0, [x0]
   81fe0:	f9401002 	ldr	x2, [x0, #32]
   81fe4:	f9402fe0 	ldr	x0, [sp, #88]
   81fe8:	f94043e1 	ldr	x1, [sp, #128]
   81fec:	d63f0040 	blr	x2
   81ff0:	14000045 	b	82104 <EcoMain+0x1904>
   81ff4:	f94013e0 	ldr	x0, [sp, #32]
   81ff8:	f9400000 	ldr	x0, [x0]
   81ffc:	f9405808 	ldr	x8, [x0, #176]
   82000:	f94013e9 	ldr	x9, [sp, #32]
   82004:	528004c7 	mov	w7, #0x26                  	// #38
   82008:	b0000460 	adrp	x0, 10f000 <EcoVirtualMemory1Lab_623E1838_MemoryMap+0x7d610>
   8200c:	911d8006 	add	x6, x0, #0x760
   82010:	52800085 	mov	w5, #0x4                   	// #4
   82014:	52800184 	mov	w4, #0xc                   	// #12
   82018:	52800003 	mov	w3, #0x0                   	// #0
   8201c:	52800002 	mov	w2, #0x0                   	// #0
   82020:	52800001 	mov	w1, #0x0                   	// #0
   82024:	aa0903e0 	mov	x0, x9
   82028:	d63f0100 	blr	x8
   8202c:	f9404fe0 	ldr	x0, [sp, #152]
   82030:	f100001f 	cmp	x0, #0x0
   82034:	540000e0 	b.eq	82050 <EcoMain+0x1850>  // b.none
   82038:	f9402fe0 	ldr	x0, [sp, #88]
   8203c:	f9400000 	ldr	x0, [x0]
   82040:	f9401002 	ldr	x2, [x0, #32]
   82044:	f9402fe0 	ldr	x0, [sp, #88]
   82048:	f9404fe1 	ldr	x1, [sp, #152]
   8204c:	d63f0040 	blr	x2
   82050:	f9404be0 	ldr	x0, [sp, #144]
   82054:	f100001f 	cmp	x0, #0x0
   82058:	540000e0 	b.eq	82074 <EcoMain+0x1874>  // b.none
   8205c:	f9402fe0 	ldr	x0, [sp, #88]
   82060:	f9400000 	ldr	x0, [x0]
   82064:	f9401002 	ldr	x2, [x0, #32]
   82068:	f9402fe0 	ldr	x0, [sp, #88]
   8206c:	f9404be1 	ldr	x1, [sp, #144]
   82070:	d63f0040 	blr	x2
   82074:	f94047e0 	ldr	x0, [sp, #136]
   82078:	f100001f 	cmp	x0, #0x0
   8207c:	540000e0 	b.eq	82098 <EcoMain+0x1898>  // b.none
   82080:	f9402fe0 	ldr	x0, [sp, #88]
   82084:	f9400000 	ldr	x0, [x0]
   82088:	f9401002 	ldr	x2, [x0, #32]
   8208c:	f9402fe0 	ldr	x0, [sp, #88]
   82090:	f94047e1 	ldr	x1, [sp, #136]
   82094:	d63f0040 	blr	x2
   82098:	f94043e0 	ldr	x0, [sp, #128]
   8209c:	f100001f 	cmp	x0, #0x0
   820a0:	540000e0 	b.eq	820bc <EcoMain+0x18bc>  // b.none
   820a4:	f9402fe0 	ldr	x0, [sp, #88]
   820a8:	f9400000 	ldr	x0, [x0]
   820ac:	f9401002 	ldr	x2, [x0, #32]
   820b0:	f9402fe0 	ldr	x0, [sp, #88]
   820b4:	f94043e1 	ldr	x1, [sp, #128]
   820b8:	d63f0040 	blr	x2
   820bc:	f9403fe0 	ldr	x0, [sp, #120]
   820c0:	f100001f 	cmp	x0, #0x0
   820c4:	540000e0 	b.eq	820e0 <EcoMain+0x18e0>  // b.none
   820c8:	f9402fe0 	ldr	x0, [sp, #88]
   820cc:	f9400000 	ldr	x0, [x0]
   820d0:	f9401002 	ldr	x2, [x0, #32]
   820d4:	f9402fe0 	ldr	x0, [sp, #88]
   820d8:	f9403fe1 	ldr	x1, [sp, #120]
   820dc:	d63f0040 	blr	x2
   820e0:	f94057e0 	ldr	x0, [sp, #168]
   820e4:	f100001f 	cmp	x0, #0x0
   820e8:	540000e0 	b.eq	82104 <EcoMain+0x1904>  // b.none
   820ec:	f9402fe0 	ldr	x0, [sp, #88]
   820f0:	f9400000 	ldr	x0, [x0]
   820f4:	f9401002 	ldr	x2, [x0, #32]
   820f8:	f9402fe0 	ldr	x0, [sp, #88]
   820fc:	f94057e1 	ldr	x1, [sp, #168]
   82100:	d63f0040 	blr	x2
   82104:	f94013e0 	ldr	x0, [sp, #32]
   82108:	f9400000 	ldr	x0, [x0]
   8210c:	f9405808 	ldr	x8, [x0, #176]
   82110:	f94013e9 	ldr	x9, [sp, #32]
   82114:	52800207 	mov	w7, #0x10                  	// #16
   82118:	b0000460 	adrp	x0, 10f000 <EcoVirtualMemory1Lab_623E1838_MemoryMap+0x7d610>
   8211c:	911e2006 	add	x6, x0, #0x788
   82120:	528001c5 	mov	w5, #0xe                   	// #14
   82124:	528001a4 	mov	w4, #0xd                   	// #13
   82128:	52800003 	mov	w3, #0x0                   	// #0
   8212c:	52800002 	mov	w2, #0x0                   	// #0
   82130:	52800001 	mov	w1, #0x0                   	// #0
   82134:	aa0903e0 	mov	x0, x9
   82138:	d63f0100 	blr	x8
   8213c:	d503201f 	nop
   82140:	17ffffff 	b	8213c <EcoMain+0x193c>
   82144:	d503201f 	nop
   82148:	1400000a 	b	82170 <EcoMain+0x1970>
   8214c:	d503201f 	nop
   82150:	14000008 	b	82170 <EcoMain+0x1970>
   82154:	d503201f 	nop
   82158:	14000006 	b	82170 <EcoMain+0x1970>
   8215c:	d503201f 	nop
   82160:	14000004 	b	82170 <EcoMain+0x1970>
   82164:	d503201f 	nop
   82168:	14000002 	b	82170 <EcoMain+0x1970>
   8216c:	d503201f 	nop
   82170:	f9402be0 	ldr	x0, [sp, #80]
   82174:	f100001f 	cmp	x0, #0x0
   82178:	540000c0 	b.eq	82190 <EcoMain+0x1990>  // b.none
   8217c:	f9402be0 	ldr	x0, [sp, #80]
   82180:	f9400000 	ldr	x0, [x0]
   82184:	f9400801 	ldr	x1, [x0, #16]
   82188:	f9402be0 	ldr	x0, [sp, #80]
   8218c:	d63f0020 	blr	x1
   82190:	f94033e0 	ldr	x0, [sp, #96]
   82194:	f100001f 	cmp	x0, #0x0
   82198:	540000c0 	b.eq	821b0 <EcoMain+0x19b0>  // b.none
   8219c:	f94033e0 	ldr	x0, [sp, #96]
   821a0:	f9400000 	ldr	x0, [x0]
   821a4:	f9400801 	ldr	x1, [x0, #16]
   821a8:	f94033e0 	ldr	x0, [sp, #96]
   821ac:	d63f0020 	blr	x1
   821b0:	f9402fe0 	ldr	x0, [sp, #88]
   821b4:	f100001f 	cmp	x0, #0x0
   821b8:	540000c0 	b.eq	821d0 <EcoMain+0x19d0>  // b.none
   821bc:	f9402fe0 	ldr	x0, [sp, #88]
   821c0:	f9400000 	ldr	x0, [x0]
   821c4:	f9400801 	ldr	x1, [x0, #16]
   821c8:	f9402fe0 	ldr	x0, [sp, #88]
   821cc:	d63f0020 	blr	x1
   821d0:	f94023e0 	ldr	x0, [sp, #64]
   821d4:	f100001f 	cmp	x0, #0x0
   821d8:	540000c0 	b.eq	821f0 <EcoMain+0x19f0>  // b.none
   821dc:	f94023e0 	ldr	x0, [sp, #64]
   821e0:	f9400000 	ldr	x0, [x0]
   821e4:	f9400801 	ldr	x1, [x0, #16]
   821e8:	f94023e0 	ldr	x0, [sp, #64]
   821ec:	d63f0020 	blr	x1
   821f0:	f94053e0 	ldr	x0, [sp, #160]
   821f4:	f100001f 	cmp	x0, #0x0
   821f8:	540000c0 	b.eq	82210 <EcoMain+0x1a10>  // b.none
   821fc:	f94053e0 	ldr	x0, [sp, #160]
   82200:	f9400000 	ldr	x0, [x0]
   82204:	f9400801 	ldr	x1, [x0, #16]
   82208:	f94053e0 	ldr	x0, [sp, #160]
   8220c:	d63f0020 	blr	x1
   82210:	79c17fe0 	ldrsh	w0, [sp, #190]
   82214:	f84c07fe 	ldr	x30, [sp], #192
   82218:	d65f03c0 	ret
   8221c:	00000000 	udf	#0

0000000000082220 <CoreExecute>:
   82220:	f2401c00 	ands	x0, x0, #0xff
   82224:	540001a0 	b.eq	82258 <CoreExecuteFail>  // b.none
   82228:	580001c3 	ldr	x3, 82260 <CoreExecuteFail+0x8>
   8222c:	b9400062 	ldr	w2, [x3]
   82230:	6b02001f 	cmp	w0, w2
   82234:	54000122 	b.cs	82258 <CoreExecuteFail>  // b.hs, b.nlast
   82238:	d2800006 	mov	x6, #0x0                   	// #0
   8223c:	2a0003e6 	mov	w6, w0
   82240:	d2801b05 	mov	x5, #0xd8                  	// #216
   82244:	f82678a1 	str	x1, [x5, x6, lsl #3]
   82248:	d5033f9f 	dsb	sy
   8224c:	d503209f 	sev
   82250:	d2800020 	mov	x0, #0x1                   	// #1
   82254:	d65f03c0 	ret

0000000000082258 <CoreExecuteFail>:
   82258:	d2800000 	mov	x0, #0x0                   	// #0
   8225c:	d65f03c0 	ret
   82260:	00090dc4 	.word	0x00090dc4
   82264:	00000000 	.word	0x00000000

0000000000082268 <PUT32>:
   82268:	b9000001 	str	w1, [x0]
   8226c:	d65f03c0 	ret

0000000000082270 <GET32>:
   82270:	b9400000 	ldr	w0, [x0]
   82274:	d65f03c0 	ret

0000000000082278 <ARMaddrToGPUaddr>:
   82278:	d2b80001 	mov	x1, #0xc0000000            	// #3221225472
   8227c:	aa010000 	orr	x0, x0, x1
   82280:	d65f03c0 	ret

0000000000082284 <GPUaddrToARMaddr>:
   82284:	d2b80001 	mov	x1, #0xc0000000            	// #3221225472
   82288:	8a210000 	bic	x0, x0, x1
   8228c:	d65f03c0 	ret
	...

0000000000082800 <setTimerIrqAddress>:
   82800:	d50342df 	msr	daifset, #0x2
   82804:	580000a1 	ldr	x1, 82818 <setTimerIrqAddress+0x18>
   82808:	f9400022 	ldr	x2, [x1]
   8280c:	f9000020 	str	x0, [x1]
   82810:	aa0203e0 	mov	x0, x2
   82814:	d65f03c0 	ret
   82818:	00090dd8 	.word	0x00090dd8
   8281c:	00000000 	.word	0x00000000

0000000000082820 <irq_handler_stub>:
   82820:	a9bf7bfd 	stp	x29, x30, [sp, #-16]!
   82824:	a9bf73fb 	stp	x27, x28, [sp, #-16]!
   82828:	a9bf6bf9 	stp	x25, x26, [sp, #-16]!
   8282c:	a9bf63f7 	stp	x23, x24, [sp, #-16]!
   82830:	a9bf5bf5 	stp	x21, x22, [sp, #-16]!
   82834:	a9bf53f3 	stp	x19, x20, [sp, #-16]!
   82838:	a9bf4bf1 	stp	x17, x18, [sp, #-16]!
   8283c:	a9bf43ef 	stp	x15, x16, [sp, #-16]!
   82840:	a9bf3bed 	stp	x13, x14, [sp, #-16]!
   82844:	a9bf33eb 	stp	x11, x12, [sp, #-16]!
   82848:	a9bf2be9 	stp	x9, x10, [sp, #-16]!
   8284c:	a9bf23e7 	stp	x7, x8, [sp, #-16]!
   82850:	a9bf1be5 	stp	x5, x6, [sp, #-16]!
   82854:	a9bf13e3 	stp	x3, x4, [sp, #-16]!
   82858:	a9bf0be1 	stp	x1, x2, [sp, #-16]!
   8285c:	f81f0fe0 	str	x0, [sp, #-16]!
   82860:	58007940 	ldr	x0, 83788 <VectorTable+0x788>
   82864:	f9400000 	ldr	x0, [x0]
   82868:	b4000040 	cbz	x0, 82870 <no_irqset>
   8286c:	d63f0000 	blr	x0

0000000000082870 <no_irqset>:
   82870:	f84107e0 	ldr	x0, [sp], #16
   82874:	a8c10be1 	ldp	x1, x2, [sp], #16
   82878:	a8c113e3 	ldp	x3, x4, [sp], #16
   8287c:	a8c11be5 	ldp	x5, x6, [sp], #16
   82880:	a8c123e7 	ldp	x7, x8, [sp], #16
   82884:	a8c12be9 	ldp	x9, x10, [sp], #16
   82888:	a8c133eb 	ldp	x11, x12, [sp], #16
   8288c:	a8c13bed 	ldp	x13, x14, [sp], #16
   82890:	a8c143ef 	ldp	x15, x16, [sp], #16
   82894:	a8c14bf1 	ldp	x17, x18, [sp], #16
   82898:	a8c153f3 	ldp	x19, x20, [sp], #16
   8289c:	a8c15bf5 	ldp	x21, x22, [sp], #16
   828a0:	a8c163f7 	ldp	x23, x24, [sp], #16
   828a4:	a8c16bf9 	ldp	x25, x26, [sp], #16
   828a8:	a8c173fb 	ldp	x27, x28, [sp], #16
   828ac:	a8c17bfd 	ldp	x29, x30, [sp], #16
   828b0:	d69f03e0 	eret
   828b4:	d503201f 	nop
   828b8:	d503201f 	nop
   828bc:	d503201f 	nop
   828c0:	d503201f 	nop
   828c4:	d503201f 	nop
   828c8:	d503201f 	nop
   828cc:	d503201f 	nop
   828d0:	d503201f 	nop
   828d4:	d503201f 	nop
   828d8:	d503201f 	nop
   828dc:	d503201f 	nop
   828e0:	d503201f 	nop
   828e4:	d503201f 	nop
   828e8:	d503201f 	nop
   828ec:	d503201f 	nop
   828f0:	d503201f 	nop
   828f4:	d503201f 	nop
   828f8:	d503201f 	nop
   828fc:	d503201f 	nop
   82900:	d503201f 	nop
   82904:	d503201f 	nop
   82908:	d503201f 	nop
   8290c:	d503201f 	nop
   82910:	d503201f 	nop
   82914:	d503201f 	nop
   82918:	d503201f 	nop
   8291c:	d503201f 	nop
   82920:	d503201f 	nop
   82924:	d503201f 	nop
   82928:	d503201f 	nop
   8292c:	d503201f 	nop
   82930:	d503201f 	nop
   82934:	d503201f 	nop
   82938:	d503201f 	nop
   8293c:	d503201f 	nop
   82940:	d503201f 	nop
   82944:	d503201f 	nop
   82948:	d503201f 	nop
   8294c:	d503201f 	nop
   82950:	d503201f 	nop
   82954:	d503201f 	nop
   82958:	d503201f 	nop
   8295c:	d503201f 	nop
   82960:	d503201f 	nop
   82964:	d503201f 	nop
   82968:	d503201f 	nop
   8296c:	d503201f 	nop
   82970:	d503201f 	nop
   82974:	d503201f 	nop
   82978:	d503201f 	nop
   8297c:	d503201f 	nop
   82980:	d503201f 	nop
   82984:	d503201f 	nop
   82988:	d503201f 	nop
   8298c:	d503201f 	nop
   82990:	d503201f 	nop
   82994:	d503201f 	nop
   82998:	d503201f 	nop
   8299c:	d503201f 	nop
   829a0:	d503201f 	nop
   829a4:	d503201f 	nop
   829a8:	d503201f 	nop
   829ac:	d503201f 	nop
   829b0:	d503201f 	nop
   829b4:	d503201f 	nop
   829b8:	d503201f 	nop
   829bc:	d503201f 	nop
   829c0:	d503201f 	nop
   829c4:	d503201f 	nop
   829c8:	d503201f 	nop
   829cc:	d503201f 	nop
   829d0:	d503201f 	nop
   829d4:	d503201f 	nop
   829d8:	d503201f 	nop
   829dc:	d503201f 	nop
   829e0:	d503201f 	nop
   829e4:	d503201f 	nop
   829e8:	d503201f 	nop
   829ec:	d503201f 	nop
   829f0:	d503201f 	nop
   829f4:	d503201f 	nop
   829f8:	d503201f 	nop
   829fc:	d503201f 	nop
   82a00:	d503201f 	nop
   82a04:	d503201f 	nop
   82a08:	d503201f 	nop
   82a0c:	d503201f 	nop
   82a10:	d503201f 	nop
   82a14:	d503201f 	nop
   82a18:	d503201f 	nop
   82a1c:	d503201f 	nop
   82a20:	d503201f 	nop
   82a24:	d503201f 	nop
   82a28:	d503201f 	nop
   82a2c:	d503201f 	nop
   82a30:	d503201f 	nop
   82a34:	d503201f 	nop
   82a38:	d503201f 	nop
   82a3c:	d503201f 	nop
   82a40:	d503201f 	nop
   82a44:	d503201f 	nop
   82a48:	d503201f 	nop
   82a4c:	d503201f 	nop
   82a50:	d503201f 	nop
   82a54:	d503201f 	nop
   82a58:	d503201f 	nop
   82a5c:	d503201f 	nop
   82a60:	d503201f 	nop
   82a64:	d503201f 	nop
   82a68:	d503201f 	nop
   82a6c:	d503201f 	nop
   82a70:	d503201f 	nop
   82a74:	d503201f 	nop
   82a78:	d503201f 	nop
   82a7c:	d503201f 	nop
   82a80:	d503201f 	nop
   82a84:	d503201f 	nop
   82a88:	d503201f 	nop
   82a8c:	d503201f 	nop
   82a90:	d503201f 	nop
   82a94:	d503201f 	nop
   82a98:	d503201f 	nop
   82a9c:	d503201f 	nop
   82aa0:	d503201f 	nop
   82aa4:	d503201f 	nop
   82aa8:	d503201f 	nop
   82aac:	d503201f 	nop
   82ab0:	d503201f 	nop
   82ab4:	d503201f 	nop
   82ab8:	d503201f 	nop
   82abc:	d503201f 	nop
   82ac0:	d503201f 	nop
   82ac4:	d503201f 	nop
   82ac8:	d503201f 	nop
   82acc:	d503201f 	nop
   82ad0:	d503201f 	nop
   82ad4:	d503201f 	nop
   82ad8:	d503201f 	nop
   82adc:	d503201f 	nop
   82ae0:	d503201f 	nop
   82ae4:	d503201f 	nop
   82ae8:	d503201f 	nop
   82aec:	d503201f 	nop
   82af0:	d503201f 	nop
   82af4:	d503201f 	nop
   82af8:	d503201f 	nop
   82afc:	d503201f 	nop
   82b00:	d503201f 	nop
   82b04:	d503201f 	nop
   82b08:	d503201f 	nop
   82b0c:	d503201f 	nop
   82b10:	d503201f 	nop
   82b14:	d503201f 	nop
   82b18:	d503201f 	nop
   82b1c:	d503201f 	nop
   82b20:	d503201f 	nop
   82b24:	d503201f 	nop
   82b28:	d503201f 	nop
   82b2c:	d503201f 	nop
   82b30:	d503201f 	nop
   82b34:	d503201f 	nop
   82b38:	d503201f 	nop
   82b3c:	d503201f 	nop
   82b40:	d503201f 	nop
   82b44:	d503201f 	nop
   82b48:	d503201f 	nop
   82b4c:	d503201f 	nop
   82b50:	d503201f 	nop
   82b54:	d503201f 	nop
   82b58:	d503201f 	nop
   82b5c:	d503201f 	nop
   82b60:	d503201f 	nop
   82b64:	d503201f 	nop
   82b68:	d503201f 	nop
   82b6c:	d503201f 	nop
   82b70:	d503201f 	nop
   82b74:	d503201f 	nop
   82b78:	d503201f 	nop
   82b7c:	d503201f 	nop
   82b80:	d503201f 	nop
   82b84:	d503201f 	nop
   82b88:	d503201f 	nop
   82b8c:	d503201f 	nop
   82b90:	d503201f 	nop
   82b94:	d503201f 	nop
   82b98:	d503201f 	nop
   82b9c:	d503201f 	nop
   82ba0:	d503201f 	nop
   82ba4:	d503201f 	nop
   82ba8:	d503201f 	nop
   82bac:	d503201f 	nop
   82bb0:	d503201f 	nop
   82bb4:	d503201f 	nop
   82bb8:	d503201f 	nop
   82bbc:	d503201f 	nop
   82bc0:	d503201f 	nop
   82bc4:	d503201f 	nop
   82bc8:	d503201f 	nop
   82bcc:	d503201f 	nop
   82bd0:	d503201f 	nop
   82bd4:	d503201f 	nop
   82bd8:	d503201f 	nop
   82bdc:	d503201f 	nop
   82be0:	d503201f 	nop
   82be4:	d503201f 	nop
   82be8:	d503201f 	nop
   82bec:	d503201f 	nop
   82bf0:	d503201f 	nop
   82bf4:	d503201f 	nop
   82bf8:	d503201f 	nop
   82bfc:	d503201f 	nop
   82c00:	d503201f 	nop
   82c04:	d503201f 	nop
   82c08:	d503201f 	nop
   82c0c:	d503201f 	nop
   82c10:	d503201f 	nop
   82c14:	d503201f 	nop
   82c18:	d503201f 	nop
   82c1c:	d503201f 	nop
   82c20:	d503201f 	nop
   82c24:	d503201f 	nop
   82c28:	d503201f 	nop
   82c2c:	d503201f 	nop
   82c30:	d503201f 	nop
   82c34:	d503201f 	nop
   82c38:	d503201f 	nop
   82c3c:	d503201f 	nop
   82c40:	d503201f 	nop
   82c44:	d503201f 	nop
   82c48:	d503201f 	nop
   82c4c:	d503201f 	nop
   82c50:	d503201f 	nop
   82c54:	d503201f 	nop
   82c58:	d503201f 	nop
   82c5c:	d503201f 	nop
   82c60:	d503201f 	nop
   82c64:	d503201f 	nop
   82c68:	d503201f 	nop
   82c6c:	d503201f 	nop
   82c70:	d503201f 	nop
   82c74:	d503201f 	nop
   82c78:	d503201f 	nop
   82c7c:	d503201f 	nop
   82c80:	d503201f 	nop
   82c84:	d503201f 	nop
   82c88:	d503201f 	nop
   82c8c:	d503201f 	nop
   82c90:	d503201f 	nop
   82c94:	d503201f 	nop
   82c98:	d503201f 	nop
   82c9c:	d503201f 	nop
   82ca0:	d503201f 	nop
   82ca4:	d503201f 	nop
   82ca8:	d503201f 	nop
   82cac:	d503201f 	nop
   82cb0:	d503201f 	nop
   82cb4:	d503201f 	nop
   82cb8:	d503201f 	nop
   82cbc:	d503201f 	nop
   82cc0:	d503201f 	nop
   82cc4:	d503201f 	nop
   82cc8:	d503201f 	nop
   82ccc:	d503201f 	nop
   82cd0:	d503201f 	nop
   82cd4:	d503201f 	nop
   82cd8:	d503201f 	nop
   82cdc:	d503201f 	nop
   82ce0:	d503201f 	nop
   82ce4:	d503201f 	nop
   82ce8:	d503201f 	nop
   82cec:	d503201f 	nop
   82cf0:	d503201f 	nop
   82cf4:	d503201f 	nop
   82cf8:	d503201f 	nop
   82cfc:	d503201f 	nop
   82d00:	d503201f 	nop
   82d04:	d503201f 	nop
   82d08:	d503201f 	nop
   82d0c:	d503201f 	nop
   82d10:	d503201f 	nop
   82d14:	d503201f 	nop
   82d18:	d503201f 	nop
   82d1c:	d503201f 	nop
   82d20:	d503201f 	nop
   82d24:	d503201f 	nop
   82d28:	d503201f 	nop
   82d2c:	d503201f 	nop
   82d30:	d503201f 	nop
   82d34:	d503201f 	nop
   82d38:	d503201f 	nop
   82d3c:	d503201f 	nop
   82d40:	d503201f 	nop
   82d44:	d503201f 	nop
   82d48:	d503201f 	nop
   82d4c:	d503201f 	nop
   82d50:	d503201f 	nop
   82d54:	d503201f 	nop
   82d58:	d503201f 	nop
   82d5c:	d503201f 	nop
   82d60:	d503201f 	nop
   82d64:	d503201f 	nop
   82d68:	d503201f 	nop
   82d6c:	d503201f 	nop
   82d70:	d503201f 	nop
   82d74:	d503201f 	nop
   82d78:	d503201f 	nop
   82d7c:	d503201f 	nop
   82d80:	d503201f 	nop
   82d84:	d503201f 	nop
   82d88:	d503201f 	nop
   82d8c:	d503201f 	nop
   82d90:	d503201f 	nop
   82d94:	d503201f 	nop
   82d98:	d503201f 	nop
   82d9c:	d503201f 	nop
   82da0:	d503201f 	nop
   82da4:	d503201f 	nop
   82da8:	d503201f 	nop
   82dac:	d503201f 	nop
   82db0:	d503201f 	nop
   82db4:	d503201f 	nop
   82db8:	d503201f 	nop
   82dbc:	d503201f 	nop
   82dc0:	d503201f 	nop
   82dc4:	d503201f 	nop
   82dc8:	d503201f 	nop
   82dcc:	d503201f 	nop
   82dd0:	d503201f 	nop
   82dd4:	d503201f 	nop
   82dd8:	d503201f 	nop
   82ddc:	d503201f 	nop
   82de0:	d503201f 	nop
   82de4:	d503201f 	nop
   82de8:	d503201f 	nop
   82dec:	d503201f 	nop
   82df0:	d503201f 	nop
   82df4:	d503201f 	nop
   82df8:	d503201f 	nop
   82dfc:	d503201f 	nop
   82e00:	d503201f 	nop
   82e04:	d503201f 	nop
   82e08:	d503201f 	nop
   82e0c:	d503201f 	nop
   82e10:	d503201f 	nop
   82e14:	d503201f 	nop
   82e18:	d503201f 	nop
   82e1c:	d503201f 	nop
   82e20:	d503201f 	nop
   82e24:	d503201f 	nop
   82e28:	d503201f 	nop
   82e2c:	d503201f 	nop
   82e30:	d503201f 	nop
   82e34:	d503201f 	nop
   82e38:	d503201f 	nop
   82e3c:	d503201f 	nop
   82e40:	d503201f 	nop
   82e44:	d503201f 	nop
   82e48:	d503201f 	nop
   82e4c:	d503201f 	nop
   82e50:	d503201f 	nop
   82e54:	d503201f 	nop
   82e58:	d503201f 	nop
   82e5c:	d503201f 	nop
   82e60:	d503201f 	nop
   82e64:	d503201f 	nop
   82e68:	d503201f 	nop
   82e6c:	d503201f 	nop
   82e70:	d503201f 	nop
   82e74:	d503201f 	nop
   82e78:	d503201f 	nop
   82e7c:	d503201f 	nop
   82e80:	d503201f 	nop
   82e84:	d503201f 	nop
   82e88:	d503201f 	nop
   82e8c:	d503201f 	nop
   82e90:	d503201f 	nop
   82e94:	d503201f 	nop
   82e98:	d503201f 	nop
   82e9c:	d503201f 	nop
   82ea0:	d503201f 	nop
   82ea4:	d503201f 	nop
   82ea8:	d503201f 	nop
   82eac:	d503201f 	nop
   82eb0:	d503201f 	nop
   82eb4:	d503201f 	nop
   82eb8:	d503201f 	nop
   82ebc:	d503201f 	nop
   82ec0:	d503201f 	nop
   82ec4:	d503201f 	nop
   82ec8:	d503201f 	nop
   82ecc:	d503201f 	nop
   82ed0:	d503201f 	nop
   82ed4:	d503201f 	nop
   82ed8:	d503201f 	nop
   82edc:	d503201f 	nop
   82ee0:	d503201f 	nop
   82ee4:	d503201f 	nop
   82ee8:	d503201f 	nop
   82eec:	d503201f 	nop
   82ef0:	d503201f 	nop
   82ef4:	d503201f 	nop
   82ef8:	d503201f 	nop
   82efc:	d503201f 	nop
   82f00:	d503201f 	nop
   82f04:	d503201f 	nop
   82f08:	d503201f 	nop
   82f0c:	d503201f 	nop
   82f10:	d503201f 	nop
   82f14:	d503201f 	nop
   82f18:	d503201f 	nop
   82f1c:	d503201f 	nop
   82f20:	d503201f 	nop
   82f24:	d503201f 	nop
   82f28:	d503201f 	nop
   82f2c:	d503201f 	nop
   82f30:	d503201f 	nop
   82f34:	d503201f 	nop
   82f38:	d503201f 	nop
   82f3c:	d503201f 	nop
   82f40:	d503201f 	nop
   82f44:	d503201f 	nop
   82f48:	d503201f 	nop
   82f4c:	d503201f 	nop
   82f50:	d503201f 	nop
   82f54:	d503201f 	nop
   82f58:	d503201f 	nop
   82f5c:	d503201f 	nop
   82f60:	d503201f 	nop
   82f64:	d503201f 	nop
   82f68:	d503201f 	nop
   82f6c:	d503201f 	nop
   82f70:	d503201f 	nop
   82f74:	d503201f 	nop
   82f78:	d503201f 	nop
   82f7c:	d503201f 	nop
   82f80:	d503201f 	nop
   82f84:	d503201f 	nop
   82f88:	d503201f 	nop
   82f8c:	d503201f 	nop
   82f90:	d503201f 	nop
   82f94:	d503201f 	nop
   82f98:	d503201f 	nop
   82f9c:	d503201f 	nop
   82fa0:	d503201f 	nop
   82fa4:	d503201f 	nop
   82fa8:	d503201f 	nop
   82fac:	d503201f 	nop
   82fb0:	d503201f 	nop
   82fb4:	d503201f 	nop
   82fb8:	d503201f 	nop
   82fbc:	d503201f 	nop
   82fc0:	d503201f 	nop
   82fc4:	d503201f 	nop
   82fc8:	d503201f 	nop
   82fcc:	d503201f 	nop
   82fd0:	d503201f 	nop
   82fd4:	d503201f 	nop
   82fd8:	d503201f 	nop
   82fdc:	d503201f 	nop
   82fe0:	d503201f 	nop
   82fe4:	d503201f 	nop
   82fe8:	d503201f 	nop
   82fec:	d503201f 	nop
   82ff0:	d503201f 	nop
   82ff4:	d503201f 	nop
   82ff8:	d503201f 	nop
   82ffc:	d503201f 	nop

0000000000083000 <VectorTable>:
   83000:	17fff400 	b	80000 <_start>
   83004:	d503201f 	nop
   83008:	d503201f 	nop
   8300c:	d503201f 	nop
   83010:	d503201f 	nop
   83014:	d503201f 	nop
   83018:	d503201f 	nop
   8301c:	d503201f 	nop
   83020:	d503201f 	nop
   83024:	d503201f 	nop
   83028:	d503201f 	nop
   8302c:	d503201f 	nop
   83030:	d503201f 	nop
   83034:	d503201f 	nop
   83038:	d503201f 	nop
   8303c:	d503201f 	nop
   83040:	d503201f 	nop
   83044:	d503201f 	nop
   83048:	d503201f 	nop
   8304c:	d503201f 	nop
   83050:	d503201f 	nop
   83054:	d503201f 	nop
   83058:	d503201f 	nop
   8305c:	d503201f 	nop
   83060:	d503201f 	nop
   83064:	d503201f 	nop
   83068:	d503201f 	nop
   8306c:	d503201f 	nop
   83070:	d503201f 	nop
   83074:	d503201f 	nop
   83078:	d503201f 	nop
   8307c:	d503201f 	nop
   83080:	17fff44e 	b	801b8 <hang>
   83084:	d503201f 	nop
   83088:	d503201f 	nop
   8308c:	d503201f 	nop
   83090:	d503201f 	nop
   83094:	d503201f 	nop
   83098:	d503201f 	nop
   8309c:	d503201f 	nop
   830a0:	d503201f 	nop
   830a4:	d503201f 	nop
   830a8:	d503201f 	nop
   830ac:	d503201f 	nop
   830b0:	d503201f 	nop
   830b4:	d503201f 	nop
   830b8:	d503201f 	nop
   830bc:	d503201f 	nop
   830c0:	d503201f 	nop
   830c4:	d503201f 	nop
   830c8:	d503201f 	nop
   830cc:	d503201f 	nop
   830d0:	d503201f 	nop
   830d4:	d503201f 	nop
   830d8:	d503201f 	nop
   830dc:	d503201f 	nop
   830e0:	d503201f 	nop
   830e4:	d503201f 	nop
   830e8:	d503201f 	nop
   830ec:	d503201f 	nop
   830f0:	d503201f 	nop
   830f4:	d503201f 	nop
   830f8:	d503201f 	nop
   830fc:	d503201f 	nop
   83100:	17fff42e 	b	801b8 <hang>
   83104:	d503201f 	nop
   83108:	d503201f 	nop
   8310c:	d503201f 	nop
   83110:	d503201f 	nop
   83114:	d503201f 	nop
   83118:	d503201f 	nop
   8311c:	d503201f 	nop
   83120:	d503201f 	nop
   83124:	d503201f 	nop
   83128:	d503201f 	nop
   8312c:	d503201f 	nop
   83130:	d503201f 	nop
   83134:	d503201f 	nop
   83138:	d503201f 	nop
   8313c:	d503201f 	nop
   83140:	d503201f 	nop
   83144:	d503201f 	nop
   83148:	d503201f 	nop
   8314c:	d503201f 	nop
   83150:	d503201f 	nop
   83154:	d503201f 	nop
   83158:	d503201f 	nop
   8315c:	d503201f 	nop
   83160:	d503201f 	nop
   83164:	d503201f 	nop
   83168:	d503201f 	nop
   8316c:	d503201f 	nop
   83170:	d503201f 	nop
   83174:	d503201f 	nop
   83178:	d503201f 	nop
   8317c:	d503201f 	nop
   83180:	17fff40e 	b	801b8 <hang>
   83184:	d503201f 	nop
   83188:	d503201f 	nop
   8318c:	d503201f 	nop
   83190:	d503201f 	nop
   83194:	d503201f 	nop
   83198:	d503201f 	nop
   8319c:	d503201f 	nop
   831a0:	d503201f 	nop
   831a4:	d503201f 	nop
   831a8:	d503201f 	nop
   831ac:	d503201f 	nop
   831b0:	d503201f 	nop
   831b4:	d503201f 	nop
   831b8:	d503201f 	nop
   831bc:	d503201f 	nop
   831c0:	d503201f 	nop
   831c4:	d503201f 	nop
   831c8:	d503201f 	nop
   831cc:	d503201f 	nop
   831d0:	d503201f 	nop
   831d4:	d503201f 	nop
   831d8:	d503201f 	nop
   831dc:	d503201f 	nop
   831e0:	d503201f 	nop
   831e4:	d503201f 	nop
   831e8:	d503201f 	nop
   831ec:	d503201f 	nop
   831f0:	d503201f 	nop
   831f4:	d503201f 	nop
   831f8:	d503201f 	nop
   831fc:	d503201f 	nop
   83200:	17fff3ee 	b	801b8 <hang>
   83204:	d503201f 	nop
   83208:	d503201f 	nop
   8320c:	d503201f 	nop
   83210:	d503201f 	nop
   83214:	d503201f 	nop
   83218:	d503201f 	nop
   8321c:	d503201f 	nop
   83220:	d503201f 	nop
   83224:	d503201f 	nop
   83228:	d503201f 	nop
   8322c:	d503201f 	nop
   83230:	d503201f 	nop
   83234:	d503201f 	nop
   83238:	d503201f 	nop
   8323c:	d503201f 	nop
   83240:	d503201f 	nop
   83244:	d503201f 	nop
   83248:	d503201f 	nop
   8324c:	d503201f 	nop
   83250:	d503201f 	nop
   83254:	d503201f 	nop
   83258:	d503201f 	nop
   8325c:	d503201f 	nop
   83260:	d503201f 	nop
   83264:	d503201f 	nop
   83268:	d503201f 	nop
   8326c:	d503201f 	nop
   83270:	d503201f 	nop
   83274:	d503201f 	nop
   83278:	d503201f 	nop
   8327c:	d503201f 	nop
   83280:	17fffd68 	b	82820 <irq_handler_stub>
   83284:	d503201f 	nop
   83288:	d503201f 	nop
   8328c:	d503201f 	nop
   83290:	d503201f 	nop
   83294:	d503201f 	nop
   83298:	d503201f 	nop
   8329c:	d503201f 	nop
   832a0:	d503201f 	nop
   832a4:	d503201f 	nop
   832a8:	d503201f 	nop
   832ac:	d503201f 	nop
   832b0:	d503201f 	nop
   832b4:	d503201f 	nop
   832b8:	d503201f 	nop
   832bc:	d503201f 	nop
   832c0:	d503201f 	nop
   832c4:	d503201f 	nop
   832c8:	d503201f 	nop
   832cc:	d503201f 	nop
   832d0:	d503201f 	nop
   832d4:	d503201f 	nop
   832d8:	d503201f 	nop
   832dc:	d503201f 	nop
   832e0:	d503201f 	nop
   832e4:	d503201f 	nop
   832e8:	d503201f 	nop
   832ec:	d503201f 	nop
   832f0:	d503201f 	nop
   832f4:	d503201f 	nop
   832f8:	d503201f 	nop
   832fc:	d503201f 	nop
   83300:	17fff3ae 	b	801b8 <hang>
   83304:	d503201f 	nop
   83308:	d503201f 	nop
   8330c:	d503201f 	nop
   83310:	d503201f 	nop
   83314:	d503201f 	nop
   83318:	d503201f 	nop
   8331c:	d503201f 	nop
   83320:	d503201f 	nop
   83324:	d503201f 	nop
   83328:	d503201f 	nop
   8332c:	d503201f 	nop
   83330:	d503201f 	nop
   83334:	d503201f 	nop
   83338:	d503201f 	nop
   8333c:	d503201f 	nop
   83340:	d503201f 	nop
   83344:	d503201f 	nop
   83348:	d503201f 	nop
   8334c:	d503201f 	nop
   83350:	d503201f 	nop
   83354:	d503201f 	nop
   83358:	d503201f 	nop
   8335c:	d503201f 	nop
   83360:	d503201f 	nop
   83364:	d503201f 	nop
   83368:	d503201f 	nop
   8336c:	d503201f 	nop
   83370:	d503201f 	nop
   83374:	d503201f 	nop
   83378:	d503201f 	nop
   8337c:	d503201f 	nop
   83380:	17fff38e 	b	801b8 <hang>
   83384:	d503201f 	nop
   83388:	d503201f 	nop
   8338c:	d503201f 	nop
   83390:	d503201f 	nop
   83394:	d503201f 	nop
   83398:	d503201f 	nop
   8339c:	d503201f 	nop
   833a0:	d503201f 	nop
   833a4:	d503201f 	nop
   833a8:	d503201f 	nop
   833ac:	d503201f 	nop
   833b0:	d503201f 	nop
   833b4:	d503201f 	nop
   833b8:	d503201f 	nop
   833bc:	d503201f 	nop
   833c0:	d503201f 	nop
   833c4:	d503201f 	nop
   833c8:	d503201f 	nop
   833cc:	d503201f 	nop
   833d0:	d503201f 	nop
   833d4:	d503201f 	nop
   833d8:	d503201f 	nop
   833dc:	d503201f 	nop
   833e0:	d503201f 	nop
   833e4:	d503201f 	nop
   833e8:	d503201f 	nop
   833ec:	d503201f 	nop
   833f0:	d503201f 	nop
   833f4:	d503201f 	nop
   833f8:	d503201f 	nop
   833fc:	d503201f 	nop
   83400:	17fff36e 	b	801b8 <hang>
   83404:	d503201f 	nop
   83408:	d503201f 	nop
   8340c:	d503201f 	nop
   83410:	d503201f 	nop
   83414:	d503201f 	nop
   83418:	d503201f 	nop
   8341c:	d503201f 	nop
   83420:	d503201f 	nop
   83424:	d503201f 	nop
   83428:	d503201f 	nop
   8342c:	d503201f 	nop
   83430:	d503201f 	nop
   83434:	d503201f 	nop
   83438:	d503201f 	nop
   8343c:	d503201f 	nop
   83440:	d503201f 	nop
   83444:	d503201f 	nop
   83448:	d503201f 	nop
   8344c:	d503201f 	nop
   83450:	d503201f 	nop
   83454:	d503201f 	nop
   83458:	d503201f 	nop
   8345c:	d503201f 	nop
   83460:	d503201f 	nop
   83464:	d503201f 	nop
   83468:	d503201f 	nop
   8346c:	d503201f 	nop
   83470:	d503201f 	nop
   83474:	d503201f 	nop
   83478:	d503201f 	nop
   8347c:	d503201f 	nop
   83480:	17fff34e 	b	801b8 <hang>
   83484:	d503201f 	nop
   83488:	d503201f 	nop
   8348c:	d503201f 	nop
   83490:	d503201f 	nop
   83494:	d503201f 	nop
   83498:	d503201f 	nop
   8349c:	d503201f 	nop
   834a0:	d503201f 	nop
   834a4:	d503201f 	nop
   834a8:	d503201f 	nop
   834ac:	d503201f 	nop
   834b0:	d503201f 	nop
   834b4:	d503201f 	nop
   834b8:	d503201f 	nop
   834bc:	d503201f 	nop
   834c0:	d503201f 	nop
   834c4:	d503201f 	nop
   834c8:	d503201f 	nop
   834cc:	d503201f 	nop
   834d0:	d503201f 	nop
   834d4:	d503201f 	nop
   834d8:	d503201f 	nop
   834dc:	d503201f 	nop
   834e0:	d503201f 	nop
   834e4:	d503201f 	nop
   834e8:	d503201f 	nop
   834ec:	d503201f 	nop
   834f0:	d503201f 	nop
   834f4:	d503201f 	nop
   834f8:	d503201f 	nop
   834fc:	d503201f 	nop
   83500:	17fff32e 	b	801b8 <hang>
   83504:	d503201f 	nop
   83508:	d503201f 	nop
   8350c:	d503201f 	nop
   83510:	d503201f 	nop
   83514:	d503201f 	nop
   83518:	d503201f 	nop
   8351c:	d503201f 	nop
   83520:	d503201f 	nop
   83524:	d503201f 	nop
   83528:	d503201f 	nop
   8352c:	d503201f 	nop
   83530:	d503201f 	nop
   83534:	d503201f 	nop
   83538:	d503201f 	nop
   8353c:	d503201f 	nop
   83540:	d503201f 	nop
   83544:	d503201f 	nop
   83548:	d503201f 	nop
   8354c:	d503201f 	nop
   83550:	d503201f 	nop
   83554:	d503201f 	nop
   83558:	d503201f 	nop
   8355c:	d503201f 	nop
   83560:	d503201f 	nop
   83564:	d503201f 	nop
   83568:	d503201f 	nop
   8356c:	d503201f 	nop
   83570:	d503201f 	nop
   83574:	d503201f 	nop
   83578:	d503201f 	nop
   8357c:	d503201f 	nop
   83580:	17fff30e 	b	801b8 <hang>
   83584:	d503201f 	nop
   83588:	d503201f 	nop
   8358c:	d503201f 	nop
   83590:	d503201f 	nop
   83594:	d503201f 	nop
   83598:	d503201f 	nop
   8359c:	d503201f 	nop
   835a0:	d503201f 	nop
   835a4:	d503201f 	nop
   835a8:	d503201f 	nop
   835ac:	d503201f 	nop
   835b0:	d503201f 	nop
   835b4:	d503201f 	nop
   835b8:	d503201f 	nop
   835bc:	d503201f 	nop
   835c0:	d503201f 	nop
   835c4:	d503201f 	nop
   835c8:	d503201f 	nop
   835cc:	d503201f 	nop
   835d0:	d503201f 	nop
   835d4:	d503201f 	nop
   835d8:	d503201f 	nop
   835dc:	d503201f 	nop
   835e0:	d503201f 	nop
   835e4:	d503201f 	nop
   835e8:	d503201f 	nop
   835ec:	d503201f 	nop
   835f0:	d503201f 	nop
   835f4:	d503201f 	nop
   835f8:	d503201f 	nop
   835fc:	d503201f 	nop
   83600:	17fff2ee 	b	801b8 <hang>
   83604:	d503201f 	nop
   83608:	d503201f 	nop
   8360c:	d503201f 	nop
   83610:	d503201f 	nop
   83614:	d503201f 	nop
   83618:	d503201f 	nop
   8361c:	d503201f 	nop
   83620:	d503201f 	nop
   83624:	d503201f 	nop
   83628:	d503201f 	nop
   8362c:	d503201f 	nop
   83630:	d503201f 	nop
   83634:	d503201f 	nop
   83638:	d503201f 	nop
   8363c:	d503201f 	nop
   83640:	d503201f 	nop
   83644:	d503201f 	nop
   83648:	d503201f 	nop
   8364c:	d503201f 	nop
   83650:	d503201f 	nop
   83654:	d503201f 	nop
   83658:	d503201f 	nop
   8365c:	d503201f 	nop
   83660:	d503201f 	nop
   83664:	d503201f 	nop
   83668:	d503201f 	nop
   8366c:	d503201f 	nop
   83670:	d503201f 	nop
   83674:	d503201f 	nop
   83678:	d503201f 	nop
   8367c:	d503201f 	nop
   83680:	17fff2ce 	b	801b8 <hang>
   83684:	d503201f 	nop
   83688:	d503201f 	nop
   8368c:	d503201f 	nop
   83690:	d503201f 	nop
   83694:	d503201f 	nop
   83698:	d503201f 	nop
   8369c:	d503201f 	nop
   836a0:	d503201f 	nop
   836a4:	d503201f 	nop
   836a8:	d503201f 	nop
   836ac:	d503201f 	nop
   836b0:	d503201f 	nop
   836b4:	d503201f 	nop
   836b8:	d503201f 	nop
   836bc:	d503201f 	nop
   836c0:	d503201f 	nop
   836c4:	d503201f 	nop
   836c8:	d503201f 	nop
   836cc:	d503201f 	nop
   836d0:	d503201f 	nop
   836d4:	d503201f 	nop
   836d8:	d503201f 	nop
   836dc:	d503201f 	nop
   836e0:	d503201f 	nop
   836e4:	d503201f 	nop
   836e8:	d503201f 	nop
   836ec:	d503201f 	nop
   836f0:	d503201f 	nop
   836f4:	d503201f 	nop
   836f8:	d503201f 	nop
   836fc:	d503201f 	nop
   83700:	17fff2ae 	b	801b8 <hang>
   83704:	d503201f 	nop
   83708:	d503201f 	nop
   8370c:	d503201f 	nop
   83710:	d503201f 	nop
   83714:	d503201f 	nop
   83718:	d503201f 	nop
   8371c:	d503201f 	nop
   83720:	d503201f 	nop
   83724:	d503201f 	nop
   83728:	d503201f 	nop
   8372c:	d503201f 	nop
   83730:	d503201f 	nop
   83734:	d503201f 	nop
   83738:	d503201f 	nop
   8373c:	d503201f 	nop
   83740:	d503201f 	nop
   83744:	d503201f 	nop
   83748:	d503201f 	nop
   8374c:	d503201f 	nop
   83750:	d503201f 	nop
   83754:	d503201f 	nop
   83758:	d503201f 	nop
   8375c:	d503201f 	nop
   83760:	d503201f 	nop
   83764:	d503201f 	nop
   83768:	d503201f 	nop
   8376c:	d503201f 	nop
   83770:	d503201f 	nop
   83774:	d503201f 	nop
   83778:	d503201f 	nop
   8377c:	d503201f 	nop
   83780:	17fff28e 	b	801b8 <hang>
   83784:	00000000 	udf	#0
   83788:	00090dd8 	.word	0x00090dd8
   8378c:	00000000 	.word	0x00000000

0000000000083790 <CEcoMemoryManager1_4D656D31Factory_QueryInterface>:
   83790:	a9bd7bfd 	stp	x29, x30, [sp, #-48]!
   83794:	910003fd 	mov	x29, sp
   83798:	f90017e0 	str	x0, [sp, #40]
   8379c:	f90013e1 	str	x1, [sp, #32]
   837a0:	f9000fe2 	str	x2, [sp, #24]
   837a4:	f94013e0 	ldr	x0, [sp, #32]
   837a8:	39400001 	ldrb	w1, [x0]
   837ac:	90000460 	adrp	x0, 10f000 <EcoVirtualMemory1Lab_623E1838_MemoryMap+0x7d610>
   837b0:	911e8000 	add	x0, x0, #0x7a0
   837b4:	39400000 	ldrb	w0, [x0]
   837b8:	6b00003f 	cmp	w1, w0
   837bc:	54001121 	b.ne	839e0 <CEcoMemoryManager1_4D656D31Factory_QueryInterface+0x250>  // b.any
   837c0:	f94013e0 	ldr	x0, [sp, #32]
   837c4:	91000400 	add	x0, x0, #0x1
   837c8:	39400001 	ldrb	w1, [x0]
   837cc:	90000460 	adrp	x0, 10f000 <EcoVirtualMemory1Lab_623E1838_MemoryMap+0x7d610>
   837d0:	911e8400 	add	x0, x0, #0x7a1
   837d4:	39400000 	ldrb	w0, [x0]
   837d8:	6b00003f 	cmp	w1, w0
   837dc:	54001021 	b.ne	839e0 <CEcoMemoryManager1_4D656D31Factory_QueryInterface+0x250>  // b.any
   837e0:	f94013e0 	ldr	x0, [sp, #32]
   837e4:	91000800 	add	x0, x0, #0x2
   837e8:	39400001 	ldrb	w1, [x0]
   837ec:	90000460 	adrp	x0, 10f000 <EcoVirtualMemory1Lab_623E1838_MemoryMap+0x7d610>
   837f0:	911e8800 	add	x0, x0, #0x7a2
   837f4:	39400000 	ldrb	w0, [x0]
   837f8:	6b00003f 	cmp	w1, w0
   837fc:	54000f21 	b.ne	839e0 <CEcoMemoryManager1_4D656D31Factory_QueryInterface+0x250>  // b.any
   83800:	f94013e0 	ldr	x0, [sp, #32]
   83804:	91000c00 	add	x0, x0, #0x3
   83808:	39400001 	ldrb	w1, [x0]
   8380c:	90000460 	adrp	x0, 10f000 <EcoVirtualMemory1Lab_623E1838_MemoryMap+0x7d610>
   83810:	911e8c00 	add	x0, x0, #0x7a3
   83814:	39400000 	ldrb	w0, [x0]
   83818:	6b00003f 	cmp	w1, w0
   8381c:	54000e21 	b.ne	839e0 <CEcoMemoryManager1_4D656D31Factory_QueryInterface+0x250>  // b.any
   83820:	f94013e0 	ldr	x0, [sp, #32]
   83824:	91001000 	add	x0, x0, #0x4
   83828:	39400001 	ldrb	w1, [x0]
   8382c:	90000460 	adrp	x0, 10f000 <EcoVirtualMemory1Lab_623E1838_MemoryMap+0x7d610>
   83830:	911e9000 	add	x0, x0, #0x7a4
   83834:	39400000 	ldrb	w0, [x0]
   83838:	6b00003f 	cmp	w1, w0
   8383c:	54000d21 	b.ne	839e0 <CEcoMemoryManager1_4D656D31Factory_QueryInterface+0x250>  // b.any
   83840:	f94013e0 	ldr	x0, [sp, #32]
   83844:	91001400 	add	x0, x0, #0x5
   83848:	39400001 	ldrb	w1, [x0]
   8384c:	90000460 	adrp	x0, 10f000 <EcoVirtualMemory1Lab_623E1838_MemoryMap+0x7d610>
   83850:	911e9400 	add	x0, x0, #0x7a5
   83854:	39400000 	ldrb	w0, [x0]
   83858:	6b00003f 	cmp	w1, w0
   8385c:	54000c21 	b.ne	839e0 <CEcoMemoryManager1_4D656D31Factory_QueryInterface+0x250>  // b.any
   83860:	f94013e0 	ldr	x0, [sp, #32]
   83864:	91001800 	add	x0, x0, #0x6
   83868:	39400001 	ldrb	w1, [x0]
   8386c:	90000460 	adrp	x0, 10f000 <EcoVirtualMemory1Lab_623E1838_MemoryMap+0x7d610>
   83870:	911e9800 	add	x0, x0, #0x7a6
   83874:	39400000 	ldrb	w0, [x0]
   83878:	6b00003f 	cmp	w1, w0
   8387c:	54000b21 	b.ne	839e0 <CEcoMemoryManager1_4D656D31Factory_QueryInterface+0x250>  // b.any
   83880:	f94013e0 	ldr	x0, [sp, #32]
   83884:	91001c00 	add	x0, x0, #0x7
   83888:	39400001 	ldrb	w1, [x0]
   8388c:	90000460 	adrp	x0, 10f000 <EcoVirtualMemory1Lab_623E1838_MemoryMap+0x7d610>
   83890:	911e9c00 	add	x0, x0, #0x7a7
   83894:	39400000 	ldrb	w0, [x0]
   83898:	6b00003f 	cmp	w1, w0
   8389c:	54000a21 	b.ne	839e0 <CEcoMemoryManager1_4D656D31Factory_QueryInterface+0x250>  // b.any
   838a0:	f94013e0 	ldr	x0, [sp, #32]
   838a4:	91002000 	add	x0, x0, #0x8
   838a8:	39400001 	ldrb	w1, [x0]
   838ac:	90000460 	adrp	x0, 10f000 <EcoVirtualMemory1Lab_623E1838_MemoryMap+0x7d610>
   838b0:	911ea000 	add	x0, x0, #0x7a8
   838b4:	39400000 	ldrb	w0, [x0]
   838b8:	6b00003f 	cmp	w1, w0
   838bc:	54000921 	b.ne	839e0 <CEcoMemoryManager1_4D656D31Factory_QueryInterface+0x250>  // b.any
   838c0:	f94013e0 	ldr	x0, [sp, #32]
   838c4:	91002400 	add	x0, x0, #0x9
   838c8:	39400001 	ldrb	w1, [x0]
   838cc:	90000460 	adrp	x0, 10f000 <EcoVirtualMemory1Lab_623E1838_MemoryMap+0x7d610>
   838d0:	911ea400 	add	x0, x0, #0x7a9
   838d4:	39400000 	ldrb	w0, [x0]
   838d8:	6b00003f 	cmp	w1, w0
   838dc:	54000821 	b.ne	839e0 <CEcoMemoryManager1_4D656D31Factory_QueryInterface+0x250>  // b.any
   838e0:	f94013e0 	ldr	x0, [sp, #32]
   838e4:	91002800 	add	x0, x0, #0xa
   838e8:	39400001 	ldrb	w1, [x0]
   838ec:	90000460 	adrp	x0, 10f000 <EcoVirtualMemory1Lab_623E1838_MemoryMap+0x7d610>
   838f0:	911ea800 	add	x0, x0, #0x7aa
   838f4:	39400000 	ldrb	w0, [x0]
   838f8:	6b00003f 	cmp	w1, w0
   838fc:	54000721 	b.ne	839e0 <CEcoMemoryManager1_4D656D31Factory_QueryInterface+0x250>  // b.any
   83900:	f94013e0 	ldr	x0, [sp, #32]
   83904:	91002c00 	add	x0, x0, #0xb
   83908:	39400001 	ldrb	w1, [x0]
   8390c:	90000460 	adrp	x0, 10f000 <EcoVirtualMemory1Lab_623E1838_MemoryMap+0x7d610>
   83910:	911eac00 	add	x0, x0, #0x7ab
   83914:	39400000 	ldrb	w0, [x0]
   83918:	6b00003f 	cmp	w1, w0
   8391c:	54000621 	b.ne	839e0 <CEcoMemoryManager1_4D656D31Factory_QueryInterface+0x250>  // b.any
   83920:	f94013e0 	ldr	x0, [sp, #32]
   83924:	91003000 	add	x0, x0, #0xc
   83928:	39400001 	ldrb	w1, [x0]
   8392c:	90000460 	adrp	x0, 10f000 <EcoVirtualMemory1Lab_623E1838_MemoryMap+0x7d610>
   83930:	911eb000 	add	x0, x0, #0x7ac
   83934:	39400000 	ldrb	w0, [x0]
   83938:	6b00003f 	cmp	w1, w0
   8393c:	54000521 	b.ne	839e0 <CEcoMemoryManager1_4D656D31Factory_QueryInterface+0x250>  // b.any
   83940:	f94013e0 	ldr	x0, [sp, #32]
   83944:	91003400 	add	x0, x0, #0xd
   83948:	39400001 	ldrb	w1, [x0]
   8394c:	90000460 	adrp	x0, 10f000 <EcoVirtualMemory1Lab_623E1838_MemoryMap+0x7d610>
   83950:	911eb400 	add	x0, x0, #0x7ad
   83954:	39400000 	ldrb	w0, [x0]
   83958:	6b00003f 	cmp	w1, w0
   8395c:	54000421 	b.ne	839e0 <CEcoMemoryManager1_4D656D31Factory_QueryInterface+0x250>  // b.any
   83960:	f94013e0 	ldr	x0, [sp, #32]
   83964:	91003800 	add	x0, x0, #0xe
   83968:	39400001 	ldrb	w1, [x0]
   8396c:	90000460 	adrp	x0, 10f000 <EcoVirtualMemory1Lab_623E1838_MemoryMap+0x7d610>
   83970:	911eb800 	add	x0, x0, #0x7ae
   83974:	39400000 	ldrb	w0, [x0]
   83978:	6b00003f 	cmp	w1, w0
   8397c:	54000321 	b.ne	839e0 <CEcoMemoryManager1_4D656D31Factory_QueryInterface+0x250>  // b.any
   83980:	f94013e0 	ldr	x0, [sp, #32]
   83984:	91003c00 	add	x0, x0, #0xf
   83988:	39400001 	ldrb	w1, [x0]
   8398c:	90000460 	adrp	x0, 10f000 <EcoVirtualMemory1Lab_623E1838_MemoryMap+0x7d610>
   83990:	911ebc00 	add	x0, x0, #0x7af
   83994:	39400000 	ldrb	w0, [x0]
   83998:	6b00003f 	cmp	w1, w0
   8399c:	54000221 	b.ne	839e0 <CEcoMemoryManager1_4D656D31Factory_QueryInterface+0x250>  // b.any
   839a0:	f94013e0 	ldr	x0, [sp, #32]
   839a4:	91004000 	add	x0, x0, #0x10
   839a8:	39400001 	ldrb	w1, [x0]
   839ac:	90000460 	adrp	x0, 10f000 <EcoVirtualMemory1Lab_623E1838_MemoryMap+0x7d610>
   839b0:	911ec000 	add	x0, x0, #0x7b0
   839b4:	39400000 	ldrb	w0, [x0]
   839b8:	6b00003f 	cmp	w1, w0
   839bc:	54000121 	b.ne	839e0 <CEcoMemoryManager1_4D656D31Factory_QueryInterface+0x250>  // b.any
   839c0:	f94013e0 	ldr	x0, [sp, #32]
   839c4:	91004400 	add	x0, x0, #0x11
   839c8:	39400001 	ldrb	w1, [x0]
   839cc:	90000460 	adrp	x0, 10f000 <EcoVirtualMemory1Lab_623E1838_MemoryMap+0x7d610>
   839d0:	911ec400 	add	x0, x0, #0x7b1
   839d4:	39400000 	ldrb	w0, [x0]
   839d8:	6b00003f 	cmp	w1, w0
   839dc:	54001200 	b.eq	83c1c <CEcoMemoryManager1_4D656D31Factory_QueryInterface+0x48c>  // b.none
   839e0:	f94013e0 	ldr	x0, [sp, #32]
   839e4:	39400001 	ldrb	w1, [x0]
   839e8:	90000460 	adrp	x0, 10f000 <EcoVirtualMemory1Lab_623E1838_MemoryMap+0x7d610>
   839ec:	911ee000 	add	x0, x0, #0x7b8
   839f0:	39400000 	ldrb	w0, [x0]
   839f4:	6b00003f 	cmp	w1, w0
   839f8:	540012a1 	b.ne	83c4c <CEcoMemoryManager1_4D656D31Factory_QueryInterface+0x4bc>  // b.any
   839fc:	f94013e0 	ldr	x0, [sp, #32]
   83a00:	91000400 	add	x0, x0, #0x1
   83a04:	39400001 	ldrb	w1, [x0]
   83a08:	90000460 	adrp	x0, 10f000 <EcoVirtualMemory1Lab_623E1838_MemoryMap+0x7d610>
   83a0c:	911ee400 	add	x0, x0, #0x7b9
   83a10:	39400000 	ldrb	w0, [x0]
   83a14:	6b00003f 	cmp	w1, w0
   83a18:	540011a1 	b.ne	83c4c <CEcoMemoryManager1_4D656D31Factory_QueryInterface+0x4bc>  // b.any
   83a1c:	f94013e0 	ldr	x0, [sp, #32]
   83a20:	91000800 	add	x0, x0, #0x2
   83a24:	39400001 	ldrb	w1, [x0]
   83a28:	90000460 	adrp	x0, 10f000 <EcoVirtualMemory1Lab_623E1838_MemoryMap+0x7d610>
   83a2c:	911ee800 	add	x0, x0, #0x7ba
   83a30:	39400000 	ldrb	w0, [x0]
   83a34:	6b00003f 	cmp	w1, w0
   83a38:	540010a1 	b.ne	83c4c <CEcoMemoryManager1_4D656D31Factory_QueryInterface+0x4bc>  // b.any
   83a3c:	f94013e0 	ldr	x0, [sp, #32]
   83a40:	91000c00 	add	x0, x0, #0x3
   83a44:	39400001 	ldrb	w1, [x0]
   83a48:	90000460 	adrp	x0, 10f000 <EcoVirtualMemory1Lab_623E1838_MemoryMap+0x7d610>
   83a4c:	911eec00 	add	x0, x0, #0x7bb
   83a50:	39400000 	ldrb	w0, [x0]
   83a54:	6b00003f 	cmp	w1, w0
   83a58:	54000fa1 	b.ne	83c4c <CEcoMemoryManager1_4D656D31Factory_QueryInterface+0x4bc>  // b.any
   83a5c:	f94013e0 	ldr	x0, [sp, #32]
   83a60:	91001000 	add	x0, x0, #0x4
   83a64:	39400001 	ldrb	w1, [x0]
   83a68:	90000460 	adrp	x0, 10f000 <EcoVirtualMemory1Lab_623E1838_MemoryMap+0x7d610>
   83a6c:	911ef000 	add	x0, x0, #0x7bc
   83a70:	39400000 	ldrb	w0, [x0]
   83a74:	6b00003f 	cmp	w1, w0
   83a78:	54000ea1 	b.ne	83c4c <CEcoMemoryManager1_4D656D31Factory_QueryInterface+0x4bc>  // b.any
   83a7c:	f94013e0 	ldr	x0, [sp, #32]
   83a80:	91001400 	add	x0, x0, #0x5
   83a84:	39400001 	ldrb	w1, [x0]
   83a88:	90000460 	adrp	x0, 10f000 <EcoVirtualMemory1Lab_623E1838_MemoryMap+0x7d610>
   83a8c:	911ef400 	add	x0, x0, #0x7bd
   83a90:	39400000 	ldrb	w0, [x0]
   83a94:	6b00003f 	cmp	w1, w0
   83a98:	54000da1 	b.ne	83c4c <CEcoMemoryManager1_4D656D31Factory_QueryInterface+0x4bc>  // b.any
   83a9c:	f94013e0 	ldr	x0, [sp, #32]
   83aa0:	91001800 	add	x0, x0, #0x6
   83aa4:	39400001 	ldrb	w1, [x0]
   83aa8:	90000460 	adrp	x0, 10f000 <EcoVirtualMemory1Lab_623E1838_MemoryMap+0x7d610>
   83aac:	911ef800 	add	x0, x0, #0x7be
   83ab0:	39400000 	ldrb	w0, [x0]
   83ab4:	6b00003f 	cmp	w1, w0
   83ab8:	54000ca1 	b.ne	83c4c <CEcoMemoryManager1_4D656D31Factory_QueryInterface+0x4bc>  // b.any
   83abc:	f94013e0 	ldr	x0, [sp, #32]
   83ac0:	91001c00 	add	x0, x0, #0x7
   83ac4:	39400001 	ldrb	w1, [x0]
   83ac8:	90000460 	adrp	x0, 10f000 <EcoVirtualMemory1Lab_623E1838_MemoryMap+0x7d610>
   83acc:	911efc00 	add	x0, x0, #0x7bf
   83ad0:	39400000 	ldrb	w0, [x0]
   83ad4:	6b00003f 	cmp	w1, w0
   83ad8:	54000ba1 	b.ne	83c4c <CEcoMemoryManager1_4D656D31Factory_QueryInterface+0x4bc>  // b.any
   83adc:	f94013e0 	ldr	x0, [sp, #32]
   83ae0:	91002000 	add	x0, x0, #0x8
   83ae4:	39400001 	ldrb	w1, [x0]
   83ae8:	90000460 	adrp	x0, 10f000 <EcoVirtualMemory1Lab_623E1838_MemoryMap+0x7d610>
   83aec:	911f0000 	add	x0, x0, #0x7c0
   83af0:	39400000 	ldrb	w0, [x0]
   83af4:	6b00003f 	cmp	w1, w0
   83af8:	54000aa1 	b.ne	83c4c <CEcoMemoryManager1_4D656D31Factory_QueryInterface+0x4bc>  // b.any
   83afc:	f94013e0 	ldr	x0, [sp, #32]
   83b00:	91002400 	add	x0, x0, #0x9
   83b04:	39400001 	ldrb	w1, [x0]
   83b08:	90000460 	adrp	x0, 10f000 <EcoVirtualMemory1Lab_623E1838_MemoryMap+0x7d610>
   83b0c:	911f0400 	add	x0, x0, #0x7c1
   83b10:	39400000 	ldrb	w0, [x0]
   83b14:	6b00003f 	cmp	w1, w0
   83b18:	540009a1 	b.ne	83c4c <CEcoMemoryManager1_4D656D31Factory_QueryInterface+0x4bc>  // b.any
   83b1c:	f94013e0 	ldr	x0, [sp, #32]
   83b20:	91002800 	add	x0, x0, #0xa
   83b24:	39400001 	ldrb	w1, [x0]
   83b28:	90000460 	adrp	x0, 10f000 <EcoVirtualMemory1Lab_623E1838_MemoryMap+0x7d610>
   83b2c:	911f0800 	add	x0, x0, #0x7c2
   83b30:	39400000 	ldrb	w0, [x0]
   83b34:	6b00003f 	cmp	w1, w0
   83b38:	540008a1 	b.ne	83c4c <CEcoMemoryManager1_4D656D31Factory_QueryInterface+0x4bc>  // b.any
   83b3c:	f94013e0 	ldr	x0, [sp, #32]
   83b40:	91002c00 	add	x0, x0, #0xb
   83b44:	39400001 	ldrb	w1, [x0]
   83b48:	90000460 	adrp	x0, 10f000 <EcoVirtualMemory1Lab_623E1838_MemoryMap+0x7d610>
   83b4c:	911f0c00 	add	x0, x0, #0x7c3
   83b50:	39400000 	ldrb	w0, [x0]
   83b54:	6b00003f 	cmp	w1, w0
   83b58:	540007a1 	b.ne	83c4c <CEcoMemoryManager1_4D656D31Factory_QueryInterface+0x4bc>  // b.any
   83b5c:	f94013e0 	ldr	x0, [sp, #32]
   83b60:	91003000 	add	x0, x0, #0xc
   83b64:	39400001 	ldrb	w1, [x0]
   83b68:	90000460 	adrp	x0, 10f000 <EcoVirtualMemory1Lab_623E1838_MemoryMap+0x7d610>
   83b6c:	911f1000 	add	x0, x0, #0x7c4
   83b70:	39400000 	ldrb	w0, [x0]
   83b74:	6b00003f 	cmp	w1, w0
   83b78:	540006a1 	b.ne	83c4c <CEcoMemoryManager1_4D656D31Factory_QueryInterface+0x4bc>  // b.any
   83b7c:	f94013e0 	ldr	x0, [sp, #32]
   83b80:	91003400 	add	x0, x0, #0xd
   83b84:	39400001 	ldrb	w1, [x0]
   83b88:	90000460 	adrp	x0, 10f000 <EcoVirtualMemory1Lab_623E1838_MemoryMap+0x7d610>
   83b8c:	911f1400 	add	x0, x0, #0x7c5
   83b90:	39400000 	ldrb	w0, [x0]
   83b94:	6b00003f 	cmp	w1, w0
   83b98:	540005a1 	b.ne	83c4c <CEcoMemoryManager1_4D656D31Factory_QueryInterface+0x4bc>  // b.any
   83b9c:	f94013e0 	ldr	x0, [sp, #32]
   83ba0:	91003800 	add	x0, x0, #0xe
   83ba4:	39400001 	ldrb	w1, [x0]
   83ba8:	90000460 	adrp	x0, 10f000 <EcoVirtualMemory1Lab_623E1838_MemoryMap+0x7d610>
   83bac:	911f1800 	add	x0, x0, #0x7c6
   83bb0:	39400000 	ldrb	w0, [x0]
   83bb4:	6b00003f 	cmp	w1, w0
   83bb8:	540004a1 	b.ne	83c4c <CEcoMemoryManager1_4D656D31Factory_QueryInterface+0x4bc>  // b.any
   83bbc:	f94013e0 	ldr	x0, [sp, #32]
   83bc0:	91003c00 	add	x0, x0, #0xf
   83bc4:	39400001 	ldrb	w1, [x0]
   83bc8:	90000460 	adrp	x0, 10f000 <EcoVirtualMemory1Lab_623E1838_MemoryMap+0x7d610>
   83bcc:	911f1c00 	add	x0, x0, #0x7c7
   83bd0:	39400000 	ldrb	w0, [x0]
   83bd4:	6b00003f 	cmp	w1, w0
   83bd8:	540003a1 	b.ne	83c4c <CEcoMemoryManager1_4D656D31Factory_QueryInterface+0x4bc>  // b.any
   83bdc:	f94013e0 	ldr	x0, [sp, #32]
   83be0:	91004000 	add	x0, x0, #0x10
   83be4:	39400001 	ldrb	w1, [x0]
   83be8:	90000460 	adrp	x0, 10f000 <EcoVirtualMemory1Lab_623E1838_MemoryMap+0x7d610>
   83bec:	911f2000 	add	x0, x0, #0x7c8
   83bf0:	39400000 	ldrb	w0, [x0]
   83bf4:	6b00003f 	cmp	w1, w0
   83bf8:	540002a1 	b.ne	83c4c <CEcoMemoryManager1_4D656D31Factory_QueryInterface+0x4bc>  // b.any
   83bfc:	f94013e0 	ldr	x0, [sp, #32]
   83c00:	91004400 	add	x0, x0, #0x11
   83c04:	39400001 	ldrb	w1, [x0]
   83c08:	90000460 	adrp	x0, 10f000 <EcoVirtualMemory1Lab_623E1838_MemoryMap+0x7d610>
   83c0c:	911f2400 	add	x0, x0, #0x7c9
   83c10:	39400000 	ldrb	w0, [x0]
   83c14:	6b00003f 	cmp	w1, w0
   83c18:	540001a1 	b.ne	83c4c <CEcoMemoryManager1_4D656D31Factory_QueryInterface+0x4bc>  // b.any
   83c1c:	f9400fe0 	ldr	x0, [sp, #24]
   83c20:	f94017e1 	ldr	x1, [sp, #40]
   83c24:	f9000001 	str	x1, [x0]
   83c28:	f9400fe0 	ldr	x0, [sp, #24]
   83c2c:	f9400000 	ldr	x0, [x0]
   83c30:	f9400000 	ldr	x0, [x0]
   83c34:	f9400401 	ldr	x1, [x0, #8]
   83c38:	f9400fe0 	ldr	x0, [sp, #24]
   83c3c:	f9400000 	ldr	x0, [x0]
   83c40:	d63f0020 	blr	x1
   83c44:	52800000 	mov	w0, #0x0                   	// #0
   83c48:	14000004 	b	83c58 <CEcoMemoryManager1_4D656D31Factory_QueryInterface+0x4c8>
   83c4c:	f9400fe0 	ldr	x0, [sp, #24]
   83c50:	f900001f 	str	xzr, [x0]
   83c54:	12800240 	mov	w0, #0xffffffed            	// #-19
   83c58:	a8c37bfd 	ldp	x29, x30, [sp], #48
   83c5c:	d65f03c0 	ret

0000000000083c60 <CEcoMemoryManager1_4D656D31Factory_AddRef>:
   83c60:	d10083ff 	sub	sp, sp, #0x20
   83c64:	f90007e0 	str	x0, [sp, #8]
   83c68:	f94007e0 	ldr	x0, [sp, #8]
   83c6c:	f9000fe0 	str	x0, [sp, #24]
   83c70:	f94007e0 	ldr	x0, [sp, #8]
   83c74:	f100001f 	cmp	x0, #0x0
   83c78:	54000061 	b.ne	83c84 <CEcoMemoryManager1_4D656D31Factory_AddRef+0x24>  // b.any
   83c7c:	12800000 	mov	w0, #0xffffffff            	// #-1
   83c80:	14000006 	b	83c98 <CEcoMemoryManager1_4D656D31Factory_AddRef+0x38>
   83c84:	f9400fe0 	ldr	x0, [sp, #24]
   83c88:	b9400800 	ldr	w0, [x0, #8]
   83c8c:	11000402 	add	w2, w0, #0x1
   83c90:	f9400fe1 	ldr	x1, [sp, #24]
   83c94:	b9000822 	str	w2, [x1, #8]
   83c98:	910083ff 	add	sp, sp, #0x20
   83c9c:	d65f03c0 	ret

0000000000083ca0 <CEcoMemoryManager1_4D656D31Factory_Release>:
   83ca0:	d10083ff 	sub	sp, sp, #0x20
   83ca4:	f90007e0 	str	x0, [sp, #8]
   83ca8:	f94007e0 	ldr	x0, [sp, #8]
   83cac:	f9000fe0 	str	x0, [sp, #24]
   83cb0:	f94007e0 	ldr	x0, [sp, #8]
   83cb4:	f100001f 	cmp	x0, #0x0
   83cb8:	54000061 	b.ne	83cc4 <CEcoMemoryManager1_4D656D31Factory_Release+0x24>  // b.any
   83cbc:	12800000 	mov	w0, #0xffffffff            	// #-1
   83cc0:	1400000e 	b	83cf8 <CEcoMemoryManager1_4D656D31Factory_Release+0x58>
   83cc4:	f9400fe0 	ldr	x0, [sp, #24]
   83cc8:	b9400800 	ldr	w0, [x0, #8]
   83ccc:	51000401 	sub	w1, w0, #0x1
   83cd0:	f9400fe0 	ldr	x0, [sp, #24]
   83cd4:	b9000801 	str	w1, [x0, #8]
   83cd8:	f9400fe0 	ldr	x0, [sp, #24]
   83cdc:	b9400800 	ldr	w0, [x0, #8]
   83ce0:	7100001f 	cmp	w0, #0x0
   83ce4:	54000061 	b.ne	83cf0 <CEcoMemoryManager1_4D656D31Factory_Release+0x50>  // b.any
   83ce8:	52800000 	mov	w0, #0x0                   	// #0
   83cec:	14000003 	b	83cf8 <CEcoMemoryManager1_4D656D31Factory_Release+0x58>
   83cf0:	f9400fe0 	ldr	x0, [sp, #24]
   83cf4:	b9400800 	ldr	w0, [x0, #8]
   83cf8:	910083ff 	add	sp, sp, #0x20
   83cfc:	d65f03c0 	ret

0000000000083d00 <CEcoMemoryManager1_4D656D31Factory_Init>:
   83d00:	d100c3ff 	sub	sp, sp, #0x30
   83d04:	f9000fe0 	str	x0, [sp, #24]
   83d08:	f9000be1 	str	x1, [sp, #16]
   83d0c:	f90007e2 	str	x2, [sp, #8]
   83d10:	12800220 	mov	w0, #0xffffffee            	// #-18
   83d14:	79005fe0 	strh	w0, [sp, #46]
   83d18:	f9400fe0 	ldr	x0, [sp, #24]
   83d1c:	f100001f 	cmp	x0, #0x0
   83d20:	54000061 	b.ne	83d2c <CEcoMemoryManager1_4D656D31Factory_Init+0x2c>  // b.any
   83d24:	79c05fe0 	ldrsh	w0, [sp, #46]
   83d28:	14000002 	b	83d30 <CEcoMemoryManager1_4D656D31Factory_Init+0x30>
   83d2c:	79c05fe0 	ldrsh	w0, [sp, #46]
   83d30:	9100c3ff 	add	sp, sp, #0x30
   83d34:	d65f03c0 	ret

0000000000083d38 <CEcoMemoryManager1_4D656D31Factory_Alloc>:
   83d38:	a9ba7bfd 	stp	x29, x30, [sp, #-96]!
   83d3c:	910003fd 	mov	x29, sp
   83d40:	f9001fe0 	str	x0, [sp, #56]
   83d44:	f9001be1 	str	x1, [sp, #48]
   83d48:	f90017e2 	str	x2, [sp, #40]
   83d4c:	f90013e3 	str	x3, [sp, #32]
   83d50:	f9000fe4 	str	x4, [sp, #24]
   83d54:	f9401fe0 	ldr	x0, [sp, #56]
   83d58:	f9002fe0 	str	x0, [sp, #88]
   83d5c:	f90027ff 	str	xzr, [sp, #72]
   83d60:	12800220 	mov	w0, #0xffffffee            	// #-18
   83d64:	7900afe0 	strh	w0, [sp, #86]
   83d68:	f9401fe0 	ldr	x0, [sp, #56]
   83d6c:	f100001f 	cmp	x0, #0x0
   83d70:	54000061 	b.ne	83d7c <CEcoMemoryManager1_4D656D31Factory_Alloc+0x44>  // b.any
   83d74:	79c0afe0 	ldrsh	w0, [sp, #86]
   83d78:	140000b3 	b	84044 <CEcoMemoryManager1_4D656D31Factory_Alloc+0x30c>
   83d7c:	f94017e0 	ldr	x0, [sp, #40]
   83d80:	f100001f 	cmp	x0, #0x0
   83d84:	54001240 	b.eq	83fcc <CEcoMemoryManager1_4D656D31Factory_Alloc+0x294>  // b.none
   83d88:	f94013e0 	ldr	x0, [sp, #32]
   83d8c:	39400001 	ldrb	w1, [x0]
   83d90:	90000460 	adrp	x0, 10f000 <EcoVirtualMemory1Lab_623E1838_MemoryMap+0x7d610>
   83d94:	911e8000 	add	x0, x0, #0x7a0
   83d98:	39400000 	ldrb	w0, [x0]
   83d9c:	6b00003f 	cmp	w1, w0
   83da0:	54001121 	b.ne	83fc4 <CEcoMemoryManager1_4D656D31Factory_Alloc+0x28c>  // b.any
   83da4:	f94013e0 	ldr	x0, [sp, #32]
   83da8:	91000400 	add	x0, x0, #0x1
   83dac:	39400001 	ldrb	w1, [x0]
   83db0:	90000460 	adrp	x0, 10f000 <EcoVirtualMemory1Lab_623E1838_MemoryMap+0x7d610>
   83db4:	911e8400 	add	x0, x0, #0x7a1
   83db8:	39400000 	ldrb	w0, [x0]
   83dbc:	6b00003f 	cmp	w1, w0
   83dc0:	54001021 	b.ne	83fc4 <CEcoMemoryManager1_4D656D31Factory_Alloc+0x28c>  // b.any
   83dc4:	f94013e0 	ldr	x0, [sp, #32]
   83dc8:	91000800 	add	x0, x0, #0x2
   83dcc:	39400001 	ldrb	w1, [x0]
   83dd0:	90000460 	adrp	x0, 10f000 <EcoVirtualMemory1Lab_623E1838_MemoryMap+0x7d610>
   83dd4:	911e8800 	add	x0, x0, #0x7a2
   83dd8:	39400000 	ldrb	w0, [x0]
   83ddc:	6b00003f 	cmp	w1, w0
   83de0:	54000f21 	b.ne	83fc4 <CEcoMemoryManager1_4D656D31Factory_Alloc+0x28c>  // b.any
   83de4:	f94013e0 	ldr	x0, [sp, #32]
   83de8:	91000c00 	add	x0, x0, #0x3
   83dec:	39400001 	ldrb	w1, [x0]
   83df0:	90000460 	adrp	x0, 10f000 <EcoVirtualMemory1Lab_623E1838_MemoryMap+0x7d610>
   83df4:	911e8c00 	add	x0, x0, #0x7a3
   83df8:	39400000 	ldrb	w0, [x0]
   83dfc:	6b00003f 	cmp	w1, w0
   83e00:	54000e21 	b.ne	83fc4 <CEcoMemoryManager1_4D656D31Factory_Alloc+0x28c>  // b.any
   83e04:	f94013e0 	ldr	x0, [sp, #32]
   83e08:	91001000 	add	x0, x0, #0x4
   83e0c:	39400001 	ldrb	w1, [x0]
   83e10:	90000460 	adrp	x0, 10f000 <EcoVirtualMemory1Lab_623E1838_MemoryMap+0x7d610>
   83e14:	911e9000 	add	x0, x0, #0x7a4
   83e18:	39400000 	ldrb	w0, [x0]
   83e1c:	6b00003f 	cmp	w1, w0
   83e20:	54000d21 	b.ne	83fc4 <CEcoMemoryManager1_4D656D31Factory_Alloc+0x28c>  // b.any
   83e24:	f94013e0 	ldr	x0, [sp, #32]
   83e28:	91001400 	add	x0, x0, #0x5
   83e2c:	39400001 	ldrb	w1, [x0]
   83e30:	90000460 	adrp	x0, 10f000 <EcoVirtualMemory1Lab_623E1838_MemoryMap+0x7d610>
   83e34:	911e9400 	add	x0, x0, #0x7a5
   83e38:	39400000 	ldrb	w0, [x0]
   83e3c:	6b00003f 	cmp	w1, w0
   83e40:	54000c21 	b.ne	83fc4 <CEcoMemoryManager1_4D656D31Factory_Alloc+0x28c>  // b.any
   83e44:	f94013e0 	ldr	x0, [sp, #32]
   83e48:	91001800 	add	x0, x0, #0x6
   83e4c:	39400001 	ldrb	w1, [x0]
   83e50:	90000460 	adrp	x0, 10f000 <EcoVirtualMemory1Lab_623E1838_MemoryMap+0x7d610>
   83e54:	911e9800 	add	x0, x0, #0x7a6
   83e58:	39400000 	ldrb	w0, [x0]
   83e5c:	6b00003f 	cmp	w1, w0
   83e60:	54000b21 	b.ne	83fc4 <CEcoMemoryManager1_4D656D31Factory_Alloc+0x28c>  // b.any
   83e64:	f94013e0 	ldr	x0, [sp, #32]
   83e68:	91001c00 	add	x0, x0, #0x7
   83e6c:	39400001 	ldrb	w1, [x0]
   83e70:	90000460 	adrp	x0, 10f000 <EcoVirtualMemory1Lab_623E1838_MemoryMap+0x7d610>
   83e74:	911e9c00 	add	x0, x0, #0x7a7
   83e78:	39400000 	ldrb	w0, [x0]
   83e7c:	6b00003f 	cmp	w1, w0
   83e80:	54000a21 	b.ne	83fc4 <CEcoMemoryManager1_4D656D31Factory_Alloc+0x28c>  // b.any
   83e84:	f94013e0 	ldr	x0, [sp, #32]
   83e88:	91002000 	add	x0, x0, #0x8
   83e8c:	39400001 	ldrb	w1, [x0]
   83e90:	90000460 	adrp	x0, 10f000 <EcoVirtualMemory1Lab_623E1838_MemoryMap+0x7d610>
   83e94:	911ea000 	add	x0, x0, #0x7a8
   83e98:	39400000 	ldrb	w0, [x0]
   83e9c:	6b00003f 	cmp	w1, w0
   83ea0:	54000921 	b.ne	83fc4 <CEcoMemoryManager1_4D656D31Factory_Alloc+0x28c>  // b.any
   83ea4:	f94013e0 	ldr	x0, [sp, #32]
   83ea8:	91002400 	add	x0, x0, #0x9
   83eac:	39400001 	ldrb	w1, [x0]
   83eb0:	90000460 	adrp	x0, 10f000 <EcoVirtualMemory1Lab_623E1838_MemoryMap+0x7d610>
   83eb4:	911ea400 	add	x0, x0, #0x7a9
   83eb8:	39400000 	ldrb	w0, [x0]
   83ebc:	6b00003f 	cmp	w1, w0
   83ec0:	54000821 	b.ne	83fc4 <CEcoMemoryManager1_4D656D31Factory_Alloc+0x28c>  // b.any
   83ec4:	f94013e0 	ldr	x0, [sp, #32]
   83ec8:	91002800 	add	x0, x0, #0xa
   83ecc:	39400001 	ldrb	w1, [x0]
   83ed0:	90000460 	adrp	x0, 10f000 <EcoVirtualMemory1Lab_623E1838_MemoryMap+0x7d610>
   83ed4:	911ea800 	add	x0, x0, #0x7aa
   83ed8:	39400000 	ldrb	w0, [x0]
   83edc:	6b00003f 	cmp	w1, w0
   83ee0:	54000721 	b.ne	83fc4 <CEcoMemoryManager1_4D656D31Factory_Alloc+0x28c>  // b.any
   83ee4:	f94013e0 	ldr	x0, [sp, #32]
   83ee8:	91002c00 	add	x0, x0, #0xb
   83eec:	39400001 	ldrb	w1, [x0]
   83ef0:	90000460 	adrp	x0, 10f000 <EcoVirtualMemory1Lab_623E1838_MemoryMap+0x7d610>
   83ef4:	911eac00 	add	x0, x0, #0x7ab
   83ef8:	39400000 	ldrb	w0, [x0]
   83efc:	6b00003f 	cmp	w1, w0
   83f00:	54000621 	b.ne	83fc4 <CEcoMemoryManager1_4D656D31Factory_Alloc+0x28c>  // b.any
   83f04:	f94013e0 	ldr	x0, [sp, #32]
   83f08:	91003000 	add	x0, x0, #0xc
   83f0c:	39400001 	ldrb	w1, [x0]
   83f10:	90000460 	adrp	x0, 10f000 <EcoVirtualMemory1Lab_623E1838_MemoryMap+0x7d610>
   83f14:	911eb000 	add	x0, x0, #0x7ac
   83f18:	39400000 	ldrb	w0, [x0]
   83f1c:	6b00003f 	cmp	w1, w0
   83f20:	54000521 	b.ne	83fc4 <CEcoMemoryManager1_4D656D31Factory_Alloc+0x28c>  // b.any
   83f24:	f94013e0 	ldr	x0, [sp, #32]
   83f28:	91003400 	add	x0, x0, #0xd
   83f2c:	39400001 	ldrb	w1, [x0]
   83f30:	90000460 	adrp	x0, 10f000 <EcoVirtualMemory1Lab_623E1838_MemoryMap+0x7d610>
   83f34:	911eb400 	add	x0, x0, #0x7ad
   83f38:	39400000 	ldrb	w0, [x0]
   83f3c:	6b00003f 	cmp	w1, w0
   83f40:	54000421 	b.ne	83fc4 <CEcoMemoryManager1_4D656D31Factory_Alloc+0x28c>  // b.any
   83f44:	f94013e0 	ldr	x0, [sp, #32]
   83f48:	91003800 	add	x0, x0, #0xe
   83f4c:	39400001 	ldrb	w1, [x0]
   83f50:	90000460 	adrp	x0, 10f000 <EcoVirtualMemory1Lab_623E1838_MemoryMap+0x7d610>
   83f54:	911eb800 	add	x0, x0, #0x7ae
   83f58:	39400000 	ldrb	w0, [x0]
   83f5c:	6b00003f 	cmp	w1, w0
   83f60:	54000321 	b.ne	83fc4 <CEcoMemoryManager1_4D656D31Factory_Alloc+0x28c>  // b.any
   83f64:	f94013e0 	ldr	x0, [sp, #32]
   83f68:	91003c00 	add	x0, x0, #0xf
   83f6c:	39400001 	ldrb	w1, [x0]
   83f70:	90000460 	adrp	x0, 10f000 <EcoVirtualMemory1Lab_623E1838_MemoryMap+0x7d610>
   83f74:	911ebc00 	add	x0, x0, #0x7af
   83f78:	39400000 	ldrb	w0, [x0]
   83f7c:	6b00003f 	cmp	w1, w0
   83f80:	54000221 	b.ne	83fc4 <CEcoMemoryManager1_4D656D31Factory_Alloc+0x28c>  // b.any
   83f84:	f94013e0 	ldr	x0, [sp, #32]
   83f88:	91004000 	add	x0, x0, #0x10
   83f8c:	39400001 	ldrb	w1, [x0]
   83f90:	90000460 	adrp	x0, 10f000 <EcoVirtualMemory1Lab_623E1838_MemoryMap+0x7d610>
   83f94:	911ec000 	add	x0, x0, #0x7b0
   83f98:	39400000 	ldrb	w0, [x0]
   83f9c:	6b00003f 	cmp	w1, w0
   83fa0:	54000121 	b.ne	83fc4 <CEcoMemoryManager1_4D656D31Factory_Alloc+0x28c>  // b.any
   83fa4:	f94013e0 	ldr	x0, [sp, #32]
   83fa8:	91004400 	add	x0, x0, #0x11
   83fac:	39400001 	ldrb	w1, [x0]
   83fb0:	90000460 	adrp	x0, 10f000 <EcoVirtualMemory1Lab_623E1838_MemoryMap+0x7d610>
   83fb4:	911ec400 	add	x0, x0, #0x7b1
   83fb8:	39400000 	ldrb	w0, [x0]
   83fbc:	6b00003f 	cmp	w1, w0
   83fc0:	54000060 	b.eq	83fcc <CEcoMemoryManager1_4D656D31Factory_Alloc+0x294>  // b.none
   83fc4:	128002a0 	mov	w0, #0xffffffea            	// #-22
   83fc8:	1400001f 	b	84044 <CEcoMemoryManager1_4D656D31Factory_Alloc+0x30c>
   83fcc:	f9402fe0 	ldr	x0, [sp, #88]
   83fd0:	f9400803 	ldr	x3, [x0, #16]
   83fd4:	910123e0 	add	x0, sp, #0x48
   83fd8:	aa0003e2 	mov	x2, x0
   83fdc:	f94017e1 	ldr	x1, [sp, #40]
   83fe0:	f9401be0 	ldr	x0, [sp, #48]
   83fe4:	d63f0060 	blr	x3
   83fe8:	7900afe0 	strh	w0, [sp, #86]
   83fec:	79c0afe0 	ldrsh	w0, [sp, #86]
   83ff0:	7100001f 	cmp	w0, #0x0
   83ff4:	54000081 	b.ne	84004 <CEcoMemoryManager1_4D656D31Factory_Alloc+0x2cc>  // b.any
   83ff8:	f94027e0 	ldr	x0, [sp, #72]
   83ffc:	f100001f 	cmp	x0, #0x0
   84000:	54000061 	b.ne	8400c <CEcoMemoryManager1_4D656D31Factory_Alloc+0x2d4>  // b.any
   84004:	79c0afe0 	ldrsh	w0, [sp, #86]
   84008:	1400000f 	b	84044 <CEcoMemoryManager1_4D656D31Factory_Alloc+0x30c>
   8400c:	f94027e0 	ldr	x0, [sp, #72]
   84010:	f9400000 	ldr	x0, [x0]
   84014:	f9400003 	ldr	x3, [x0]
   84018:	f94027e0 	ldr	x0, [sp, #72]
   8401c:	f9400fe2 	ldr	x2, [sp, #24]
   84020:	f94013e1 	ldr	x1, [sp, #32]
   84024:	d63f0060 	blr	x3
   84028:	7900afe0 	strh	w0, [sp, #86]
   8402c:	f94027e0 	ldr	x0, [sp, #72]
   84030:	f9400000 	ldr	x0, [x0]
   84034:	f9400801 	ldr	x1, [x0, #16]
   84038:	f94027e0 	ldr	x0, [sp, #72]
   8403c:	d63f0020 	blr	x1
   84040:	79c0afe0 	ldrsh	w0, [sp, #86]
   84044:	a8c67bfd 	ldp	x29, x30, [sp], #96
   84048:	d65f03c0 	ret

000000000008404c <CEcoMemoryManager1_4D656D31Factory_get_Name>:
   8404c:	d10083ff 	sub	sp, sp, #0x20
   84050:	f90007e0 	str	x0, [sp, #8]
   84054:	f94007e0 	ldr	x0, [sp, #8]
   84058:	f9000fe0 	str	x0, [sp, #24]
   8405c:	f94007e0 	ldr	x0, [sp, #8]
   84060:	f100001f 	cmp	x0, #0x0
   84064:	54000061 	b.ne	84070 <CEcoMemoryManager1_4D656D31Factory_get_Name+0x24>  // b.any
   84068:	d2800000 	mov	x0, #0x0                   	// #0
   8406c:	14000003 	b	84078 <CEcoMemoryManager1_4D656D31Factory_get_Name+0x2c>
   84070:	f9400fe0 	ldr	x0, [sp, #24]
   84074:	91008000 	add	x0, x0, #0x20
   84078:	910083ff 	add	sp, sp, #0x20
   8407c:	d65f03c0 	ret

0000000000084080 <CEcoMemoryManager1_4D656D31Factory_get_Version>:
   84080:	d10083ff 	sub	sp, sp, #0x20
   84084:	f90007e0 	str	x0, [sp, #8]
   84088:	f94007e0 	ldr	x0, [sp, #8]
   8408c:	f9000fe0 	str	x0, [sp, #24]
   84090:	f94007e0 	ldr	x0, [sp, #8]
   84094:	f100001f 	cmp	x0, #0x0
   84098:	54000061 	b.ne	840a4 <CEcoMemoryManager1_4D656D31Factory_get_Version+0x24>  // b.any
   8409c:	d2800000 	mov	x0, #0x0                   	// #0
   840a0:	14000003 	b	840ac <CEcoMemoryManager1_4D656D31Factory_get_Version+0x2c>
   840a4:	f9400fe0 	ldr	x0, [sp, #24]
   840a8:	91018000 	add	x0, x0, #0x60
   840ac:	910083ff 	add	sp, sp, #0x20
   840b0:	d65f03c0 	ret

00000000000840b4 <CEcoMemoryManager1_4D656D31Factory_get_Manufacturer>:
   840b4:	d10083ff 	sub	sp, sp, #0x20
   840b8:	f90007e0 	str	x0, [sp, #8]
   840bc:	f94007e0 	ldr	x0, [sp, #8]
   840c0:	f9000fe0 	str	x0, [sp, #24]
   840c4:	f94007e0 	ldr	x0, [sp, #8]
   840c8:	f100001f 	cmp	x0, #0x0
   840cc:	54000061 	b.ne	840d8 <CEcoMemoryManager1_4D656D31Factory_get_Manufacturer+0x24>  // b.any
   840d0:	d2800000 	mov	x0, #0x0                   	// #0
   840d4:	14000003 	b	840e0 <CEcoMemoryManager1_4D656D31Factory_get_Manufacturer+0x2c>
   840d8:	f9400fe0 	ldr	x0, [sp, #24]
   840dc:	9101c000 	add	x0, x0, #0x70
   840e0:	910083ff 	add	sp, sp, #0x20
   840e4:	d65f03c0 	ret

00000000000840e8 <CEcoMemoryManager1_4D656D31_QueryInterface>:
   840e8:	a9bc7bfd 	stp	x29, x30, [sp, #-64]!
   840ec:	910003fd 	mov	x29, sp
   840f0:	f90017e0 	str	x0, [sp, #40]
   840f4:	f90013e1 	str	x1, [sp, #32]
   840f8:	f9000fe2 	str	x2, [sp, #24]
   840fc:	f94017e0 	ldr	x0, [sp, #40]
   84100:	f9001fe0 	str	x0, [sp, #56]
   84104:	f94017e0 	ldr	x0, [sp, #40]
   84108:	f100001f 	cmp	x0, #0x0
   8410c:	54000080 	b.eq	8411c <CEcoMemoryManager1_4D656D31_QueryInterface+0x34>  // b.none
   84110:	f9400fe0 	ldr	x0, [sp, #24]
   84114:	f100001f 	cmp	x0, #0x0
   84118:	54000061 	b.ne	84124 <CEcoMemoryManager1_4D656D31_QueryInterface+0x3c>  // b.any
   8411c:	12800220 	mov	w0, #0xffffffee            	// #-18
   84120:	140001cf 	b	8485c <CEcoMemoryManager1_4D656D31_QueryInterface+0x774>
   84124:	f94013e0 	ldr	x0, [sp, #32]
   84128:	39400001 	ldrb	w1, [x0]
   8412c:	f0000440 	adrp	x0, 10f000 <EcoVirtualMemory1Lab_623E1838_MemoryMap+0x7d610>
   84130:	9121e000 	add	x0, x0, #0x878
   84134:	39400000 	ldrb	w0, [x0]
   84138:	6b00003f 	cmp	w1, w0
   8413c:	54001241 	b.ne	84384 <CEcoMemoryManager1_4D656D31_QueryInterface+0x29c>  // b.any
   84140:	f94013e0 	ldr	x0, [sp, #32]
   84144:	91000400 	add	x0, x0, #0x1
   84148:	39400001 	ldrb	w1, [x0]
   8414c:	f0000440 	adrp	x0, 10f000 <EcoVirtualMemory1Lab_623E1838_MemoryMap+0x7d610>
   84150:	9121e400 	add	x0, x0, #0x879
   84154:	39400000 	ldrb	w0, [x0]
   84158:	6b00003f 	cmp	w1, w0
   8415c:	54001141 	b.ne	84384 <CEcoMemoryManager1_4D656D31_QueryInterface+0x29c>  // b.any
   84160:	f94013e0 	ldr	x0, [sp, #32]
   84164:	91000800 	add	x0, x0, #0x2
   84168:	39400001 	ldrb	w1, [x0]
   8416c:	f0000440 	adrp	x0, 10f000 <EcoVirtualMemory1Lab_623E1838_MemoryMap+0x7d610>
   84170:	9121e800 	add	x0, x0, #0x87a
   84174:	39400000 	ldrb	w0, [x0]
   84178:	6b00003f 	cmp	w1, w0
   8417c:	54001041 	b.ne	84384 <CEcoMemoryManager1_4D656D31_QueryInterface+0x29c>  // b.any
   84180:	f94013e0 	ldr	x0, [sp, #32]
   84184:	91000c00 	add	x0, x0, #0x3
   84188:	39400001 	ldrb	w1, [x0]
   8418c:	f0000440 	adrp	x0, 10f000 <EcoVirtualMemory1Lab_623E1838_MemoryMap+0x7d610>
   84190:	9121ec00 	add	x0, x0, #0x87b
   84194:	39400000 	ldrb	w0, [x0]
   84198:	6b00003f 	cmp	w1, w0
   8419c:	54000f41 	b.ne	84384 <CEcoMemoryManager1_4D656D31_QueryInterface+0x29c>  // b.any
   841a0:	f94013e0 	ldr	x0, [sp, #32]
   841a4:	91001000 	add	x0, x0, #0x4
   841a8:	39400001 	ldrb	w1, [x0]
   841ac:	f0000440 	adrp	x0, 10f000 <EcoVirtualMemory1Lab_623E1838_MemoryMap+0x7d610>
   841b0:	9121f000 	add	x0, x0, #0x87c
   841b4:	39400000 	ldrb	w0, [x0]
   841b8:	6b00003f 	cmp	w1, w0
   841bc:	54000e41 	b.ne	84384 <CEcoMemoryManager1_4D656D31_QueryInterface+0x29c>  // b.any
   841c0:	f94013e0 	ldr	x0, [sp, #32]
   841c4:	91001400 	add	x0, x0, #0x5
   841c8:	39400001 	ldrb	w1, [x0]
   841cc:	f0000440 	adrp	x0, 10f000 <EcoVirtualMemory1Lab_623E1838_MemoryMap+0x7d610>
   841d0:	9121f400 	add	x0, x0, #0x87d
   841d4:	39400000 	ldrb	w0, [x0]
   841d8:	6b00003f 	cmp	w1, w0
   841dc:	54000d41 	b.ne	84384 <CEcoMemoryManager1_4D656D31_QueryInterface+0x29c>  // b.any
   841e0:	f94013e0 	ldr	x0, [sp, #32]
   841e4:	91001800 	add	x0, x0, #0x6
   841e8:	39400001 	ldrb	w1, [x0]
   841ec:	f0000440 	adrp	x0, 10f000 <EcoVirtualMemory1Lab_623E1838_MemoryMap+0x7d610>
   841f0:	9121f800 	add	x0, x0, #0x87e
   841f4:	39400000 	ldrb	w0, [x0]
   841f8:	6b00003f 	cmp	w1, w0
   841fc:	54000c41 	b.ne	84384 <CEcoMemoryManager1_4D656D31_QueryInterface+0x29c>  // b.any
   84200:	f94013e0 	ldr	x0, [sp, #32]
   84204:	91001c00 	add	x0, x0, #0x7
   84208:	39400001 	ldrb	w1, [x0]
   8420c:	f0000440 	adrp	x0, 10f000 <EcoVirtualMemory1Lab_623E1838_MemoryMap+0x7d610>
   84210:	9121fc00 	add	x0, x0, #0x87f
   84214:	39400000 	ldrb	w0, [x0]
   84218:	6b00003f 	cmp	w1, w0
   8421c:	54000b41 	b.ne	84384 <CEcoMemoryManager1_4D656D31_QueryInterface+0x29c>  // b.any
   84220:	f94013e0 	ldr	x0, [sp, #32]
   84224:	91002000 	add	x0, x0, #0x8
   84228:	39400001 	ldrb	w1, [x0]
   8422c:	f0000440 	adrp	x0, 10f000 <EcoVirtualMemory1Lab_623E1838_MemoryMap+0x7d610>
   84230:	91220000 	add	x0, x0, #0x880
   84234:	39400000 	ldrb	w0, [x0]
   84238:	6b00003f 	cmp	w1, w0
   8423c:	54000a41 	b.ne	84384 <CEcoMemoryManager1_4D656D31_QueryInterface+0x29c>  // b.any
   84240:	f94013e0 	ldr	x0, [sp, #32]
   84244:	91002400 	add	x0, x0, #0x9
   84248:	39400001 	ldrb	w1, [x0]
   8424c:	f0000440 	adrp	x0, 10f000 <EcoVirtualMemory1Lab_623E1838_MemoryMap+0x7d610>
   84250:	91220400 	add	x0, x0, #0x881
   84254:	39400000 	ldrb	w0, [x0]
   84258:	6b00003f 	cmp	w1, w0
   8425c:	54000941 	b.ne	84384 <CEcoMemoryManager1_4D656D31_QueryInterface+0x29c>  // b.any
   84260:	f94013e0 	ldr	x0, [sp, #32]
   84264:	91002800 	add	x0, x0, #0xa
   84268:	39400001 	ldrb	w1, [x0]
   8426c:	f0000440 	adrp	x0, 10f000 <EcoVirtualMemory1Lab_623E1838_MemoryMap+0x7d610>
   84270:	91220800 	add	x0, x0, #0x882
   84274:	39400000 	ldrb	w0, [x0]
   84278:	6b00003f 	cmp	w1, w0
   8427c:	54000841 	b.ne	84384 <CEcoMemoryManager1_4D656D31_QueryInterface+0x29c>  // b.any
   84280:	f94013e0 	ldr	x0, [sp, #32]
   84284:	91002c00 	add	x0, x0, #0xb
   84288:	39400001 	ldrb	w1, [x0]
   8428c:	f0000440 	adrp	x0, 10f000 <EcoVirtualMemory1Lab_623E1838_MemoryMap+0x7d610>
   84290:	91220c00 	add	x0, x0, #0x883
   84294:	39400000 	ldrb	w0, [x0]
   84298:	6b00003f 	cmp	w1, w0
   8429c:	54000741 	b.ne	84384 <CEcoMemoryManager1_4D656D31_QueryInterface+0x29c>  // b.any
   842a0:	f94013e0 	ldr	x0, [sp, #32]
   842a4:	91003000 	add	x0, x0, #0xc
   842a8:	39400001 	ldrb	w1, [x0]
   842ac:	f0000440 	adrp	x0, 10f000 <EcoVirtualMemory1Lab_623E1838_MemoryMap+0x7d610>
   842b0:	91221000 	add	x0, x0, #0x884
   842b4:	39400000 	ldrb	w0, [x0]
   842b8:	6b00003f 	cmp	w1, w0
   842bc:	54000641 	b.ne	84384 <CEcoMemoryManager1_4D656D31_QueryInterface+0x29c>  // b.any
   842c0:	f94013e0 	ldr	x0, [sp, #32]
   842c4:	91003400 	add	x0, x0, #0xd
   842c8:	39400001 	ldrb	w1, [x0]
   842cc:	f0000440 	adrp	x0, 10f000 <EcoVirtualMemory1Lab_623E1838_MemoryMap+0x7d610>
   842d0:	91221400 	add	x0, x0, #0x885
   842d4:	39400000 	ldrb	w0, [x0]
   842d8:	6b00003f 	cmp	w1, w0
   842dc:	54000541 	b.ne	84384 <CEcoMemoryManager1_4D656D31_QueryInterface+0x29c>  // b.any
   842e0:	f94013e0 	ldr	x0, [sp, #32]
   842e4:	91003800 	add	x0, x0, #0xe
   842e8:	39400001 	ldrb	w1, [x0]
   842ec:	f0000440 	adrp	x0, 10f000 <EcoVirtualMemory1Lab_623E1838_MemoryMap+0x7d610>
   842f0:	91221800 	add	x0, x0, #0x886
   842f4:	39400000 	ldrb	w0, [x0]
   842f8:	6b00003f 	cmp	w1, w0
   842fc:	54000441 	b.ne	84384 <CEcoMemoryManager1_4D656D31_QueryInterface+0x29c>  // b.any
   84300:	f94013e0 	ldr	x0, [sp, #32]
   84304:	91003c00 	add	x0, x0, #0xf
   84308:	39400001 	ldrb	w1, [x0]
   8430c:	f0000440 	adrp	x0, 10f000 <EcoVirtualMemory1Lab_623E1838_MemoryMap+0x7d610>
   84310:	91221c00 	add	x0, x0, #0x887
   84314:	39400000 	ldrb	w0, [x0]
   84318:	6b00003f 	cmp	w1, w0
   8431c:	54000341 	b.ne	84384 <CEcoMemoryManager1_4D656D31_QueryInterface+0x29c>  // b.any
   84320:	f94013e0 	ldr	x0, [sp, #32]
   84324:	91004000 	add	x0, x0, #0x10
   84328:	39400001 	ldrb	w1, [x0]
   8432c:	f0000440 	adrp	x0, 10f000 <EcoVirtualMemory1Lab_623E1838_MemoryMap+0x7d610>
   84330:	91222000 	add	x0, x0, #0x888
   84334:	39400000 	ldrb	w0, [x0]
   84338:	6b00003f 	cmp	w1, w0
   8433c:	54000241 	b.ne	84384 <CEcoMemoryManager1_4D656D31_QueryInterface+0x29c>  // b.any
   84340:	f94013e0 	ldr	x0, [sp, #32]
   84344:	91004400 	add	x0, x0, #0x11
   84348:	39400001 	ldrb	w1, [x0]
   8434c:	f0000440 	adrp	x0, 10f000 <EcoVirtualMemory1Lab_623E1838_MemoryMap+0x7d610>
   84350:	91222400 	add	x0, x0, #0x889
   84354:	39400000 	ldrb	w0, [x0]
   84358:	6b00003f 	cmp	w1, w0
   8435c:	54000141 	b.ne	84384 <CEcoMemoryManager1_4D656D31_QueryInterface+0x29c>  // b.any
   84360:	f9401fe1 	ldr	x1, [sp, #56]
   84364:	f9400fe0 	ldr	x0, [sp, #24]
   84368:	f9000001 	str	x1, [x0]
   8436c:	f9401fe0 	ldr	x0, [sp, #56]
   84370:	f9400000 	ldr	x0, [x0]
   84374:	f9400401 	ldr	x1, [x0, #8]
   84378:	f9401fe0 	ldr	x0, [sp, #56]
   8437c:	d63f0020 	blr	x1
   84380:	14000136 	b	84858 <CEcoMemoryManager1_4D656D31_QueryInterface+0x770>
   84384:	f94013e0 	ldr	x0, [sp, #32]
   84388:	39400001 	ldrb	w1, [x0]
   8438c:	f0000440 	adrp	x0, 10f000 <EcoVirtualMemory1Lab_623E1838_MemoryMap+0x7d610>
   84390:	91218000 	add	x0, x0, #0x860
   84394:	39400000 	ldrb	w0, [x0]
   84398:	6b00003f 	cmp	w1, w0
   8439c:	54001261 	b.ne	845e8 <CEcoMemoryManager1_4D656D31_QueryInterface+0x500>  // b.any
   843a0:	f94013e0 	ldr	x0, [sp, #32]
   843a4:	91000400 	add	x0, x0, #0x1
   843a8:	39400001 	ldrb	w1, [x0]
   843ac:	f0000440 	adrp	x0, 10f000 <EcoVirtualMemory1Lab_623E1838_MemoryMap+0x7d610>
   843b0:	91218400 	add	x0, x0, #0x861
   843b4:	39400000 	ldrb	w0, [x0]
   843b8:	6b00003f 	cmp	w1, w0
   843bc:	54001161 	b.ne	845e8 <CEcoMemoryManager1_4D656D31_QueryInterface+0x500>  // b.any
   843c0:	f94013e0 	ldr	x0, [sp, #32]
   843c4:	91000800 	add	x0, x0, #0x2
   843c8:	39400001 	ldrb	w1, [x0]
   843cc:	f0000440 	adrp	x0, 10f000 <EcoVirtualMemory1Lab_623E1838_MemoryMap+0x7d610>
   843d0:	91218800 	add	x0, x0, #0x862
   843d4:	39400000 	ldrb	w0, [x0]
   843d8:	6b00003f 	cmp	w1, w0
   843dc:	54001061 	b.ne	845e8 <CEcoMemoryManager1_4D656D31_QueryInterface+0x500>  // b.any
   843e0:	f94013e0 	ldr	x0, [sp, #32]
   843e4:	91000c00 	add	x0, x0, #0x3
   843e8:	39400001 	ldrb	w1, [x0]
   843ec:	f0000440 	adrp	x0, 10f000 <EcoVirtualMemory1Lab_623E1838_MemoryMap+0x7d610>
   843f0:	91218c00 	add	x0, x0, #0x863
   843f4:	39400000 	ldrb	w0, [x0]
   843f8:	6b00003f 	cmp	w1, w0
   843fc:	54000f61 	b.ne	845e8 <CEcoMemoryManager1_4D656D31_QueryInterface+0x500>  // b.any
   84400:	f94013e0 	ldr	x0, [sp, #32]
   84404:	91001000 	add	x0, x0, #0x4
   84408:	39400001 	ldrb	w1, [x0]
   8440c:	f0000440 	adrp	x0, 10f000 <EcoVirtualMemory1Lab_623E1838_MemoryMap+0x7d610>
   84410:	91219000 	add	x0, x0, #0x864
   84414:	39400000 	ldrb	w0, [x0]
   84418:	6b00003f 	cmp	w1, w0
   8441c:	54000e61 	b.ne	845e8 <CEcoMemoryManager1_4D656D31_QueryInterface+0x500>  // b.any
   84420:	f94013e0 	ldr	x0, [sp, #32]
   84424:	91001400 	add	x0, x0, #0x5
   84428:	39400001 	ldrb	w1, [x0]
   8442c:	f0000440 	adrp	x0, 10f000 <EcoVirtualMemory1Lab_623E1838_MemoryMap+0x7d610>
   84430:	91219400 	add	x0, x0, #0x865
   84434:	39400000 	ldrb	w0, [x0]
   84438:	6b00003f 	cmp	w1, w0
   8443c:	54000d61 	b.ne	845e8 <CEcoMemoryManager1_4D656D31_QueryInterface+0x500>  // b.any
   84440:	f94013e0 	ldr	x0, [sp, #32]
   84444:	91001800 	add	x0, x0, #0x6
   84448:	39400001 	ldrb	w1, [x0]
   8444c:	f0000440 	adrp	x0, 10f000 <EcoVirtualMemory1Lab_623E1838_MemoryMap+0x7d610>
   84450:	91219800 	add	x0, x0, #0x866
   84454:	39400000 	ldrb	w0, [x0]
   84458:	6b00003f 	cmp	w1, w0
   8445c:	54000c61 	b.ne	845e8 <CEcoMemoryManager1_4D656D31_QueryInterface+0x500>  // b.any
   84460:	f94013e0 	ldr	x0, [sp, #32]
   84464:	91001c00 	add	x0, x0, #0x7
   84468:	39400001 	ldrb	w1, [x0]
   8446c:	f0000440 	adrp	x0, 10f000 <EcoVirtualMemory1Lab_623E1838_MemoryMap+0x7d610>
   84470:	91219c00 	add	x0, x0, #0x867
   84474:	39400000 	ldrb	w0, [x0]
   84478:	6b00003f 	cmp	w1, w0
   8447c:	54000b61 	b.ne	845e8 <CEcoMemoryManager1_4D656D31_QueryInterface+0x500>  // b.any
   84480:	f94013e0 	ldr	x0, [sp, #32]
   84484:	91002000 	add	x0, x0, #0x8
   84488:	39400001 	ldrb	w1, [x0]
   8448c:	f0000440 	adrp	x0, 10f000 <EcoVirtualMemory1Lab_623E1838_MemoryMap+0x7d610>
   84490:	9121a000 	add	x0, x0, #0x868
   84494:	39400000 	ldrb	w0, [x0]
   84498:	6b00003f 	cmp	w1, w0
   8449c:	54000a61 	b.ne	845e8 <CEcoMemoryManager1_4D656D31_QueryInterface+0x500>  // b.any
   844a0:	f94013e0 	ldr	x0, [sp, #32]
   844a4:	91002400 	add	x0, x0, #0x9
   844a8:	39400001 	ldrb	w1, [x0]
   844ac:	f0000440 	adrp	x0, 10f000 <EcoVirtualMemory1Lab_623E1838_MemoryMap+0x7d610>
   844b0:	9121a400 	add	x0, x0, #0x869
   844b4:	39400000 	ldrb	w0, [x0]
   844b8:	6b00003f 	cmp	w1, w0
   844bc:	54000961 	b.ne	845e8 <CEcoMemoryManager1_4D656D31_QueryInterface+0x500>  // b.any
   844c0:	f94013e0 	ldr	x0, [sp, #32]
   844c4:	91002800 	add	x0, x0, #0xa
   844c8:	39400001 	ldrb	w1, [x0]
   844cc:	f0000440 	adrp	x0, 10f000 <EcoVirtualMemory1Lab_623E1838_MemoryMap+0x7d610>
   844d0:	9121a800 	add	x0, x0, #0x86a
   844d4:	39400000 	ldrb	w0, [x0]
   844d8:	6b00003f 	cmp	w1, w0
   844dc:	54000861 	b.ne	845e8 <CEcoMemoryManager1_4D656D31_QueryInterface+0x500>  // b.any
   844e0:	f94013e0 	ldr	x0, [sp, #32]
   844e4:	91002c00 	add	x0, x0, #0xb
   844e8:	39400001 	ldrb	w1, [x0]
   844ec:	f0000440 	adrp	x0, 10f000 <EcoVirtualMemory1Lab_623E1838_MemoryMap+0x7d610>
   844f0:	9121ac00 	add	x0, x0, #0x86b
   844f4:	39400000 	ldrb	w0, [x0]
   844f8:	6b00003f 	cmp	w1, w0
   844fc:	54000761 	b.ne	845e8 <CEcoMemoryManager1_4D656D31_QueryInterface+0x500>  // b.any
   84500:	f94013e0 	ldr	x0, [sp, #32]
   84504:	91003000 	add	x0, x0, #0xc
   84508:	39400001 	ldrb	w1, [x0]
   8450c:	f0000440 	adrp	x0, 10f000 <EcoVirtualMemory1Lab_623E1838_MemoryMap+0x7d610>
   84510:	9121b000 	add	x0, x0, #0x86c
   84514:	39400000 	ldrb	w0, [x0]
   84518:	6b00003f 	cmp	w1, w0
   8451c:	54000661 	b.ne	845e8 <CEcoMemoryManager1_4D656D31_QueryInterface+0x500>  // b.any
   84520:	f94013e0 	ldr	x0, [sp, #32]
   84524:	91003400 	add	x0, x0, #0xd
   84528:	39400001 	ldrb	w1, [x0]
   8452c:	f0000440 	adrp	x0, 10f000 <EcoVirtualMemory1Lab_623E1838_MemoryMap+0x7d610>
   84530:	9121b400 	add	x0, x0, #0x86d
   84534:	39400000 	ldrb	w0, [x0]
   84538:	6b00003f 	cmp	w1, w0
   8453c:	54000561 	b.ne	845e8 <CEcoMemoryManager1_4D656D31_QueryInterface+0x500>  // b.any
   84540:	f94013e0 	ldr	x0, [sp, #32]
   84544:	91003800 	add	x0, x0, #0xe
   84548:	39400001 	ldrb	w1, [x0]
   8454c:	f0000440 	adrp	x0, 10f000 <EcoVirtualMemory1Lab_623E1838_MemoryMap+0x7d610>
   84550:	9121b800 	add	x0, x0, #0x86e
   84554:	39400000 	ldrb	w0, [x0]
   84558:	6b00003f 	cmp	w1, w0
   8455c:	54000461 	b.ne	845e8 <CEcoMemoryManager1_4D656D31_QueryInterface+0x500>  // b.any
   84560:	f94013e0 	ldr	x0, [sp, #32]
   84564:	91003c00 	add	x0, x0, #0xf
   84568:	39400001 	ldrb	w1, [x0]
   8456c:	f0000440 	adrp	x0, 10f000 <EcoVirtualMemory1Lab_623E1838_MemoryMap+0x7d610>
   84570:	9121bc00 	add	x0, x0, #0x86f
   84574:	39400000 	ldrb	w0, [x0]
   84578:	6b00003f 	cmp	w1, w0
   8457c:	54000361 	b.ne	845e8 <CEcoMemoryManager1_4D656D31_QueryInterface+0x500>  // b.any
   84580:	f94013e0 	ldr	x0, [sp, #32]
   84584:	91004000 	add	x0, x0, #0x10
   84588:	39400001 	ldrb	w1, [x0]
   8458c:	f0000440 	adrp	x0, 10f000 <EcoVirtualMemory1Lab_623E1838_MemoryMap+0x7d610>
   84590:	9121c000 	add	x0, x0, #0x870
   84594:	39400000 	ldrb	w0, [x0]
   84598:	6b00003f 	cmp	w1, w0
   8459c:	54000261 	b.ne	845e8 <CEcoMemoryManager1_4D656D31_QueryInterface+0x500>  // b.any
   845a0:	f94013e0 	ldr	x0, [sp, #32]
   845a4:	91004400 	add	x0, x0, #0x11
   845a8:	39400001 	ldrb	w1, [x0]
   845ac:	f0000440 	adrp	x0, 10f000 <EcoVirtualMemory1Lab_623E1838_MemoryMap+0x7d610>
   845b0:	9121c400 	add	x0, x0, #0x871
   845b4:	39400000 	ldrb	w0, [x0]
   845b8:	6b00003f 	cmp	w1, w0
   845bc:	54000161 	b.ne	845e8 <CEcoMemoryManager1_4D656D31_QueryInterface+0x500>  // b.any
   845c0:	f9401fe0 	ldr	x0, [sp, #56]
   845c4:	91002001 	add	x1, x0, #0x8
   845c8:	f9400fe0 	ldr	x0, [sp, #24]
   845cc:	f9000001 	str	x1, [x0]
   845d0:	f9401fe0 	ldr	x0, [sp, #56]
   845d4:	f9400000 	ldr	x0, [x0]
   845d8:	f9400401 	ldr	x1, [x0, #8]
   845dc:	f9401fe0 	ldr	x0, [sp, #56]
   845e0:	d63f0020 	blr	x1
   845e4:	1400009d 	b	84858 <CEcoMemoryManager1_4D656D31_QueryInterface+0x770>
   845e8:	f94013e0 	ldr	x0, [sp, #32]
   845ec:	39400001 	ldrb	w1, [x0]
   845f0:	f0000440 	adrp	x0, 10f000 <EcoVirtualMemory1Lab_623E1838_MemoryMap+0x7d610>
   845f4:	91206000 	add	x0, x0, #0x818
   845f8:	39400000 	ldrb	w0, [x0]
   845fc:	6b00003f 	cmp	w1, w0
   84600:	54001241 	b.ne	84848 <CEcoMemoryManager1_4D656D31_QueryInterface+0x760>  // b.any
   84604:	f94013e0 	ldr	x0, [sp, #32]
   84608:	91000400 	add	x0, x0, #0x1
   8460c:	39400001 	ldrb	w1, [x0]
   84610:	f0000440 	adrp	x0, 10f000 <EcoVirtualMemory1Lab_623E1838_MemoryMap+0x7d610>
   84614:	91206400 	add	x0, x0, #0x819
   84618:	39400000 	ldrb	w0, [x0]
   8461c:	6b00003f 	cmp	w1, w0
   84620:	54001141 	b.ne	84848 <CEcoMemoryManager1_4D656D31_QueryInterface+0x760>  // b.any
   84624:	f94013e0 	ldr	x0, [sp, #32]
   84628:	91000800 	add	x0, x0, #0x2
   8462c:	39400001 	ldrb	w1, [x0]
   84630:	f0000440 	adrp	x0, 10f000 <EcoVirtualMemory1Lab_623E1838_MemoryMap+0x7d610>
   84634:	91206800 	add	x0, x0, #0x81a
   84638:	39400000 	ldrb	w0, [x0]
   8463c:	6b00003f 	cmp	w1, w0
   84640:	54001041 	b.ne	84848 <CEcoMemoryManager1_4D656D31_QueryInterface+0x760>  // b.any
   84644:	f94013e0 	ldr	x0, [sp, #32]
   84648:	91000c00 	add	x0, x0, #0x3
   8464c:	39400001 	ldrb	w1, [x0]
   84650:	f0000440 	adrp	x0, 10f000 <EcoVirtualMemory1Lab_623E1838_MemoryMap+0x7d610>
   84654:	91206c00 	add	x0, x0, #0x81b
   84658:	39400000 	ldrb	w0, [x0]
   8465c:	6b00003f 	cmp	w1, w0
   84660:	54000f41 	b.ne	84848 <CEcoMemoryManager1_4D656D31_QueryInterface+0x760>  // b.any
   84664:	f94013e0 	ldr	x0, [sp, #32]
   84668:	91001000 	add	x0, x0, #0x4
   8466c:	39400001 	ldrb	w1, [x0]
   84670:	f0000440 	adrp	x0, 10f000 <EcoVirtualMemory1Lab_623E1838_MemoryMap+0x7d610>
   84674:	91207000 	add	x0, x0, #0x81c
   84678:	39400000 	ldrb	w0, [x0]
   8467c:	6b00003f 	cmp	w1, w0
   84680:	54000e41 	b.ne	84848 <CEcoMemoryManager1_4D656D31_QueryInterface+0x760>  // b.any
   84684:	f94013e0 	ldr	x0, [sp, #32]
   84688:	91001400 	add	x0, x0, #0x5
   8468c:	39400001 	ldrb	w1, [x0]
   84690:	f0000440 	adrp	x0, 10f000 <EcoVirtualMemory1Lab_623E1838_MemoryMap+0x7d610>
   84694:	91207400 	add	x0, x0, #0x81d
   84698:	39400000 	ldrb	w0, [x0]
   8469c:	6b00003f 	cmp	w1, w0
   846a0:	54000d41 	b.ne	84848 <CEcoMemoryManager1_4D656D31_QueryInterface+0x760>  // b.any
   846a4:	f94013e0 	ldr	x0, [sp, #32]
   846a8:	91001800 	add	x0, x0, #0x6
   846ac:	39400001 	ldrb	w1, [x0]
   846b0:	f0000440 	adrp	x0, 10f000 <EcoVirtualMemory1Lab_623E1838_MemoryMap+0x7d610>
   846b4:	91207800 	add	x0, x0, #0x81e
   846b8:	39400000 	ldrb	w0, [x0]
   846bc:	6b00003f 	cmp	w1, w0
   846c0:	54000c41 	b.ne	84848 <CEcoMemoryManager1_4D656D31_QueryInterface+0x760>  // b.any
   846c4:	f94013e0 	ldr	x0, [sp, #32]
   846c8:	91001c00 	add	x0, x0, #0x7
   846cc:	39400001 	ldrb	w1, [x0]
   846d0:	f0000440 	adrp	x0, 10f000 <EcoVirtualMemory1Lab_623E1838_MemoryMap+0x7d610>
   846d4:	91207c00 	add	x0, x0, #0x81f
   846d8:	39400000 	ldrb	w0, [x0]
   846dc:	6b00003f 	cmp	w1, w0
   846e0:	54000b41 	b.ne	84848 <CEcoMemoryManager1_4D656D31_QueryInterface+0x760>  // b.any
   846e4:	f94013e0 	ldr	x0, [sp, #32]
   846e8:	91002000 	add	x0, x0, #0x8
   846ec:	39400001 	ldrb	w1, [x0]
   846f0:	f0000440 	adrp	x0, 10f000 <EcoVirtualMemory1Lab_623E1838_MemoryMap+0x7d610>
   846f4:	91208000 	add	x0, x0, #0x820
   846f8:	39400000 	ldrb	w0, [x0]
   846fc:	6b00003f 	cmp	w1, w0
   84700:	54000a41 	b.ne	84848 <CEcoMemoryManager1_4D656D31_QueryInterface+0x760>  // b.any
   84704:	f94013e0 	ldr	x0, [sp, #32]
   84708:	91002400 	add	x0, x0, #0x9
   8470c:	39400001 	ldrb	w1, [x0]
   84710:	f0000440 	adrp	x0, 10f000 <EcoVirtualMemory1Lab_623E1838_MemoryMap+0x7d610>
   84714:	91208400 	add	x0, x0, #0x821
   84718:	39400000 	ldrb	w0, [x0]
   8471c:	6b00003f 	cmp	w1, w0
   84720:	54000941 	b.ne	84848 <CEcoMemoryManager1_4D656D31_QueryInterface+0x760>  // b.any
   84724:	f94013e0 	ldr	x0, [sp, #32]
   84728:	91002800 	add	x0, x0, #0xa
   8472c:	39400001 	ldrb	w1, [x0]
   84730:	f0000440 	adrp	x0, 10f000 <EcoVirtualMemory1Lab_623E1838_MemoryMap+0x7d610>
   84734:	91208800 	add	x0, x0, #0x822
   84738:	39400000 	ldrb	w0, [x0]
   8473c:	6b00003f 	cmp	w1, w0
   84740:	54000841 	b.ne	84848 <CEcoMemoryManager1_4D656D31_QueryInterface+0x760>  // b.any
   84744:	f94013e0 	ldr	x0, [sp, #32]
   84748:	91002c00 	add	x0, x0, #0xb
   8474c:	39400001 	ldrb	w1, [x0]
   84750:	f0000440 	adrp	x0, 10f000 <EcoVirtualMemory1Lab_623E1838_MemoryMap+0x7d610>
   84754:	91208c00 	add	x0, x0, #0x823
   84758:	39400000 	ldrb	w0, [x0]
   8475c:	6b00003f 	cmp	w1, w0
   84760:	54000741 	b.ne	84848 <CEcoMemoryManager1_4D656D31_QueryInterface+0x760>  // b.any
   84764:	f94013e0 	ldr	x0, [sp, #32]
   84768:	91003000 	add	x0, x0, #0xc
   8476c:	39400001 	ldrb	w1, [x0]
   84770:	f0000440 	adrp	x0, 10f000 <EcoVirtualMemory1Lab_623E1838_MemoryMap+0x7d610>
   84774:	91209000 	add	x0, x0, #0x824
   84778:	39400000 	ldrb	w0, [x0]
   8477c:	6b00003f 	cmp	w1, w0
   84780:	54000641 	b.ne	84848 <CEcoMemoryManager1_4D656D31_QueryInterface+0x760>  // b.any
   84784:	f94013e0 	ldr	x0, [sp, #32]
   84788:	91003400 	add	x0, x0, #0xd
   8478c:	39400001 	ldrb	w1, [x0]
   84790:	f0000440 	adrp	x0, 10f000 <EcoVirtualMemory1Lab_623E1838_MemoryMap+0x7d610>
   84794:	91209400 	add	x0, x0, #0x825
   84798:	39400000 	ldrb	w0, [x0]
   8479c:	6b00003f 	cmp	w1, w0
   847a0:	54000541 	b.ne	84848 <CEcoMemoryManager1_4D656D31_QueryInterface+0x760>  // b.any
   847a4:	f94013e0 	ldr	x0, [sp, #32]
   847a8:	91003800 	add	x0, x0, #0xe
   847ac:	39400001 	ldrb	w1, [x0]
   847b0:	f0000440 	adrp	x0, 10f000 <EcoVirtualMemory1Lab_623E1838_MemoryMap+0x7d610>
   847b4:	91209800 	add	x0, x0, #0x826
   847b8:	39400000 	ldrb	w0, [x0]
   847bc:	6b00003f 	cmp	w1, w0
   847c0:	54000441 	b.ne	84848 <CEcoMemoryManager1_4D656D31_QueryInterface+0x760>  // b.any
   847c4:	f94013e0 	ldr	x0, [sp, #32]
   847c8:	91003c00 	add	x0, x0, #0xf
   847cc:	39400001 	ldrb	w1, [x0]
   847d0:	f0000440 	adrp	x0, 10f000 <EcoVirtualMemory1Lab_623E1838_MemoryMap+0x7d610>
   847d4:	91209c00 	add	x0, x0, #0x827
   847d8:	39400000 	ldrb	w0, [x0]
   847dc:	6b00003f 	cmp	w1, w0
   847e0:	54000341 	b.ne	84848 <CEcoMemoryManager1_4D656D31_QueryInterface+0x760>  // b.any
   847e4:	f94013e0 	ldr	x0, [sp, #32]
   847e8:	91004000 	add	x0, x0, #0x10
   847ec:	39400001 	ldrb	w1, [x0]
   847f0:	f0000440 	adrp	x0, 10f000 <EcoVirtualMemory1Lab_623E1838_MemoryMap+0x7d610>
   847f4:	9120a000 	add	x0, x0, #0x828
   847f8:	39400000 	ldrb	w0, [x0]
   847fc:	6b00003f 	cmp	w1, w0
   84800:	54000241 	b.ne	84848 <CEcoMemoryManager1_4D656D31_QueryInterface+0x760>  // b.any
   84804:	f94013e0 	ldr	x0, [sp, #32]
   84808:	91004400 	add	x0, x0, #0x11
   8480c:	39400001 	ldrb	w1, [x0]
   84810:	f0000440 	adrp	x0, 10f000 <EcoVirtualMemory1Lab_623E1838_MemoryMap+0x7d610>
   84814:	9120a400 	add	x0, x0, #0x829
   84818:	39400000 	ldrb	w0, [x0]
   8481c:	6b00003f 	cmp	w1, w0
   84820:	54000141 	b.ne	84848 <CEcoMemoryManager1_4D656D31_QueryInterface+0x760>  // b.any
   84824:	f9401fe1 	ldr	x1, [sp, #56]
   84828:	f9400fe0 	ldr	x0, [sp, #24]
   8482c:	f9000001 	str	x1, [x0]
   84830:	f9401fe0 	ldr	x0, [sp, #56]
   84834:	f9400000 	ldr	x0, [x0]
   84838:	f9400401 	ldr	x1, [x0, #8]
   8483c:	f9401fe0 	ldr	x0, [sp, #56]
   84840:	d63f0020 	blr	x1
   84844:	14000005 	b	84858 <CEcoMemoryManager1_4D656D31_QueryInterface+0x770>
   84848:	f9400fe0 	ldr	x0, [sp, #24]
   8484c:	f900001f 	str	xzr, [x0]
   84850:	12800240 	mov	w0, #0xffffffed            	// #-19
   84854:	14000002 	b	8485c <CEcoMemoryManager1_4D656D31_QueryInterface+0x774>
   84858:	52800000 	mov	w0, #0x0                   	// #0
   8485c:	a8c47bfd 	ldp	x29, x30, [sp], #64
   84860:	d65f03c0 	ret

0000000000084864 <CEcoMemoryManager1_4D656D31_AddRef>:
   84864:	d10083ff 	sub	sp, sp, #0x20
   84868:	f90007e0 	str	x0, [sp, #8]
   8486c:	f94007e0 	ldr	x0, [sp, #8]
   84870:	f9000fe0 	str	x0, [sp, #24]
   84874:	f94007e0 	ldr	x0, [sp, #8]
   84878:	f100001f 	cmp	x0, #0x0
   8487c:	54000061 	b.ne	84888 <CEcoMemoryManager1_4D656D31_AddRef+0x24>  // b.any
   84880:	12800000 	mov	w0, #0xffffffff            	// #-1
   84884:	14000006 	b	8489c <CEcoMemoryManager1_4D656D31_AddRef+0x38>
   84888:	f9400fe0 	ldr	x0, [sp, #24]
   8488c:	b9401000 	ldr	w0, [x0, #16]
   84890:	11000402 	add	w2, w0, #0x1
   84894:	f9400fe1 	ldr	x1, [sp, #24]
   84898:	b9001022 	str	w2, [x1, #16]
   8489c:	910083ff 	add	sp, sp, #0x20
   848a0:	d65f03c0 	ret

00000000000848a4 <CEcoMemoryManager1_4D656D31_Release>:
   848a4:	a9bd7bfd 	stp	x29, x30, [sp, #-48]!
   848a8:	910003fd 	mov	x29, sp
   848ac:	f9000fe0 	str	x0, [sp, #24]
   848b0:	f9400fe0 	ldr	x0, [sp, #24]
   848b4:	f90017e0 	str	x0, [sp, #40]
   848b8:	f9400fe0 	ldr	x0, [sp, #24]
   848bc:	f100001f 	cmp	x0, #0x0
   848c0:	54000061 	b.ne	848cc <CEcoMemoryManager1_4D656D31_Release+0x28>  // b.any
   848c4:	12800000 	mov	w0, #0xffffffff            	// #-1
   848c8:	14000010 	b	84908 <CEcoMemoryManager1_4D656D31_Release+0x64>
   848cc:	f94017e0 	ldr	x0, [sp, #40]
   848d0:	b9401000 	ldr	w0, [x0, #16]
   848d4:	51000401 	sub	w1, w0, #0x1
   848d8:	f94017e0 	ldr	x0, [sp, #40]
   848dc:	b9001001 	str	w1, [x0, #16]
   848e0:	f94017e0 	ldr	x0, [sp, #40]
   848e4:	b9401000 	ldr	w0, [x0, #16]
   848e8:	7100001f 	cmp	w0, #0x0
   848ec:	540000a1 	b.ne	84900 <CEcoMemoryManager1_4D656D31_Release+0x5c>  // b.any
   848f0:	f94017e0 	ldr	x0, [sp, #40]
   848f4:	940000aa 	bl	84b9c <deleteCEcoMemoryManager1_4D656D31>
   848f8:	52800000 	mov	w0, #0x0                   	// #0
   848fc:	14000003 	b	84908 <CEcoMemoryManager1_4D656D31_Release+0x64>
   84900:	f94017e0 	ldr	x0, [sp, #40]
   84904:	b9401000 	ldr	w0, [x0, #16]
   84908:	a8c37bfd 	ldp	x29, x30, [sp], #48
   8490c:	d65f03c0 	ret

0000000000084910 <CEcoMemoryManager1_4D656D31_Init>:
   84910:	d100c3ff 	sub	sp, sp, #0x30
   84914:	f9000fe0 	str	x0, [sp, #24]
   84918:	f9000be1 	str	x1, [sp, #16]
   8491c:	b9000fe2 	str	w2, [sp, #12]
   84920:	f9400fe0 	ldr	x0, [sp, #24]
   84924:	f90017e0 	str	x0, [sp, #40]
   84928:	f9400fe0 	ldr	x0, [sp, #24]
   8492c:	f100001f 	cmp	x0, #0x0
   84930:	54000061 	b.ne	8493c <CEcoMemoryManager1_4D656D31_Init+0x2c>  // b.any
   84934:	12800220 	mov	w0, #0xffffffee            	// #-18
   84938:	1400000e 	b	84970 <CEcoMemoryManager1_4D656D31_Init+0x60>
   8493c:	f94017e0 	ldr	x0, [sp, #40]
   84940:	f9400be1 	ldr	x1, [sp, #16]
   84944:	f9002001 	str	x1, [x0, #64]
   84948:	f94017e0 	ldr	x0, [sp, #40]
   8494c:	b9400fe1 	ldr	w1, [sp, #12]
   84950:	b9003401 	str	w1, [x0, #52]
   84954:	b9400fe1 	ldr	w1, [sp, #12]
   84958:	f9400be0 	ldr	x0, [sp, #16]
   8495c:	8b000020 	add	x0, x1, x0
   84960:	aa0003e1 	mov	x1, x0
   84964:	f94017e0 	ldr	x0, [sp, #40]
   84968:	f9002801 	str	x1, [x0, #80]
   8496c:	52800000 	mov	w0, #0x0                   	// #0
   84970:	9100c3ff 	add	sp, sp, #0x30
   84974:	d65f03c0 	ret

0000000000084978 <CEcoMemoryManager1_4D656D31_get_Status>:
   84978:	d10083ff 	sub	sp, sp, #0x20
   8497c:	f90007e0 	str	x0, [sp, #8]
   84980:	f90003e1 	str	x1, [sp]
   84984:	f94007e0 	ldr	x0, [sp, #8]
   84988:	f9000fe0 	str	x0, [sp, #24]
   8498c:	f94007e0 	ldr	x0, [sp, #8]
   84990:	f100001f 	cmp	x0, #0x0
   84994:	54000080 	b.eq	849a4 <CEcoMemoryManager1_4D656D31_get_Status+0x2c>  // b.none
   84998:	f94003e0 	ldr	x0, [sp]
   8499c:	f100001f 	cmp	x0, #0x0
   849a0:	54000061 	b.ne	849ac <CEcoMemoryManager1_4D656D31_get_Status+0x34>  // b.any
   849a4:	52800000 	mov	w0, #0x0                   	// #0
   849a8:	1400001c 	b	84a18 <CEcoMemoryManager1_4D656D31_get_Status+0xa0>
   849ac:	f9400fe0 	ldr	x0, [sp, #24]
   849b0:	f9402000 	ldr	x0, [x0, #64]
   849b4:	2a0003e1 	mov	w1, w0
   849b8:	f94003e0 	ldr	x0, [sp]
   849bc:	b9000001 	str	w1, [x0]
   849c0:	f9400fe0 	ldr	x0, [sp, #24]
   849c4:	f9402000 	ldr	x0, [x0, #64]
   849c8:	d360fc00 	lsr	x0, x0, #32
   849cc:	2a0003e1 	mov	w1, w0
   849d0:	f94003e0 	ldr	x0, [sp]
   849d4:	b9000401 	str	w1, [x0, #4]
   849d8:	f9400fe0 	ldr	x0, [sp, #24]
   849dc:	b9403401 	ldr	w1, [x0, #52]
   849e0:	f94003e0 	ldr	x0, [sp]
   849e4:	b9000801 	str	w1, [x0, #8]
   849e8:	f94003e0 	ldr	x0, [sp]
   849ec:	b9400801 	ldr	w1, [x0, #8]
   849f0:	f9400fe0 	ldr	x0, [sp, #24]
   849f4:	b9403800 	ldr	w0, [x0, #56]
   849f8:	4b000021 	sub	w1, w1, w0
   849fc:	f94003e0 	ldr	x0, [sp]
   84a00:	b9000c01 	str	w1, [x0, #12]
   84a04:	f9400fe0 	ldr	x0, [sp, #24]
   84a08:	b9403001 	ldr	w1, [x0, #48]
   84a0c:	f94003e0 	ldr	x0, [sp]
   84a10:	b9001001 	str	w1, [x0, #16]
   84a14:	52800020 	mov	w0, #0x1                   	// #1
   84a18:	910083ff 	add	sp, sp, #0x20
   84a1c:	d65f03c0 	ret

0000000000084a20 <CEcoMemoryManager1_4D656D31_get_UsedBlocks>:
   84a20:	d10083ff 	sub	sp, sp, #0x20
   84a24:	f9000fe0 	str	x0, [sp, #24]
   84a28:	f9000be1 	str	x1, [sp, #16]
   84a2c:	f90007e2 	str	x2, [sp, #8]
   84a30:	f9400fe0 	ldr	x0, [sp, #24]
   84a34:	f100001f 	cmp	x0, #0x0
   84a38:	54000061 	b.ne	84a44 <CEcoMemoryManager1_4D656D31_get_UsedBlocks+0x24>  // b.any
   84a3c:	52800000 	mov	w0, #0x0                   	// #0
   84a40:	14000002 	b	84a48 <CEcoMemoryManager1_4D656D31_get_UsedBlocks+0x28>
   84a44:	52800020 	mov	w0, #0x1                   	// #1
   84a48:	910083ff 	add	sp, sp, #0x20
   84a4c:	d65f03c0 	ret

0000000000084a50 <initCEcoMemoryManager1_4D656D31>:
   84a50:	d10083ff 	sub	sp, sp, #0x20
   84a54:	f90007e0 	str	x0, [sp, #8]
   84a58:	f90003e1 	str	x1, [sp]
   84a5c:	f94007e0 	ldr	x0, [sp, #8]
   84a60:	f9000fe0 	str	x0, [sp, #24]
   84a64:	12800220 	mov	w0, #0xffffffee            	// #-18
   84a68:	79002fe0 	strh	w0, [sp, #22]
   84a6c:	f94007e0 	ldr	x0, [sp, #8]
   84a70:	f100001f 	cmp	x0, #0x0
   84a74:	54000061 	b.ne	84a80 <initCEcoMemoryManager1_4D656D31+0x30>  // b.any
   84a78:	79c02fe0 	ldrsh	w0, [sp, #22]
   84a7c:	14000009 	b	84aa0 <initCEcoMemoryManager1_4D656D31+0x50>
   84a80:	f9400fe0 	ldr	x0, [sp, #24]
   84a84:	f9402000 	ldr	x0, [x0, #64]
   84a88:	f100001f 	cmp	x0, #0x0
   84a8c:	54000081 	b.ne	84a9c <initCEcoMemoryManager1_4D656D31+0x4c>  // b.any
   84a90:	f9400fe0 	ldr	x0, [sp, #24]
   84a94:	b9403400 	ldr	w0, [x0, #52]
   84a98:	7100001f 	cmp	w0, #0x0
   84a9c:	52800000 	mov	w0, #0x0                   	// #0
   84aa0:	910083ff 	add	sp, sp, #0x20
   84aa4:	d65f03c0 	ret

0000000000084aa8 <createCEcoMemoryManager1_4D656D31>:
   84aa8:	d100c3ff 	sub	sp, sp, #0x30
   84aac:	f9000fe0 	str	x0, [sp, #24]
   84ab0:	f9000be1 	str	x1, [sp, #16]
   84ab4:	f90007e2 	str	x2, [sp, #8]
   84ab8:	f90017ff 	str	xzr, [sp, #40]
   84abc:	12800220 	mov	w0, #0xffffffee            	// #-18
   84ac0:	79004fe0 	strh	w0, [sp, #38]
   84ac4:	f94007e0 	ldr	x0, [sp, #8]
   84ac8:	f100001f 	cmp	x0, #0x0
   84acc:	54000061 	b.ne	84ad8 <createCEcoMemoryManager1_4D656D31+0x30>  // b.any
   84ad0:	79c04fe0 	ldrsh	w0, [sp, #38]
   84ad4:	14000030 	b	84b94 <createCEcoMemoryManager1_4D656D31+0xec>
   84ad8:	b0000060 	adrp	x0, 91000 <g_xF10BC39A4F2143CF8A1E104650A2C302Factory+0x58>
   84adc:	911d4000 	add	x0, x0, #0x750
   84ae0:	f90017e0 	str	x0, [sp, #40]
   84ae4:	f94017e0 	ldr	x0, [sp, #40]
   84ae8:	b9401000 	ldr	w0, [x0, #16]
   84aec:	7100001f 	cmp	w0, #0x0
   84af0:	54000401 	b.ne	84b70 <createCEcoMemoryManager1_4D656D31+0xc8>  // b.any
   84af4:	f94017e0 	ldr	x0, [sp, #40]
   84af8:	52800021 	mov	w1, #0x1                   	// #1
   84afc:	b9001001 	str	w1, [x0, #16]
   84b00:	f94017e0 	ldr	x0, [sp, #40]
   84b04:	f9400fe1 	ldr	x1, [sp, #24]
   84b08:	f9001001 	str	x1, [x0, #32]
   84b0c:	f94017e0 	ldr	x0, [sp, #40]
   84b10:	90000061 	adrp	x1, 90000 <CEcoMemoryAllocator1Lab_623E1838_Compare+0x60>
   84b14:	913b6021 	add	x1, x1, #0xed8
   84b18:	f9000001 	str	x1, [x0]
   84b1c:	f94017e0 	ldr	x0, [sp, #40]
   84b20:	90000061 	adrp	x1, 90000 <CEcoMemoryAllocator1Lab_623E1838_Compare+0x60>
   84b24:	913c6021 	add	x1, x1, #0xf18
   84b28:	f9000401 	str	x1, [x0, #8]
   84b2c:	f94017e0 	ldr	x0, [sp, #40]
   84b30:	f900141f 	str	xzr, [x0, #40]
   84b34:	f94017e0 	ldr	x0, [sp, #40]
   84b38:	b900301f 	str	wzr, [x0, #48]
   84b3c:	f94017e0 	ldr	x0, [sp, #40]
   84b40:	b900341f 	str	wzr, [x0, #52]
   84b44:	f94017e0 	ldr	x0, [sp, #40]
   84b48:	b900381f 	str	wzr, [x0, #56]
   84b4c:	f94017e0 	ldr	x0, [sp, #40]
   84b50:	f900201f 	str	xzr, [x0, #64]
   84b54:	f94017e0 	ldr	x0, [sp, #40]
   84b58:	f900241f 	str	xzr, [x0, #72]
   84b5c:	f94017e0 	ldr	x0, [sp, #40]
   84b60:	f900281f 	str	xzr, [x0, #80]
   84b64:	f94017e0 	ldr	x0, [sp, #40]
   84b68:	3901601f 	strb	wzr, [x0, #88]
   84b6c:	14000006 	b	84b84 <createCEcoMemoryManager1_4D656D31+0xdc>
   84b70:	f94017e0 	ldr	x0, [sp, #40]
   84b74:	b9401000 	ldr	w0, [x0, #16]
   84b78:	11000401 	add	w1, w0, #0x1
   84b7c:	f94017e0 	ldr	x0, [sp, #40]
   84b80:	b9001001 	str	w1, [x0, #16]
   84b84:	f94007e0 	ldr	x0, [sp, #8]
   84b88:	f94017e1 	ldr	x1, [sp, #40]
   84b8c:	f9000001 	str	x1, [x0]
   84b90:	52800000 	mov	w0, #0x0                   	// #0
   84b94:	9100c3ff 	add	sp, sp, #0x30
   84b98:	d65f03c0 	ret

0000000000084b9c <deleteCEcoMemoryManager1_4D656D31>:
   84b9c:	d10083ff 	sub	sp, sp, #0x20
   84ba0:	f90007e0 	str	x0, [sp, #8]
   84ba4:	f94007e0 	ldr	x0, [sp, #8]
   84ba8:	f9000fe0 	str	x0, [sp, #24]
   84bac:	f94007e0 	ldr	x0, [sp, #8]
   84bb0:	f100001f 	cmp	x0, #0x0
   84bb4:	540000e0 	b.eq	84bd0 <deleteCEcoMemoryManager1_4D656D31+0x34>  // b.none
   84bb8:	f9400fe0 	ldr	x0, [sp, #24]
   84bbc:	f900201f 	str	xzr, [x0, #64]
   84bc0:	f9400fe0 	ldr	x0, [sp, #24]
   84bc4:	b900341f 	str	wzr, [x0, #52]
   84bc8:	f9400fe0 	ldr	x0, [sp, #24]
   84bcc:	f900281f 	str	xzr, [x0, #80]
   84bd0:	d503201f 	nop
   84bd4:	910083ff 	add	sp, sp, #0x20
   84bd8:	d65f03c0 	ret

0000000000084bdc <CEcoMemoryAllocator1_4D656D31_QueryInterface>:
   84bdc:	a9bc7bfd 	stp	x29, x30, [sp, #-64]!
   84be0:	910003fd 	mov	x29, sp
   84be4:	f90017e0 	str	x0, [sp, #40]
   84be8:	f90013e1 	str	x1, [sp, #32]
   84bec:	f9000fe2 	str	x2, [sp, #24]
   84bf0:	f94017e0 	ldr	x0, [sp, #40]
   84bf4:	d1002000 	sub	x0, x0, #0x8
   84bf8:	f9001fe0 	str	x0, [sp, #56]
   84bfc:	f94017e0 	ldr	x0, [sp, #40]
   84c00:	f100001f 	cmp	x0, #0x0
   84c04:	54000080 	b.eq	84c14 <CEcoMemoryAllocator1_4D656D31_QueryInterface+0x38>  // b.none
   84c08:	f9400fe0 	ldr	x0, [sp, #24]
   84c0c:	f100001f 	cmp	x0, #0x0
   84c10:	54000061 	b.ne	84c1c <CEcoMemoryAllocator1_4D656D31_QueryInterface+0x40>  // b.any
   84c14:	12800000 	mov	w0, #0xffffffff            	// #-1
   84c18:	140001d0 	b	85358 <CEcoMemoryAllocator1_4D656D31_QueryInterface+0x77c>
   84c1c:	f94013e0 	ldr	x0, [sp, #32]
   84c20:	39400001 	ldrb	w1, [x0]
   84c24:	f0000440 	adrp	x0, 10f000 <EcoVirtualMemory1Lab_623E1838_MemoryMap+0x7d610>
   84c28:	91236000 	add	x0, x0, #0x8d8
   84c2c:	39400000 	ldrb	w0, [x0]
   84c30:	6b00003f 	cmp	w1, w0
   84c34:	54001261 	b.ne	84e80 <CEcoMemoryAllocator1_4D656D31_QueryInterface+0x2a4>  // b.any
   84c38:	f94013e0 	ldr	x0, [sp, #32]
   84c3c:	91000400 	add	x0, x0, #0x1
   84c40:	39400001 	ldrb	w1, [x0]
   84c44:	f0000440 	adrp	x0, 10f000 <EcoVirtualMemory1Lab_623E1838_MemoryMap+0x7d610>
   84c48:	91236400 	add	x0, x0, #0x8d9
   84c4c:	39400000 	ldrb	w0, [x0]
   84c50:	6b00003f 	cmp	w1, w0
   84c54:	54001161 	b.ne	84e80 <CEcoMemoryAllocator1_4D656D31_QueryInterface+0x2a4>  // b.any
   84c58:	f94013e0 	ldr	x0, [sp, #32]
   84c5c:	91000800 	add	x0, x0, #0x2
   84c60:	39400001 	ldrb	w1, [x0]
   84c64:	f0000440 	adrp	x0, 10f000 <EcoVirtualMemory1Lab_623E1838_MemoryMap+0x7d610>
   84c68:	91236800 	add	x0, x0, #0x8da
   84c6c:	39400000 	ldrb	w0, [x0]
   84c70:	6b00003f 	cmp	w1, w0
   84c74:	54001061 	b.ne	84e80 <CEcoMemoryAllocator1_4D656D31_QueryInterface+0x2a4>  // b.any
   84c78:	f94013e0 	ldr	x0, [sp, #32]
   84c7c:	91000c00 	add	x0, x0, #0x3
   84c80:	39400001 	ldrb	w1, [x0]
   84c84:	f0000440 	adrp	x0, 10f000 <EcoVirtualMemory1Lab_623E1838_MemoryMap+0x7d610>
   84c88:	91236c00 	add	x0, x0, #0x8db
   84c8c:	39400000 	ldrb	w0, [x0]
   84c90:	6b00003f 	cmp	w1, w0
   84c94:	54000f61 	b.ne	84e80 <CEcoMemoryAllocator1_4D656D31_QueryInterface+0x2a4>  // b.any
   84c98:	f94013e0 	ldr	x0, [sp, #32]
   84c9c:	91001000 	add	x0, x0, #0x4
   84ca0:	39400001 	ldrb	w1, [x0]
   84ca4:	f0000440 	adrp	x0, 10f000 <EcoVirtualMemory1Lab_623E1838_MemoryMap+0x7d610>
   84ca8:	91237000 	add	x0, x0, #0x8dc
   84cac:	39400000 	ldrb	w0, [x0]
   84cb0:	6b00003f 	cmp	w1, w0
   84cb4:	54000e61 	b.ne	84e80 <CEcoMemoryAllocator1_4D656D31_QueryInterface+0x2a4>  // b.any
   84cb8:	f94013e0 	ldr	x0, [sp, #32]
   84cbc:	91001400 	add	x0, x0, #0x5
   84cc0:	39400001 	ldrb	w1, [x0]
   84cc4:	f0000440 	adrp	x0, 10f000 <EcoVirtualMemory1Lab_623E1838_MemoryMap+0x7d610>
   84cc8:	91237400 	add	x0, x0, #0x8dd
   84ccc:	39400000 	ldrb	w0, [x0]
   84cd0:	6b00003f 	cmp	w1, w0
   84cd4:	54000d61 	b.ne	84e80 <CEcoMemoryAllocator1_4D656D31_QueryInterface+0x2a4>  // b.any
   84cd8:	f94013e0 	ldr	x0, [sp, #32]
   84cdc:	91001800 	add	x0, x0, #0x6
   84ce0:	39400001 	ldrb	w1, [x0]
   84ce4:	f0000440 	adrp	x0, 10f000 <EcoVirtualMemory1Lab_623E1838_MemoryMap+0x7d610>
   84ce8:	91237800 	add	x0, x0, #0x8de
   84cec:	39400000 	ldrb	w0, [x0]
   84cf0:	6b00003f 	cmp	w1, w0
   84cf4:	54000c61 	b.ne	84e80 <CEcoMemoryAllocator1_4D656D31_QueryInterface+0x2a4>  // b.any
   84cf8:	f94013e0 	ldr	x0, [sp, #32]
   84cfc:	91001c00 	add	x0, x0, #0x7
   84d00:	39400001 	ldrb	w1, [x0]
   84d04:	f0000440 	adrp	x0, 10f000 <EcoVirtualMemory1Lab_623E1838_MemoryMap+0x7d610>
   84d08:	91237c00 	add	x0, x0, #0x8df
   84d0c:	39400000 	ldrb	w0, [x0]
   84d10:	6b00003f 	cmp	w1, w0
   84d14:	54000b61 	b.ne	84e80 <CEcoMemoryAllocator1_4D656D31_QueryInterface+0x2a4>  // b.any
   84d18:	f94013e0 	ldr	x0, [sp, #32]
   84d1c:	91002000 	add	x0, x0, #0x8
   84d20:	39400001 	ldrb	w1, [x0]
   84d24:	f0000440 	adrp	x0, 10f000 <EcoVirtualMemory1Lab_623E1838_MemoryMap+0x7d610>
   84d28:	91238000 	add	x0, x0, #0x8e0
   84d2c:	39400000 	ldrb	w0, [x0]
   84d30:	6b00003f 	cmp	w1, w0
   84d34:	54000a61 	b.ne	84e80 <CEcoMemoryAllocator1_4D656D31_QueryInterface+0x2a4>  // b.any
   84d38:	f94013e0 	ldr	x0, [sp, #32]
   84d3c:	91002400 	add	x0, x0, #0x9
   84d40:	39400001 	ldrb	w1, [x0]
   84d44:	f0000440 	adrp	x0, 10f000 <EcoVirtualMemory1Lab_623E1838_MemoryMap+0x7d610>
   84d48:	91238400 	add	x0, x0, #0x8e1
   84d4c:	39400000 	ldrb	w0, [x0]
   84d50:	6b00003f 	cmp	w1, w0
   84d54:	54000961 	b.ne	84e80 <CEcoMemoryAllocator1_4D656D31_QueryInterface+0x2a4>  // b.any
   84d58:	f94013e0 	ldr	x0, [sp, #32]
   84d5c:	91002800 	add	x0, x0, #0xa
   84d60:	39400001 	ldrb	w1, [x0]
   84d64:	f0000440 	adrp	x0, 10f000 <EcoVirtualMemory1Lab_623E1838_MemoryMap+0x7d610>
   84d68:	91238800 	add	x0, x0, #0x8e2
   84d6c:	39400000 	ldrb	w0, [x0]
   84d70:	6b00003f 	cmp	w1, w0
   84d74:	54000861 	b.ne	84e80 <CEcoMemoryAllocator1_4D656D31_QueryInterface+0x2a4>  // b.any
   84d78:	f94013e0 	ldr	x0, [sp, #32]
   84d7c:	91002c00 	add	x0, x0, #0xb
   84d80:	39400001 	ldrb	w1, [x0]
   84d84:	f0000440 	adrp	x0, 10f000 <EcoVirtualMemory1Lab_623E1838_MemoryMap+0x7d610>
   84d88:	91238c00 	add	x0, x0, #0x8e3
   84d8c:	39400000 	ldrb	w0, [x0]
   84d90:	6b00003f 	cmp	w1, w0
   84d94:	54000761 	b.ne	84e80 <CEcoMemoryAllocator1_4D656D31_QueryInterface+0x2a4>  // b.any
   84d98:	f94013e0 	ldr	x0, [sp, #32]
   84d9c:	91003000 	add	x0, x0, #0xc
   84da0:	39400001 	ldrb	w1, [x0]
   84da4:	f0000440 	adrp	x0, 10f000 <EcoVirtualMemory1Lab_623E1838_MemoryMap+0x7d610>
   84da8:	91239000 	add	x0, x0, #0x8e4
   84dac:	39400000 	ldrb	w0, [x0]
   84db0:	6b00003f 	cmp	w1, w0
   84db4:	54000661 	b.ne	84e80 <CEcoMemoryAllocator1_4D656D31_QueryInterface+0x2a4>  // b.any
   84db8:	f94013e0 	ldr	x0, [sp, #32]
   84dbc:	91003400 	add	x0, x0, #0xd
   84dc0:	39400001 	ldrb	w1, [x0]
   84dc4:	f0000440 	adrp	x0, 10f000 <EcoVirtualMemory1Lab_623E1838_MemoryMap+0x7d610>
   84dc8:	91239400 	add	x0, x0, #0x8e5
   84dcc:	39400000 	ldrb	w0, [x0]
   84dd0:	6b00003f 	cmp	w1, w0
   84dd4:	54000561 	b.ne	84e80 <CEcoMemoryAllocator1_4D656D31_QueryInterface+0x2a4>  // b.any
   84dd8:	f94013e0 	ldr	x0, [sp, #32]
   84ddc:	91003800 	add	x0, x0, #0xe
   84de0:	39400001 	ldrb	w1, [x0]
   84de4:	f0000440 	adrp	x0, 10f000 <EcoVirtualMemory1Lab_623E1838_MemoryMap+0x7d610>
   84de8:	91239800 	add	x0, x0, #0x8e6
   84dec:	39400000 	ldrb	w0, [x0]
   84df0:	6b00003f 	cmp	w1, w0
   84df4:	54000461 	b.ne	84e80 <CEcoMemoryAllocator1_4D656D31_QueryInterface+0x2a4>  // b.any
   84df8:	f94013e0 	ldr	x0, [sp, #32]
   84dfc:	91003c00 	add	x0, x0, #0xf
   84e00:	39400001 	ldrb	w1, [x0]
   84e04:	f0000440 	adrp	x0, 10f000 <EcoVirtualMemory1Lab_623E1838_MemoryMap+0x7d610>
   84e08:	91239c00 	add	x0, x0, #0x8e7
   84e0c:	39400000 	ldrb	w0, [x0]
   84e10:	6b00003f 	cmp	w1, w0
   84e14:	54000361 	b.ne	84e80 <CEcoMemoryAllocator1_4D656D31_QueryInterface+0x2a4>  // b.any
   84e18:	f94013e0 	ldr	x0, [sp, #32]
   84e1c:	91004000 	add	x0, x0, #0x10
   84e20:	39400001 	ldrb	w1, [x0]
   84e24:	f0000440 	adrp	x0, 10f000 <EcoVirtualMemory1Lab_623E1838_MemoryMap+0x7d610>
   84e28:	9123a000 	add	x0, x0, #0x8e8
   84e2c:	39400000 	ldrb	w0, [x0]
   84e30:	6b00003f 	cmp	w1, w0
   84e34:	54000261 	b.ne	84e80 <CEcoMemoryAllocator1_4D656D31_QueryInterface+0x2a4>  // b.any
   84e38:	f94013e0 	ldr	x0, [sp, #32]
   84e3c:	91004400 	add	x0, x0, #0x11
   84e40:	39400001 	ldrb	w1, [x0]
   84e44:	f0000440 	adrp	x0, 10f000 <EcoVirtualMemory1Lab_623E1838_MemoryMap+0x7d610>
   84e48:	9123a400 	add	x0, x0, #0x8e9
   84e4c:	39400000 	ldrb	w0, [x0]
   84e50:	6b00003f 	cmp	w1, w0
   84e54:	54000161 	b.ne	84e80 <CEcoMemoryAllocator1_4D656D31_QueryInterface+0x2a4>  // b.any
   84e58:	f9401fe0 	ldr	x0, [sp, #56]
   84e5c:	91002001 	add	x1, x0, #0x8
   84e60:	f9400fe0 	ldr	x0, [sp, #24]
   84e64:	f9000001 	str	x1, [x0]
   84e68:	f9401fe0 	ldr	x0, [sp, #56]
   84e6c:	f9400000 	ldr	x0, [x0]
   84e70:	f9400401 	ldr	x1, [x0, #8]
   84e74:	f9401fe0 	ldr	x0, [sp, #56]
   84e78:	d63f0020 	blr	x1
   84e7c:	14000136 	b	85354 <CEcoMemoryAllocator1_4D656D31_QueryInterface+0x778>
   84e80:	f94013e0 	ldr	x0, [sp, #32]
   84e84:	39400001 	ldrb	w1, [x0]
   84e88:	f0000440 	adrp	x0, 10f000 <EcoVirtualMemory1Lab_623E1838_MemoryMap+0x7d610>
   84e8c:	9123c000 	add	x0, x0, #0x8f0
   84e90:	39400000 	ldrb	w0, [x0]
   84e94:	6b00003f 	cmp	w1, w0
   84e98:	54001241 	b.ne	850e0 <CEcoMemoryAllocator1_4D656D31_QueryInterface+0x504>  // b.any
   84e9c:	f94013e0 	ldr	x0, [sp, #32]
   84ea0:	91000400 	add	x0, x0, #0x1
   84ea4:	39400001 	ldrb	w1, [x0]
   84ea8:	f0000440 	adrp	x0, 10f000 <EcoVirtualMemory1Lab_623E1838_MemoryMap+0x7d610>
   84eac:	9123c400 	add	x0, x0, #0x8f1
   84eb0:	39400000 	ldrb	w0, [x0]
   84eb4:	6b00003f 	cmp	w1, w0
   84eb8:	54001141 	b.ne	850e0 <CEcoMemoryAllocator1_4D656D31_QueryInterface+0x504>  // b.any
   84ebc:	f94013e0 	ldr	x0, [sp, #32]
   84ec0:	91000800 	add	x0, x0, #0x2
   84ec4:	39400001 	ldrb	w1, [x0]
   84ec8:	f0000440 	adrp	x0, 10f000 <EcoVirtualMemory1Lab_623E1838_MemoryMap+0x7d610>
   84ecc:	9123c800 	add	x0, x0, #0x8f2
   84ed0:	39400000 	ldrb	w0, [x0]
   84ed4:	6b00003f 	cmp	w1, w0
   84ed8:	54001041 	b.ne	850e0 <CEcoMemoryAllocator1_4D656D31_QueryInterface+0x504>  // b.any
   84edc:	f94013e0 	ldr	x0, [sp, #32]
   84ee0:	91000c00 	add	x0, x0, #0x3
   84ee4:	39400001 	ldrb	w1, [x0]
   84ee8:	f0000440 	adrp	x0, 10f000 <EcoVirtualMemory1Lab_623E1838_MemoryMap+0x7d610>
   84eec:	9123cc00 	add	x0, x0, #0x8f3
   84ef0:	39400000 	ldrb	w0, [x0]
   84ef4:	6b00003f 	cmp	w1, w0
   84ef8:	54000f41 	b.ne	850e0 <CEcoMemoryAllocator1_4D656D31_QueryInterface+0x504>  // b.any
   84efc:	f94013e0 	ldr	x0, [sp, #32]
   84f00:	91001000 	add	x0, x0, #0x4
   84f04:	39400001 	ldrb	w1, [x0]
   84f08:	f0000440 	adrp	x0, 10f000 <EcoVirtualMemory1Lab_623E1838_MemoryMap+0x7d610>
   84f0c:	9123d000 	add	x0, x0, #0x8f4
   84f10:	39400000 	ldrb	w0, [x0]
   84f14:	6b00003f 	cmp	w1, w0
   84f18:	54000e41 	b.ne	850e0 <CEcoMemoryAllocator1_4D656D31_QueryInterface+0x504>  // b.any
   84f1c:	f94013e0 	ldr	x0, [sp, #32]
   84f20:	91001400 	add	x0, x0, #0x5
   84f24:	39400001 	ldrb	w1, [x0]
   84f28:	f0000440 	adrp	x0, 10f000 <EcoVirtualMemory1Lab_623E1838_MemoryMap+0x7d610>
   84f2c:	9123d400 	add	x0, x0, #0x8f5
   84f30:	39400000 	ldrb	w0, [x0]
   84f34:	6b00003f 	cmp	w1, w0
   84f38:	54000d41 	b.ne	850e0 <CEcoMemoryAllocator1_4D656D31_QueryInterface+0x504>  // b.any
   84f3c:	f94013e0 	ldr	x0, [sp, #32]
   84f40:	91001800 	add	x0, x0, #0x6
   84f44:	39400001 	ldrb	w1, [x0]
   84f48:	f0000440 	adrp	x0, 10f000 <EcoVirtualMemory1Lab_623E1838_MemoryMap+0x7d610>
   84f4c:	9123d800 	add	x0, x0, #0x8f6
   84f50:	39400000 	ldrb	w0, [x0]
   84f54:	6b00003f 	cmp	w1, w0
   84f58:	54000c41 	b.ne	850e0 <CEcoMemoryAllocator1_4D656D31_QueryInterface+0x504>  // b.any
   84f5c:	f94013e0 	ldr	x0, [sp, #32]
   84f60:	91001c00 	add	x0, x0, #0x7
   84f64:	39400001 	ldrb	w1, [x0]
   84f68:	f0000440 	adrp	x0, 10f000 <EcoVirtualMemory1Lab_623E1838_MemoryMap+0x7d610>
   84f6c:	9123dc00 	add	x0, x0, #0x8f7
   84f70:	39400000 	ldrb	w0, [x0]
   84f74:	6b00003f 	cmp	w1, w0
   84f78:	54000b41 	b.ne	850e0 <CEcoMemoryAllocator1_4D656D31_QueryInterface+0x504>  // b.any
   84f7c:	f94013e0 	ldr	x0, [sp, #32]
   84f80:	91002000 	add	x0, x0, #0x8
   84f84:	39400001 	ldrb	w1, [x0]
   84f88:	f0000440 	adrp	x0, 10f000 <EcoVirtualMemory1Lab_623E1838_MemoryMap+0x7d610>
   84f8c:	9123e000 	add	x0, x0, #0x8f8
   84f90:	39400000 	ldrb	w0, [x0]
   84f94:	6b00003f 	cmp	w1, w0
   84f98:	54000a41 	b.ne	850e0 <CEcoMemoryAllocator1_4D656D31_QueryInterface+0x504>  // b.any
   84f9c:	f94013e0 	ldr	x0, [sp, #32]
   84fa0:	91002400 	add	x0, x0, #0x9
   84fa4:	39400001 	ldrb	w1, [x0]
   84fa8:	f0000440 	adrp	x0, 10f000 <EcoVirtualMemory1Lab_623E1838_MemoryMap+0x7d610>
   84fac:	9123e400 	add	x0, x0, #0x8f9
   84fb0:	39400000 	ldrb	w0, [x0]
   84fb4:	6b00003f 	cmp	w1, w0
   84fb8:	54000941 	b.ne	850e0 <CEcoMemoryAllocator1_4D656D31_QueryInterface+0x504>  // b.any
   84fbc:	f94013e0 	ldr	x0, [sp, #32]
   84fc0:	91002800 	add	x0, x0, #0xa
   84fc4:	39400001 	ldrb	w1, [x0]
   84fc8:	f0000440 	adrp	x0, 10f000 <EcoVirtualMemory1Lab_623E1838_MemoryMap+0x7d610>
   84fcc:	9123e800 	add	x0, x0, #0x8fa
   84fd0:	39400000 	ldrb	w0, [x0]
   84fd4:	6b00003f 	cmp	w1, w0
   84fd8:	54000841 	b.ne	850e0 <CEcoMemoryAllocator1_4D656D31_QueryInterface+0x504>  // b.any
   84fdc:	f94013e0 	ldr	x0, [sp, #32]
   84fe0:	91002c00 	add	x0, x0, #0xb
   84fe4:	39400001 	ldrb	w1, [x0]
   84fe8:	f0000440 	adrp	x0, 10f000 <EcoVirtualMemory1Lab_623E1838_MemoryMap+0x7d610>
   84fec:	9123ec00 	add	x0, x0, #0x8fb
   84ff0:	39400000 	ldrb	w0, [x0]
   84ff4:	6b00003f 	cmp	w1, w0
   84ff8:	54000741 	b.ne	850e0 <CEcoMemoryAllocator1_4D656D31_QueryInterface+0x504>  // b.any
   84ffc:	f94013e0 	ldr	x0, [sp, #32]
   85000:	91003000 	add	x0, x0, #0xc
   85004:	39400001 	ldrb	w1, [x0]
   85008:	d0000440 	adrp	x0, 10f000 <EcoVirtualMemory1Lab_623E1838_MemoryMap+0x7d610>
   8500c:	9123f000 	add	x0, x0, #0x8fc
   85010:	39400000 	ldrb	w0, [x0]
   85014:	6b00003f 	cmp	w1, w0
   85018:	54000641 	b.ne	850e0 <CEcoMemoryAllocator1_4D656D31_QueryInterface+0x504>  // b.any
   8501c:	f94013e0 	ldr	x0, [sp, #32]
   85020:	91003400 	add	x0, x0, #0xd
   85024:	39400001 	ldrb	w1, [x0]
   85028:	d0000440 	adrp	x0, 10f000 <EcoVirtualMemory1Lab_623E1838_MemoryMap+0x7d610>
   8502c:	9123f400 	add	x0, x0, #0x8fd
   85030:	39400000 	ldrb	w0, [x0]
   85034:	6b00003f 	cmp	w1, w0
   85038:	54000541 	b.ne	850e0 <CEcoMemoryAllocator1_4D656D31_QueryInterface+0x504>  // b.any
   8503c:	f94013e0 	ldr	x0, [sp, #32]
   85040:	91003800 	add	x0, x0, #0xe
   85044:	39400001 	ldrb	w1, [x0]
   85048:	d0000440 	adrp	x0, 10f000 <EcoVirtualMemory1Lab_623E1838_MemoryMap+0x7d610>
   8504c:	9123f800 	add	x0, x0, #0x8fe
   85050:	39400000 	ldrb	w0, [x0]
   85054:	6b00003f 	cmp	w1, w0
   85058:	54000441 	b.ne	850e0 <CEcoMemoryAllocator1_4D656D31_QueryInterface+0x504>  // b.any
   8505c:	f94013e0 	ldr	x0, [sp, #32]
   85060:	91003c00 	add	x0, x0, #0xf
   85064:	39400001 	ldrb	w1, [x0]
   85068:	d0000440 	adrp	x0, 10f000 <EcoVirtualMemory1Lab_623E1838_MemoryMap+0x7d610>
   8506c:	9123fc00 	add	x0, x0, #0x8ff
   85070:	39400000 	ldrb	w0, [x0]
   85074:	6b00003f 	cmp	w1, w0
   85078:	54000341 	b.ne	850e0 <CEcoMemoryAllocator1_4D656D31_QueryInterface+0x504>  // b.any
   8507c:	f94013e0 	ldr	x0, [sp, #32]
   85080:	91004000 	add	x0, x0, #0x10
   85084:	39400001 	ldrb	w1, [x0]
   85088:	d0000440 	adrp	x0, 10f000 <EcoVirtualMemory1Lab_623E1838_MemoryMap+0x7d610>
   8508c:	91240000 	add	x0, x0, #0x900
   85090:	39400000 	ldrb	w0, [x0]
   85094:	6b00003f 	cmp	w1, w0
   85098:	54000241 	b.ne	850e0 <CEcoMemoryAllocator1_4D656D31_QueryInterface+0x504>  // b.any
   8509c:	f94013e0 	ldr	x0, [sp, #32]
   850a0:	91004400 	add	x0, x0, #0x11
   850a4:	39400001 	ldrb	w1, [x0]
   850a8:	d0000440 	adrp	x0, 10f000 <EcoVirtualMemory1Lab_623E1838_MemoryMap+0x7d610>
   850ac:	91240400 	add	x0, x0, #0x901
   850b0:	39400000 	ldrb	w0, [x0]
   850b4:	6b00003f 	cmp	w1, w0
   850b8:	54000141 	b.ne	850e0 <CEcoMemoryAllocator1_4D656D31_QueryInterface+0x504>  // b.any
   850bc:	f9401fe1 	ldr	x1, [sp, #56]
   850c0:	f9400fe0 	ldr	x0, [sp, #24]
   850c4:	f9000001 	str	x1, [x0]
   850c8:	f9401fe0 	ldr	x0, [sp, #56]
   850cc:	f9400000 	ldr	x0, [x0]
   850d0:	f9400401 	ldr	x1, [x0, #8]
   850d4:	f9401fe0 	ldr	x0, [sp, #56]
   850d8:	d63f0020 	blr	x1
   850dc:	1400009e 	b	85354 <CEcoMemoryAllocator1_4D656D31_QueryInterface+0x778>
   850e0:	f94013e0 	ldr	x0, [sp, #32]
   850e4:	39400001 	ldrb	w1, [x0]
   850e8:	d0000440 	adrp	x0, 10f000 <EcoVirtualMemory1Lab_623E1838_MemoryMap+0x7d610>
   850ec:	91224000 	add	x0, x0, #0x890
   850f0:	39400000 	ldrb	w0, [x0]
   850f4:	6b00003f 	cmp	w1, w0
   850f8:	54001261 	b.ne	85344 <CEcoMemoryAllocator1_4D656D31_QueryInterface+0x768>  // b.any
   850fc:	f94013e0 	ldr	x0, [sp, #32]
   85100:	91000400 	add	x0, x0, #0x1
   85104:	39400001 	ldrb	w1, [x0]
   85108:	d0000440 	adrp	x0, 10f000 <EcoVirtualMemory1Lab_623E1838_MemoryMap+0x7d610>
   8510c:	91224400 	add	x0, x0, #0x891
   85110:	39400000 	ldrb	w0, [x0]
   85114:	6b00003f 	cmp	w1, w0
   85118:	54001161 	b.ne	85344 <CEcoMemoryAllocator1_4D656D31_QueryInterface+0x768>  // b.any
   8511c:	f94013e0 	ldr	x0, [sp, #32]
   85120:	91000800 	add	x0, x0, #0x2
   85124:	39400001 	ldrb	w1, [x0]
   85128:	d0000440 	adrp	x0, 10f000 <EcoVirtualMemory1Lab_623E1838_MemoryMap+0x7d610>
   8512c:	91224800 	add	x0, x0, #0x892
   85130:	39400000 	ldrb	w0, [x0]
   85134:	6b00003f 	cmp	w1, w0
   85138:	54001061 	b.ne	85344 <CEcoMemoryAllocator1_4D656D31_QueryInterface+0x768>  // b.any
   8513c:	f94013e0 	ldr	x0, [sp, #32]
   85140:	91000c00 	add	x0, x0, #0x3
   85144:	39400001 	ldrb	w1, [x0]
   85148:	d0000440 	adrp	x0, 10f000 <EcoVirtualMemory1Lab_623E1838_MemoryMap+0x7d610>
   8514c:	91224c00 	add	x0, x0, #0x893
   85150:	39400000 	ldrb	w0, [x0]
   85154:	6b00003f 	cmp	w1, w0
   85158:	54000f61 	b.ne	85344 <CEcoMemoryAllocator1_4D656D31_QueryInterface+0x768>  // b.any
   8515c:	f94013e0 	ldr	x0, [sp, #32]
   85160:	91001000 	add	x0, x0, #0x4
   85164:	39400001 	ldrb	w1, [x0]
   85168:	d0000440 	adrp	x0, 10f000 <EcoVirtualMemory1Lab_623E1838_MemoryMap+0x7d610>
   8516c:	91225000 	add	x0, x0, #0x894
   85170:	39400000 	ldrb	w0, [x0]
   85174:	6b00003f 	cmp	w1, w0
   85178:	54000e61 	b.ne	85344 <CEcoMemoryAllocator1_4D656D31_QueryInterface+0x768>  // b.any
   8517c:	f94013e0 	ldr	x0, [sp, #32]
   85180:	91001400 	add	x0, x0, #0x5
   85184:	39400001 	ldrb	w1, [x0]
   85188:	d0000440 	adrp	x0, 10f000 <EcoVirtualMemory1Lab_623E1838_MemoryMap+0x7d610>
   8518c:	91225400 	add	x0, x0, #0x895
   85190:	39400000 	ldrb	w0, [x0]
   85194:	6b00003f 	cmp	w1, w0
   85198:	54000d61 	b.ne	85344 <CEcoMemoryAllocator1_4D656D31_QueryInterface+0x768>  // b.any
   8519c:	f94013e0 	ldr	x0, [sp, #32]
   851a0:	91001800 	add	x0, x0, #0x6
   851a4:	39400001 	ldrb	w1, [x0]
   851a8:	d0000440 	adrp	x0, 10f000 <EcoVirtualMemory1Lab_623E1838_MemoryMap+0x7d610>
   851ac:	91225800 	add	x0, x0, #0x896
   851b0:	39400000 	ldrb	w0, [x0]
   851b4:	6b00003f 	cmp	w1, w0
   851b8:	54000c61 	b.ne	85344 <CEcoMemoryAllocator1_4D656D31_QueryInterface+0x768>  // b.any
   851bc:	f94013e0 	ldr	x0, [sp, #32]
   851c0:	91001c00 	add	x0, x0, #0x7
   851c4:	39400001 	ldrb	w1, [x0]
   851c8:	d0000440 	adrp	x0, 10f000 <EcoVirtualMemory1Lab_623E1838_MemoryMap+0x7d610>
   851cc:	91225c00 	add	x0, x0, #0x897
   851d0:	39400000 	ldrb	w0, [x0]
   851d4:	6b00003f 	cmp	w1, w0
   851d8:	54000b61 	b.ne	85344 <CEcoMemoryAllocator1_4D656D31_QueryInterface+0x768>  // b.any
   851dc:	f94013e0 	ldr	x0, [sp, #32]
   851e0:	91002000 	add	x0, x0, #0x8
   851e4:	39400001 	ldrb	w1, [x0]
   851e8:	d0000440 	adrp	x0, 10f000 <EcoVirtualMemory1Lab_623E1838_MemoryMap+0x7d610>
   851ec:	91226000 	add	x0, x0, #0x898
   851f0:	39400000 	ldrb	w0, [x0]
   851f4:	6b00003f 	cmp	w1, w0
   851f8:	54000a61 	b.ne	85344 <CEcoMemoryAllocator1_4D656D31_QueryInterface+0x768>  // b.any
   851fc:	f94013e0 	ldr	x0, [sp, #32]
   85200:	91002400 	add	x0, x0, #0x9
   85204:	39400001 	ldrb	w1, [x0]
   85208:	d0000440 	adrp	x0, 10f000 <EcoVirtualMemory1Lab_623E1838_MemoryMap+0x7d610>
   8520c:	91226400 	add	x0, x0, #0x899
   85210:	39400000 	ldrb	w0, [x0]
   85214:	6b00003f 	cmp	w1, w0
   85218:	54000961 	b.ne	85344 <CEcoMemoryAllocator1_4D656D31_QueryInterface+0x768>  // b.any
   8521c:	f94013e0 	ldr	x0, [sp, #32]
   85220:	91002800 	add	x0, x0, #0xa
   85224:	39400001 	ldrb	w1, [x0]
   85228:	d0000440 	adrp	x0, 10f000 <EcoVirtualMemory1Lab_623E1838_MemoryMap+0x7d610>
   8522c:	91226800 	add	x0, x0, #0x89a
   85230:	39400000 	ldrb	w0, [x0]
   85234:	6b00003f 	cmp	w1, w0
   85238:	54000861 	b.ne	85344 <CEcoMemoryAllocator1_4D656D31_QueryInterface+0x768>  // b.any
   8523c:	f94013e0 	ldr	x0, [sp, #32]
   85240:	91002c00 	add	x0, x0, #0xb
   85244:	39400001 	ldrb	w1, [x0]
   85248:	d0000440 	adrp	x0, 10f000 <EcoVirtualMemory1Lab_623E1838_MemoryMap+0x7d610>
   8524c:	91226c00 	add	x0, x0, #0x89b
   85250:	39400000 	ldrb	w0, [x0]
   85254:	6b00003f 	cmp	w1, w0
   85258:	54000761 	b.ne	85344 <CEcoMemoryAllocator1_4D656D31_QueryInterface+0x768>  // b.any
   8525c:	f94013e0 	ldr	x0, [sp, #32]
   85260:	91003000 	add	x0, x0, #0xc
   85264:	39400001 	ldrb	w1, [x0]
   85268:	d0000440 	adrp	x0, 10f000 <EcoVirtualMemory1Lab_623E1838_MemoryMap+0x7d610>
   8526c:	91227000 	add	x0, x0, #0x89c
   85270:	39400000 	ldrb	w0, [x0]
   85274:	6b00003f 	cmp	w1, w0
   85278:	54000661 	b.ne	85344 <CEcoMemoryAllocator1_4D656D31_QueryInterface+0x768>  // b.any
   8527c:	f94013e0 	ldr	x0, [sp, #32]
   85280:	91003400 	add	x0, x0, #0xd
   85284:	39400001 	ldrb	w1, [x0]
   85288:	d0000440 	adrp	x0, 10f000 <EcoVirtualMemory1Lab_623E1838_MemoryMap+0x7d610>
   8528c:	91227400 	add	x0, x0, #0x89d
   85290:	39400000 	ldrb	w0, [x0]
   85294:	6b00003f 	cmp	w1, w0
   85298:	54000561 	b.ne	85344 <CEcoMemoryAllocator1_4D656D31_QueryInterface+0x768>  // b.any
   8529c:	f94013e0 	ldr	x0, [sp, #32]
   852a0:	91003800 	add	x0, x0, #0xe
   852a4:	39400001 	ldrb	w1, [x0]
   852a8:	d0000440 	adrp	x0, 10f000 <EcoVirtualMemory1Lab_623E1838_MemoryMap+0x7d610>
   852ac:	91227800 	add	x0, x0, #0x89e
   852b0:	39400000 	ldrb	w0, [x0]
   852b4:	6b00003f 	cmp	w1, w0
   852b8:	54000461 	b.ne	85344 <CEcoMemoryAllocator1_4D656D31_QueryInterface+0x768>  // b.any
   852bc:	f94013e0 	ldr	x0, [sp, #32]
   852c0:	91003c00 	add	x0, x0, #0xf
   852c4:	39400001 	ldrb	w1, [x0]
   852c8:	d0000440 	adrp	x0, 10f000 <EcoVirtualMemory1Lab_623E1838_MemoryMap+0x7d610>
   852cc:	91227c00 	add	x0, x0, #0x89f
   852d0:	39400000 	ldrb	w0, [x0]
   852d4:	6b00003f 	cmp	w1, w0
   852d8:	54000361 	b.ne	85344 <CEcoMemoryAllocator1_4D656D31_QueryInterface+0x768>  // b.any
   852dc:	f94013e0 	ldr	x0, [sp, #32]
   852e0:	91004000 	add	x0, x0, #0x10
   852e4:	39400001 	ldrb	w1, [x0]
   852e8:	d0000440 	adrp	x0, 10f000 <EcoVirtualMemory1Lab_623E1838_MemoryMap+0x7d610>
   852ec:	91228000 	add	x0, x0, #0x8a0
   852f0:	39400000 	ldrb	w0, [x0]
   852f4:	6b00003f 	cmp	w1, w0
   852f8:	54000261 	b.ne	85344 <CEcoMemoryAllocator1_4D656D31_QueryInterface+0x768>  // b.any
   852fc:	f94013e0 	ldr	x0, [sp, #32]
   85300:	91004400 	add	x0, x0, #0x11
   85304:	39400001 	ldrb	w1, [x0]
   85308:	d0000440 	adrp	x0, 10f000 <EcoVirtualMemory1Lab_623E1838_MemoryMap+0x7d610>
   8530c:	91228400 	add	x0, x0, #0x8a1
   85310:	39400000 	ldrb	w0, [x0]
   85314:	6b00003f 	cmp	w1, w0
   85318:	54000161 	b.ne	85344 <CEcoMemoryAllocator1_4D656D31_QueryInterface+0x768>  // b.any
   8531c:	f9401fe0 	ldr	x0, [sp, #56]
   85320:	91002001 	add	x1, x0, #0x8
   85324:	f9400fe0 	ldr	x0, [sp, #24]
   85328:	f9000001 	str	x1, [x0]
   8532c:	f9401fe0 	ldr	x0, [sp, #56]
   85330:	f9400000 	ldr	x0, [x0]
   85334:	f9400401 	ldr	x1, [x0, #8]
   85338:	f9401fe0 	ldr	x0, [sp, #56]
   8533c:	d63f0020 	blr	x1
   85340:	14000005 	b	85354 <CEcoMemoryAllocator1_4D656D31_QueryInterface+0x778>
   85344:	f9400fe0 	ldr	x0, [sp, #24]
   85348:	f900001f 	str	xzr, [x0]
   8534c:	12800000 	mov	w0, #0xffffffff            	// #-1
   85350:	14000002 	b	85358 <CEcoMemoryAllocator1_4D656D31_QueryInterface+0x77c>
   85354:	52800000 	mov	w0, #0x0                   	// #0
   85358:	a8c47bfd 	ldp	x29, x30, [sp], #64
   8535c:	d65f03c0 	ret

0000000000085360 <CEcoMemoryAllocator1_4D656D31_AddRef>:
   85360:	d10083ff 	sub	sp, sp, #0x20
   85364:	f90007e0 	str	x0, [sp, #8]
   85368:	f94007e0 	ldr	x0, [sp, #8]
   8536c:	d1002000 	sub	x0, x0, #0x8
   85370:	f9000fe0 	str	x0, [sp, #24]
   85374:	f94007e0 	ldr	x0, [sp, #8]
   85378:	f100001f 	cmp	x0, #0x0
   8537c:	54000061 	b.ne	85388 <CEcoMemoryAllocator1_4D656D31_AddRef+0x28>  // b.any
   85380:	12800000 	mov	w0, #0xffffffff            	// #-1
   85384:	14000008 	b	853a4 <CEcoMemoryAllocator1_4D656D31_AddRef+0x44>
   85388:	f9400fe0 	ldr	x0, [sp, #24]
   8538c:	b9401000 	ldr	w0, [x0, #16]
   85390:	11000401 	add	w1, w0, #0x1
   85394:	f9400fe0 	ldr	x0, [sp, #24]
   85398:	b9001001 	str	w1, [x0, #16]
   8539c:	f9400fe0 	ldr	x0, [sp, #24]
   853a0:	b9401000 	ldr	w0, [x0, #16]
   853a4:	910083ff 	add	sp, sp, #0x20
   853a8:	d65f03c0 	ret

00000000000853ac <CEcoMemoryAllocator1_4D656D31_Release>:
   853ac:	a9bd7bfd 	stp	x29, x30, [sp, #-48]!
   853b0:	910003fd 	mov	x29, sp
   853b4:	f9000fe0 	str	x0, [sp, #24]
   853b8:	f9400fe0 	ldr	x0, [sp, #24]
   853bc:	d1002000 	sub	x0, x0, #0x8
   853c0:	f90017e0 	str	x0, [sp, #40]
   853c4:	f9400fe0 	ldr	x0, [sp, #24]
   853c8:	f100001f 	cmp	x0, #0x0
   853cc:	54000061 	b.ne	853d8 <CEcoMemoryAllocator1_4D656D31_Release+0x2c>  // b.any
   853d0:	12800000 	mov	w0, #0xffffffff            	// #-1
   853d4:	14000010 	b	85414 <CEcoMemoryAllocator1_4D656D31_Release+0x68>
   853d8:	f94017e0 	ldr	x0, [sp, #40]
   853dc:	b9401000 	ldr	w0, [x0, #16]
   853e0:	51000401 	sub	w1, w0, #0x1
   853e4:	f94017e0 	ldr	x0, [sp, #40]
   853e8:	b9001001 	str	w1, [x0, #16]
   853ec:	f94017e0 	ldr	x0, [sp, #40]
   853f0:	b9401000 	ldr	w0, [x0, #16]
   853f4:	7100001f 	cmp	w0, #0x0
   853f8:	540000a1 	b.ne	8540c <CEcoMemoryAllocator1_4D656D31_Release+0x60>  // b.any
   853fc:	f94017e0 	ldr	x0, [sp, #40]
   85400:	97fffde7 	bl	84b9c <deleteCEcoMemoryManager1_4D656D31>
   85404:	52800000 	mov	w0, #0x0                   	// #0
   85408:	14000003 	b	85414 <CEcoMemoryAllocator1_4D656D31_Release+0x68>
   8540c:	f94017e0 	ldr	x0, [sp, #40]
   85410:	b9401000 	ldr	w0, [x0, #16]
   85414:	a8c37bfd 	ldp	x29, x30, [sp], #48
   85418:	d65f03c0 	ret

000000000008541c <CEcoMemoryAllocator1_4D656D31_Alloc>:
   8541c:	d10183ff 	sub	sp, sp, #0x60
   85420:	f90007e0 	str	x0, [sp, #8]
   85424:	b90007e1 	str	w1, [sp, #4]
   85428:	f94007e0 	ldr	x0, [sp, #8]
   8542c:	d1002000 	sub	x0, x0, #0x8
   85430:	f9001be0 	str	x0, [sp, #48]
   85434:	b94007e0 	ldr	w0, [sp, #4]
   85438:	12000400 	and	w0, w0, #0x3
   8543c:	7100001f 	cmp	w0, #0x0
   85440:	540000c0 	b.eq	85458 <CEcoMemoryAllocator1_4D656D31_Alloc+0x3c>  // b.none
   85444:	b94007e0 	ldr	w0, [sp, #4]
   85448:	12000400 	and	w0, w0, #0x3
   8544c:	52800081 	mov	w1, #0x4                   	// #4
   85450:	4b000020 	sub	w0, w1, w0
   85454:	14000002 	b	8545c <CEcoMemoryAllocator1_4D656D31_Alloc+0x40>
   85458:	52800000 	mov	w0, #0x0                   	// #0
   8545c:	b94007e1 	ldr	w1, [sp, #4]
   85460:	0b010000 	add	w0, w0, w1
   85464:	b9002fe0 	str	w0, [sp, #44]
   85468:	f9401be0 	ldr	x0, [sp, #48]
   8546c:	b9403000 	ldr	w0, [x0, #48]
   85470:	11000401 	add	w1, w0, #0x1
   85474:	f9401be0 	ldr	x0, [sp, #48]
   85478:	b9003001 	str	w1, [x0, #48]
   8547c:	b9003fff 	str	wzr, [sp, #60]
   85480:	f9401be0 	ldr	x0, [sp, #48]
   85484:	f9401400 	ldr	x0, [x0, #40]
   85488:	f9002fe0 	str	x0, [sp, #88]
   8548c:	f9002bff 	str	xzr, [sp, #80]
   85490:	14000037 	b	8556c <CEcoMemoryAllocator1_4D656D31_Alloc+0x150>
   85494:	f9402fe0 	ldr	x0, [sp, #88]
   85498:	b9400000 	ldr	w0, [x0]
   8549c:	b9402fe1 	ldr	w1, [sp, #44]
   854a0:	6b00003f 	cmp	w1, w0
   854a4:	54000588 	b.hi	85554 <CEcoMemoryAllocator1_4D656D31_Alloc+0x138>  // b.pmore
   854a8:	f9402fe0 	ldr	x0, [sp, #88]
   854ac:	b9400000 	ldr	w0, [x0]
   854b0:	b9402fe1 	ldr	w1, [sp, #44]
   854b4:	6b00003f 	cmp	w1, w0
   854b8:	540002e1 	b.ne	85514 <CEcoMemoryAllocator1_4D656D31_Alloc+0xf8>  // b.any
   854bc:	f9402be0 	ldr	x0, [sp, #80]
   854c0:	f100001f 	cmp	x0, #0x0
   854c4:	540000c0 	b.eq	854dc <CEcoMemoryAllocator1_4D656D31_Alloc+0xc0>  // b.none
   854c8:	f9402fe0 	ldr	x0, [sp, #88]
   854cc:	f9400401 	ldr	x1, [x0, #8]
   854d0:	f9402be0 	ldr	x0, [sp, #80]
   854d4:	f9000401 	str	x1, [x0, #8]
   854d8:	14000005 	b	854ec <CEcoMemoryAllocator1_4D656D31_Alloc+0xd0>
   854dc:	f9402fe0 	ldr	x0, [sp, #88]
   854e0:	f9400401 	ldr	x1, [x0, #8]
   854e4:	f9401be0 	ldr	x0, [sp, #48]
   854e8:	f9001401 	str	x1, [x0, #40]
   854ec:	f9401be0 	ldr	x0, [sp, #48]
   854f0:	b9403801 	ldr	w1, [x0, #56]
   854f4:	f9402fe0 	ldr	x0, [sp, #88]
   854f8:	b9400000 	ldr	w0, [x0]
   854fc:	0b000021 	add	w1, w1, w0
   85500:	f9401be0 	ldr	x0, [sp, #48]
   85504:	b9003801 	str	w1, [x0, #56]
   85508:	f9402fe0 	ldr	x0, [sp, #88]
   8550c:	91002000 	add	x0, x0, #0x8
   85510:	1400008d 	b	85744 <CEcoMemoryAllocator1_4D656D31_Alloc+0x328>
   85514:	b9403fe0 	ldr	w0, [sp, #60]
   85518:	7100001f 	cmp	w0, #0x0
   8551c:	540000c0 	b.eq	85534 <CEcoMemoryAllocator1_4D656D31_Alloc+0x118>  // b.none
   85520:	f9402fe0 	ldr	x0, [sp, #88]
   85524:	b9400000 	ldr	w0, [x0]
   85528:	b9403fe1 	ldr	w1, [sp, #60]
   8552c:	6b00003f 	cmp	w1, w0
   85530:	54000149 	b.ls	85558 <CEcoMemoryAllocator1_4D656D31_Alloc+0x13c>  // b.plast
   85534:	f9402fe0 	ldr	x0, [sp, #88]
   85538:	b9400000 	ldr	w0, [x0]
   8553c:	b9003fe0 	str	w0, [sp, #60]
   85540:	f9402fe0 	ldr	x0, [sp, #88]
   85544:	f90027e0 	str	x0, [sp, #72]
   85548:	f9402be0 	ldr	x0, [sp, #80]
   8554c:	f90023e0 	str	x0, [sp, #64]
   85550:	14000002 	b	85558 <CEcoMemoryAllocator1_4D656D31_Alloc+0x13c>
   85554:	d503201f 	nop
   85558:	f9402fe0 	ldr	x0, [sp, #88]
   8555c:	f9002be0 	str	x0, [sp, #80]
   85560:	f9402fe0 	ldr	x0, [sp, #88]
   85564:	f9400400 	ldr	x0, [x0, #8]
   85568:	f9002fe0 	str	x0, [sp, #88]
   8556c:	f9402fe0 	ldr	x0, [sp, #88]
   85570:	f100001f 	cmp	x0, #0x0
   85574:	54fff901 	b.ne	85494 <CEcoMemoryAllocator1_4D656D31_Alloc+0x78>  // b.any
   85578:	b9403fe0 	ldr	w0, [sp, #60]
   8557c:	7100001f 	cmp	w0, #0x0
   85580:	54000720 	b.eq	85664 <CEcoMemoryAllocator1_4D656D31_Alloc+0x248>  // b.none
   85584:	b9403fe1 	ldr	w1, [sp, #60]
   85588:	b9402fe0 	ldr	w0, [sp, #44]
   8558c:	4b000020 	sub	w0, w1, w0
   85590:	71003c1f 	cmp	w0, #0xf
   85594:	540002e8 	b.hi	855f0 <CEcoMemoryAllocator1_4D656D31_Alloc+0x1d4>  // b.pmore
   85598:	f94023e0 	ldr	x0, [sp, #64]
   8559c:	f100001f 	cmp	x0, #0x0
   855a0:	540000c0 	b.eq	855b8 <CEcoMemoryAllocator1_4D656D31_Alloc+0x19c>  // b.none
   855a4:	f94027e0 	ldr	x0, [sp, #72]
   855a8:	f9400401 	ldr	x1, [x0, #8]
   855ac:	f94023e0 	ldr	x0, [sp, #64]
   855b0:	f9000401 	str	x1, [x0, #8]
   855b4:	14000005 	b	855c8 <CEcoMemoryAllocator1_4D656D31_Alloc+0x1ac>
   855b8:	f94027e0 	ldr	x0, [sp, #72]
   855bc:	f9400401 	ldr	x1, [x0, #8]
   855c0:	f9401be0 	ldr	x0, [sp, #48]
   855c4:	f9001401 	str	x1, [x0, #40]
   855c8:	f9401be0 	ldr	x0, [sp, #48]
   855cc:	b9403801 	ldr	w1, [x0, #56]
   855d0:	f94027e0 	ldr	x0, [sp, #72]
   855d4:	b9400000 	ldr	w0, [x0]
   855d8:	0b000021 	add	w1, w1, w0
   855dc:	f9401be0 	ldr	x0, [sp, #48]
   855e0:	b9003801 	str	w1, [x0, #56]
   855e4:	f94027e0 	ldr	x0, [sp, #72]
   855e8:	91002000 	add	x0, x0, #0x8
   855ec:	14000056 	b	85744 <CEcoMemoryAllocator1_4D656D31_Alloc+0x328>
   855f0:	f94027e0 	ldr	x0, [sp, #72]
   855f4:	f90013e0 	str	x0, [sp, #32]
   855f8:	b9403fe1 	ldr	w1, [sp, #60]
   855fc:	b9402fe0 	ldr	w0, [sp, #44]
   85600:	4b000020 	sub	w0, w1, w0
   85604:	b9003fe0 	str	w0, [sp, #60]
   85608:	b9403fe0 	ldr	w0, [sp, #60]
   8560c:	f94013e1 	ldr	x1, [sp, #32]
   85610:	8b000020 	add	x0, x1, x0
   85614:	f90013e0 	str	x0, [sp, #32]
   85618:	f94013e0 	ldr	x0, [sp, #32]
   8561c:	f90023e0 	str	x0, [sp, #64]
   85620:	f94023e0 	ldr	x0, [sp, #64]
   85624:	b9402fe1 	ldr	w1, [sp, #44]
   85628:	b9000001 	str	w1, [x0]
   8562c:	b9403fe0 	ldr	w0, [sp, #60]
   85630:	51001001 	sub	w1, w0, #0x4
   85634:	f94027e0 	ldr	x0, [sp, #72]
   85638:	b9000001 	str	w1, [x0]
   8563c:	f9401be0 	ldr	x0, [sp, #48]
   85640:	b9403801 	ldr	w1, [x0, #56]
   85644:	f94023e0 	ldr	x0, [sp, #64]
   85648:	b9400000 	ldr	w0, [x0]
   8564c:	0b000021 	add	w1, w1, w0
   85650:	f9401be0 	ldr	x0, [sp, #48]
   85654:	b9003801 	str	w1, [x0, #56]
   85658:	f94023e0 	ldr	x0, [sp, #64]
   8565c:	91002000 	add	x0, x0, #0x8
   85660:	14000039 	b	85744 <CEcoMemoryAllocator1_4D656D31_Alloc+0x328>
   85664:	f9401be0 	ldr	x0, [sp, #48]
   85668:	f9402400 	ldr	x0, [x0, #72]
   8566c:	f100001f 	cmp	x0, #0x0
   85670:	540000a1 	b.ne	85684 <CEcoMemoryAllocator1_4D656D31_Alloc+0x268>  // b.any
   85674:	f9401be0 	ldr	x0, [sp, #48]
   85678:	f9402001 	ldr	x1, [x0, #64]
   8567c:	f9401be0 	ldr	x0, [sp, #48]
   85680:	f9002401 	str	x1, [x0, #72]
   85684:	f9401be0 	ldr	x0, [sp, #48]
   85688:	f9402800 	ldr	x0, [x0, #80]
   8568c:	f90013e0 	str	x0, [sp, #32]
   85690:	f9401be0 	ldr	x0, [sp, #48]
   85694:	f9402400 	ldr	x0, [x0, #72]
   85698:	f94013e1 	ldr	x1, [sp, #32]
   8569c:	eb00003f 	cmp	x1, x0
   856a0:	54000068 	b.hi	856ac <CEcoMemoryAllocator1_4D656D31_Alloc+0x290>  // b.pmore
   856a4:	d2800000 	mov	x0, #0x0                   	// #0
   856a8:	14000027 	b	85744 <CEcoMemoryAllocator1_4D656D31_Alloc+0x328>
   856ac:	f9401be0 	ldr	x0, [sp, #48]
   856b0:	f9402400 	ldr	x0, [x0, #72]
   856b4:	f94013e1 	ldr	x1, [sp, #32]
   856b8:	cb000020 	sub	x0, x1, x0
   856bc:	b9001fe0 	str	w0, [sp, #28]
   856c0:	b9401fe1 	ldr	w1, [sp, #28]
   856c4:	b9402fe0 	ldr	w0, [sp, #44]
   856c8:	6b00003f 	cmp	w1, w0
   856cc:	540003a3 	b.cc	85740 <CEcoMemoryAllocator1_4D656D31_Alloc+0x324>  // b.lo, b.ul, b.last
   856d0:	b9401fe1 	ldr	w1, [sp, #28]
   856d4:	b9402fe0 	ldr	w0, [sp, #44]
   856d8:	91001000 	add	x0, x0, #0x4
   856dc:	eb00003f 	cmp	x1, x0
   856e0:	54000303 	b.cc	85740 <CEcoMemoryAllocator1_4D656D31_Alloc+0x324>  // b.lo, b.ul, b.last
   856e4:	f9401be0 	ldr	x0, [sp, #48]
   856e8:	f9402400 	ldr	x0, [x0, #72]
   856ec:	f9002fe0 	str	x0, [sp, #88]
   856f0:	f9401be0 	ldr	x0, [sp, #48]
   856f4:	f9402401 	ldr	x1, [x0, #72]
   856f8:	b9402fe0 	ldr	w0, [sp, #44]
   856fc:	91001000 	add	x0, x0, #0x4
   85700:	8b000021 	add	x1, x1, x0
   85704:	f9401be0 	ldr	x0, [sp, #48]
   85708:	f9002401 	str	x1, [x0, #72]
   8570c:	f9402fe0 	ldr	x0, [sp, #88]
   85710:	b9402fe1 	ldr	w1, [sp, #44]
   85714:	b9000001 	str	w1, [x0]
   85718:	f9401be0 	ldr	x0, [sp, #48]
   8571c:	b9403801 	ldr	w1, [x0, #56]
   85720:	f9402fe0 	ldr	x0, [sp, #88]
   85724:	b9400000 	ldr	w0, [x0]
   85728:	0b000021 	add	w1, w1, w0
   8572c:	f9401be0 	ldr	x0, [sp, #48]
   85730:	b9003801 	str	w1, [x0, #56]
   85734:	f9402fe0 	ldr	x0, [sp, #88]
   85738:	91002000 	add	x0, x0, #0x8
   8573c:	14000002 	b	85744 <CEcoMemoryAllocator1_4D656D31_Alloc+0x328>
   85740:	d2800000 	mov	x0, #0x0                   	// #0
   85744:	910183ff 	add	sp, sp, #0x60
   85748:	d65f03c0 	ret

000000000008574c <CEcoMemoryAllocator1_4D656D31_Free>:
   8574c:	d10143ff 	sub	sp, sp, #0x50
   85750:	f90007e0 	str	x0, [sp, #8]
   85754:	f90003e1 	str	x1, [sp]
   85758:	f94007e0 	ldr	x0, [sp, #8]
   8575c:	d1002000 	sub	x0, x0, #0x8
   85760:	f9001be0 	str	x0, [sp, #48]
   85764:	f94003e0 	ldr	x0, [sp]
   85768:	f100001f 	cmp	x0, #0x0
   8576c:	54001420 	b.eq	859f0 <CEcoMemoryAllocator1_4D656D31_Free+0x2a4>  // b.none
   85770:	f9401be0 	ldr	x0, [sp, #48]
   85774:	b9403000 	ldr	w0, [x0, #48]
   85778:	51000401 	sub	w1, w0, #0x1
   8577c:	f9401be0 	ldr	x0, [sp, #48]
   85780:	b9003001 	str	w1, [x0, #48]
   85784:	f94003e0 	ldr	x0, [sp]
   85788:	f90017e0 	str	x0, [sp, #40]
   8578c:	f94017e0 	ldr	x0, [sp, #40]
   85790:	d1001000 	sub	x0, x0, #0x4
   85794:	f90017e0 	str	x0, [sp, #40]
   85798:	f94017e0 	ldr	x0, [sp, #40]
   8579c:	f90013e0 	str	x0, [sp, #32]
   857a0:	f9401be0 	ldr	x0, [sp, #48]
   857a4:	b9403801 	ldr	w1, [x0, #56]
   857a8:	f94013e0 	ldr	x0, [sp, #32]
   857ac:	b9400000 	ldr	w0, [x0]
   857b0:	4b000021 	sub	w1, w1, w0
   857b4:	f9401be0 	ldr	x0, [sp, #48]
   857b8:	b9003801 	str	w1, [x0, #56]
   857bc:	f94013e0 	ldr	x0, [sp, #32]
   857c0:	f900041f 	str	xzr, [x0, #8]
   857c4:	f9401be0 	ldr	x0, [sp, #48]
   857c8:	f9401400 	ldr	x0, [x0, #40]
   857cc:	f100001f 	cmp	x0, #0x0
   857d0:	54000241 	b.ne	85818 <CEcoMemoryAllocator1_4D656D31_Free+0xcc>  // b.any
   857d4:	f94013e0 	ldr	x0, [sp, #32]
   857d8:	b9400000 	ldr	w0, [x0]
   857dc:	2a0003e0 	mov	w0, w0
   857e0:	f94003e1 	ldr	x1, [sp]
   857e4:	8b000021 	add	x1, x1, x0
   857e8:	f9401be0 	ldr	x0, [sp, #48]
   857ec:	f9402400 	ldr	x0, [x0, #72]
   857f0:	eb00003f 	cmp	x1, x0
   857f4:	540000a1 	b.ne	85808 <CEcoMemoryAllocator1_4D656D31_Free+0xbc>  // b.any
   857f8:	f9401be0 	ldr	x0, [sp, #48]
   857fc:	f94017e1 	ldr	x1, [sp, #40]
   85800:	f9002401 	str	x1, [x0, #72]
   85804:	1400007c 	b	859f4 <CEcoMemoryAllocator1_4D656D31_Free+0x2a8>
   85808:	f9401be0 	ldr	x0, [sp, #48]
   8580c:	f94013e1 	ldr	x1, [sp, #32]
   85810:	f9001401 	str	x1, [x0, #40]
   85814:	14000078 	b	859f4 <CEcoMemoryAllocator1_4D656D31_Free+0x2a8>
   85818:	f9401be0 	ldr	x0, [sp, #48]
   8581c:	f9401400 	ldr	x0, [x0, #40]
   85820:	f90027e0 	str	x0, [sp, #72]
   85824:	f90023ff 	str	xzr, [sp, #64]
   85828:	1400002c 	b	858d8 <CEcoMemoryAllocator1_4D656D31_Free+0x18c>
   8582c:	f94027e1 	ldr	x1, [sp, #72]
   85830:	f94013e0 	ldr	x0, [sp, #32]
   85834:	eb00003f 	cmp	x1, x0
   85838:	54000443 	b.cc	858c0 <CEcoMemoryAllocator1_4D656D31_Free+0x174>  // b.lo, b.ul, b.last
   8583c:	f94027e0 	ldr	x0, [sp, #72]
   85840:	f9000fe0 	str	x0, [sp, #24]
   85844:	f94013e0 	ldr	x0, [sp, #32]
   85848:	f94027e1 	ldr	x1, [sp, #72]
   8584c:	f9000401 	str	x1, [x0, #8]
   85850:	f94013e0 	ldr	x0, [sp, #32]
   85854:	91002001 	add	x1, x0, #0x8
   85858:	f94013e0 	ldr	x0, [sp, #32]
   8585c:	b9400000 	ldr	w0, [x0]
   85860:	2a0003e0 	mov	w0, w0
   85864:	8b000020 	add	x0, x1, x0
   85868:	f9400fe1 	ldr	x1, [sp, #24]
   8586c:	eb00003f 	cmp	x1, x0
   85870:	540001a1 	b.ne	858a4 <CEcoMemoryAllocator1_4D656D31_Free+0x158>  // b.any
   85874:	f94013e0 	ldr	x0, [sp, #32]
   85878:	b9400001 	ldr	w1, [x0]
   8587c:	f94027e0 	ldr	x0, [sp, #72]
   85880:	b9400000 	ldr	w0, [x0]
   85884:	0b000020 	add	w0, w1, w0
   85888:	11001001 	add	w1, w0, #0x4
   8588c:	f94013e0 	ldr	x0, [sp, #32]
   85890:	b9000001 	str	w1, [x0]
   85894:	f94027e0 	ldr	x0, [sp, #72]
   85898:	f9400401 	ldr	x1, [x0, #8]
   8589c:	f94013e0 	ldr	x0, [sp, #32]
   858a0:	f9000401 	str	x1, [x0, #8]
   858a4:	f94023e0 	ldr	x0, [sp, #64]
   858a8:	f100001f 	cmp	x0, #0x0
   858ac:	540001e1 	b.ne	858e8 <CEcoMemoryAllocator1_4D656D31_Free+0x19c>  // b.any
   858b0:	f9401be0 	ldr	x0, [sp, #48]
   858b4:	f94013e1 	ldr	x1, [sp, #32]
   858b8:	f9001401 	str	x1, [x0, #40]
   858bc:	1400004e 	b	859f4 <CEcoMemoryAllocator1_4D656D31_Free+0x2a8>
   858c0:	d503201f 	nop
   858c4:	f94027e0 	ldr	x0, [sp, #72]
   858c8:	f90023e0 	str	x0, [sp, #64]
   858cc:	f94027e0 	ldr	x0, [sp, #72]
   858d0:	f9400400 	ldr	x0, [x0, #8]
   858d4:	f90027e0 	str	x0, [sp, #72]
   858d8:	f94027e0 	ldr	x0, [sp, #72]
   858dc:	f100001f 	cmp	x0, #0x0
   858e0:	54fffa61 	b.ne	8582c <CEcoMemoryAllocator1_4D656D31_Free+0xe0>  // b.any
   858e4:	14000002 	b	858ec <CEcoMemoryAllocator1_4D656D31_Free+0x1a0>
   858e8:	d503201f 	nop
   858ec:	f94023e0 	ldr	x0, [sp, #64]
   858f0:	f94013e1 	ldr	x1, [sp, #32]
   858f4:	f9000401 	str	x1, [x0, #8]
   858f8:	f94023e0 	ldr	x0, [sp, #64]
   858fc:	91002000 	add	x0, x0, #0x8
   85900:	f9001fe0 	str	x0, [sp, #56]
   85904:	f94023e0 	ldr	x0, [sp, #64]
   85908:	b9400000 	ldr	w0, [x0]
   8590c:	2a0003e0 	mov	w0, w0
   85910:	f9401fe1 	ldr	x1, [sp, #56]
   85914:	8b000020 	add	x0, x1, x0
   85918:	f94017e1 	ldr	x1, [sp, #40]
   8591c:	eb00003f 	cmp	x1, x0
   85920:	540001a1 	b.ne	85954 <CEcoMemoryAllocator1_4D656D31_Free+0x208>  // b.any
   85924:	f94023e0 	ldr	x0, [sp, #64]
   85928:	b9400001 	ldr	w1, [x0]
   8592c:	f94013e0 	ldr	x0, [sp, #32]
   85930:	b9400000 	ldr	w0, [x0]
   85934:	0b000020 	add	w0, w1, w0
   85938:	11001001 	add	w1, w0, #0x4
   8593c:	f94023e0 	ldr	x0, [sp, #64]
   85940:	b9000001 	str	w1, [x0]
   85944:	f94013e0 	ldr	x0, [sp, #32]
   85948:	f9400401 	ldr	x1, [x0, #8]
   8594c:	f94023e0 	ldr	x0, [sp, #64]
   85950:	f9000401 	str	x1, [x0, #8]
   85954:	f9401be0 	ldr	x0, [sp, #48]
   85958:	f9401400 	ldr	x0, [x0, #40]
   8595c:	f90027e0 	str	x0, [sp, #72]
   85960:	f90023ff 	str	xzr, [sp, #64]
   85964:	14000009 	b	85988 <CEcoMemoryAllocator1_4D656D31_Free+0x23c>
   85968:	f94027e0 	ldr	x0, [sp, #72]
   8596c:	91002000 	add	x0, x0, #0x8
   85970:	f9001fe0 	str	x0, [sp, #56]
   85974:	f94027e0 	ldr	x0, [sp, #72]
   85978:	f90023e0 	str	x0, [sp, #64]
   8597c:	f94027e0 	ldr	x0, [sp, #72]
   85980:	f9400400 	ldr	x0, [x0, #8]
   85984:	f90027e0 	str	x0, [sp, #72]
   85988:	f94027e0 	ldr	x0, [sp, #72]
   8598c:	f9400400 	ldr	x0, [x0, #8]
   85990:	f100001f 	cmp	x0, #0x0
   85994:	54fffea1 	b.ne	85968 <CEcoMemoryAllocator1_4D656D31_Free+0x21c>  // b.any
   85998:	f94027e0 	ldr	x0, [sp, #72]
   8599c:	b9400000 	ldr	w0, [x0]
   859a0:	2a0003e0 	mov	w0, w0
   859a4:	f9401fe1 	ldr	x1, [sp, #56]
   859a8:	8b000021 	add	x1, x1, x0
   859ac:	f9401be0 	ldr	x0, [sp, #48]
   859b0:	f9402400 	ldr	x0, [x0, #72]
   859b4:	eb00003f 	cmp	x1, x0
   859b8:	540001e1 	b.ne	859f4 <CEcoMemoryAllocator1_4D656D31_Free+0x2a8>  // b.any
   859bc:	f94023e0 	ldr	x0, [sp, #64]
   859c0:	f100001f 	cmp	x0, #0x0
   859c4:	54000081 	b.ne	859d4 <CEcoMemoryAllocator1_4D656D31_Free+0x288>  // b.any
   859c8:	f9401be0 	ldr	x0, [sp, #48]
   859cc:	f900141f 	str	xzr, [x0, #40]
   859d0:	14000003 	b	859dc <CEcoMemoryAllocator1_4D656D31_Free+0x290>
   859d4:	f94023e0 	ldr	x0, [sp, #64]
   859d8:	f900041f 	str	xzr, [x0, #8]
   859dc:	f9401fe0 	ldr	x0, [sp, #56]
   859e0:	d1001001 	sub	x1, x0, #0x4
   859e4:	f9401be0 	ldr	x0, [sp, #48]
   859e8:	f9002401 	str	x1, [x0, #72]
   859ec:	14000002 	b	859f4 <CEcoMemoryAllocator1_4D656D31_Free+0x2a8>
   859f0:	d503201f 	nop
   859f4:	910143ff 	add	sp, sp, #0x50
   859f8:	d65f03c0 	ret

00000000000859fc <CEcoMemoryAllocator1_4D656D31_Realloc>:
   859fc:	a9bb7bfd 	stp	x29, x30, [sp, #-80]!
   85a00:	910003fd 	mov	x29, sp
   85a04:	f90017e0 	str	x0, [sp, #40]
   85a08:	f90013e1 	str	x1, [sp, #32]
   85a0c:	b9001fe2 	str	w2, [sp, #28]
   85a10:	f90027ff 	str	xzr, [sp, #72]
   85a14:	b90047ff 	str	wzr, [sp, #68]
   85a18:	f94013e0 	ldr	x0, [sp, #32]
   85a1c:	f9001fe0 	str	x0, [sp, #56]
   85a20:	f9401fe0 	ldr	x0, [sp, #56]
   85a24:	d1001000 	sub	x0, x0, #0x4
   85a28:	f9001fe0 	str	x0, [sp, #56]
   85a2c:	f9401fe0 	ldr	x0, [sp, #56]
   85a30:	f9001be0 	str	x0, [sp, #48]
   85a34:	f9401be0 	ldr	x0, [sp, #48]
   85a38:	b9400000 	ldr	w0, [x0]
   85a3c:	b90047e0 	str	w0, [sp, #68]
   85a40:	f94017e0 	ldr	x0, [sp, #40]
   85a44:	f100001f 	cmp	x0, #0x0
   85a48:	540004c0 	b.eq	85ae0 <CEcoMemoryAllocator1_4D656D31_Realloc+0xe4>  // b.none
   85a4c:	f94017e0 	ldr	x0, [sp, #40]
   85a50:	f9400000 	ldr	x0, [x0]
   85a54:	f9400c02 	ldr	x2, [x0, #24]
   85a58:	b9401fe1 	ldr	w1, [sp, #28]
   85a5c:	f94017e0 	ldr	x0, [sp, #40]
   85a60:	d63f0040 	blr	x2
   85a64:	f90027e0 	str	x0, [sp, #72]
   85a68:	f94027e0 	ldr	x0, [sp, #72]
   85a6c:	f100001f 	cmp	x0, #0x0
   85a70:	54000380 	b.eq	85ae0 <CEcoMemoryAllocator1_4D656D31_Realloc+0xe4>  // b.none
   85a74:	b94047e1 	ldr	w1, [sp, #68]
   85a78:	b9401fe0 	ldr	w0, [sp, #28]
   85a7c:	6b00003f 	cmp	w1, w0
   85a80:	54000142 	b.cs	85aa8 <CEcoMemoryAllocator1_4D656D31_Realloc+0xac>  // b.hs, b.nlast
   85a84:	f94017e0 	ldr	x0, [sp, #40]
   85a88:	f9400000 	ldr	x0, [x0]
   85a8c:	f9401804 	ldr	x4, [x0, #48]
   85a90:	b94047e3 	ldr	w3, [sp, #68]
   85a94:	f94013e2 	ldr	x2, [sp, #32]
   85a98:	f94027e1 	ldr	x1, [sp, #72]
   85a9c:	f94017e0 	ldr	x0, [sp, #40]
   85aa0:	d63f0080 	blr	x4
   85aa4:	14000009 	b	85ac8 <CEcoMemoryAllocator1_4D656D31_Realloc+0xcc>
   85aa8:	f94017e0 	ldr	x0, [sp, #40]
   85aac:	f9400000 	ldr	x0, [x0]
   85ab0:	f9401804 	ldr	x4, [x0, #48]
   85ab4:	b9401fe3 	ldr	w3, [sp, #28]
   85ab8:	f94013e2 	ldr	x2, [sp, #32]
   85abc:	f94027e1 	ldr	x1, [sp, #72]
   85ac0:	f94017e0 	ldr	x0, [sp, #40]
   85ac4:	d63f0080 	blr	x4
   85ac8:	f94017e0 	ldr	x0, [sp, #40]
   85acc:	f9400000 	ldr	x0, [x0]
   85ad0:	f9401002 	ldr	x2, [x0, #32]
   85ad4:	f94013e1 	ldr	x1, [sp, #32]
   85ad8:	f94017e0 	ldr	x0, [sp, #40]
   85adc:	d63f0040 	blr	x2
   85ae0:	f94027e0 	ldr	x0, [sp, #72]
   85ae4:	a8c57bfd 	ldp	x29, x30, [sp], #80
   85ae8:	d65f03c0 	ret

0000000000085aec <CEcoMemoryAllocator1_4D656D31_Copy>:
   85aec:	d100c3ff 	sub	sp, sp, #0x30
   85af0:	f9000fe0 	str	x0, [sp, #24]
   85af4:	f9000be1 	str	x1, [sp, #16]
   85af8:	f90007e2 	str	x2, [sp, #8]
   85afc:	b90007e3 	str	w3, [sp, #4]
   85b00:	b9002fff 	str	wzr, [sp, #44]
   85b04:	f9400fe0 	ldr	x0, [sp, #24]
   85b08:	f100001f 	cmp	x0, #0x0
   85b0c:	54000240 	b.eq	85b54 <CEcoMemoryAllocator1_4D656D31_Copy+0x68>  // b.none
   85b10:	b9002fff 	str	wzr, [sp, #44]
   85b14:	1400000c 	b	85b44 <CEcoMemoryAllocator1_4D656D31_Copy+0x58>
   85b18:	b9402fe0 	ldr	w0, [sp, #44]
   85b1c:	f94007e1 	ldr	x1, [sp, #8]
   85b20:	8b000021 	add	x1, x1, x0
   85b24:	b9402fe0 	ldr	w0, [sp, #44]
   85b28:	f9400be2 	ldr	x2, [sp, #16]
   85b2c:	8b000040 	add	x0, x2, x0
   85b30:	39400021 	ldrb	w1, [x1]
   85b34:	39000001 	strb	w1, [x0]
   85b38:	b9402fe0 	ldr	w0, [sp, #44]
   85b3c:	11000400 	add	w0, w0, #0x1
   85b40:	b9002fe0 	str	w0, [sp, #44]
   85b44:	b9402fe1 	ldr	w1, [sp, #44]
   85b48:	b94007e0 	ldr	w0, [sp, #4]
   85b4c:	6b00003f 	cmp	w1, w0
   85b50:	54fffe43 	b.cc	85b18 <CEcoMemoryAllocator1_4D656D31_Copy+0x2c>  // b.lo, b.ul, b.last
   85b54:	f9400be0 	ldr	x0, [sp, #16]
   85b58:	9100c3ff 	add	sp, sp, #0x30
   85b5c:	d65f03c0 	ret

0000000000085b60 <CEcoMemoryAllocator1_4D656D31_Fill>:
   85b60:	d100c3ff 	sub	sp, sp, #0x30
   85b64:	f9000fe0 	str	x0, [sp, #24]
   85b68:	f9000be1 	str	x1, [sp, #16]
   85b6c:	39003fe2 	strb	w2, [sp, #15]
   85b70:	b9000be3 	str	w3, [sp, #8]
   85b74:	b9002fff 	str	wzr, [sp, #44]
   85b78:	f9400fe0 	ldr	x0, [sp, #24]
   85b7c:	f100001f 	cmp	x0, #0x0
   85b80:	540001e0 	b.eq	85bbc <CEcoMemoryAllocator1_4D656D31_Fill+0x5c>  // b.none
   85b84:	b9002fff 	str	wzr, [sp, #44]
   85b88:	14000009 	b	85bac <CEcoMemoryAllocator1_4D656D31_Fill+0x4c>
   85b8c:	b9402fe0 	ldr	w0, [sp, #44]
   85b90:	f9400be1 	ldr	x1, [sp, #16]
   85b94:	8b000020 	add	x0, x1, x0
   85b98:	39403fe1 	ldrb	w1, [sp, #15]
   85b9c:	39000001 	strb	w1, [x0]
   85ba0:	b9402fe0 	ldr	w0, [sp, #44]
   85ba4:	11000400 	add	w0, w0, #0x1
   85ba8:	b9002fe0 	str	w0, [sp, #44]
   85bac:	b9402fe1 	ldr	w1, [sp, #44]
   85bb0:	b9400be0 	ldr	w0, [sp, #8]
   85bb4:	6b00003f 	cmp	w1, w0
   85bb8:	54fffea3 	b.cc	85b8c <CEcoMemoryAllocator1_4D656D31_Fill+0x2c>  // b.lo, b.ul, b.last
   85bbc:	f9400be0 	ldr	x0, [sp, #16]
   85bc0:	9100c3ff 	add	sp, sp, #0x30
   85bc4:	d65f03c0 	ret

0000000000085bc8 <CEcoMemoryAllocator1_4D656D31_Compare>:
   85bc8:	d100c3ff 	sub	sp, sp, #0x30
   85bcc:	f9000fe0 	str	x0, [sp, #24]
   85bd0:	f9000be1 	str	x1, [sp, #16]
   85bd4:	f90007e2 	str	x2, [sp, #8]
   85bd8:	b90007e3 	str	w3, [sp, #4]
   85bdc:	12800000 	mov	w0, #0xffffffff            	// #-1
   85be0:	79005fe0 	strh	w0, [sp, #46]
   85be4:	b9002bff 	str	wzr, [sp, #40]
   85be8:	f9400fe0 	ldr	x0, [sp, #24]
   85bec:	f100001f 	cmp	x0, #0x0
   85bf0:	540005e0 	b.eq	85cac <CEcoMemoryAllocator1_4D656D31_Compare+0xe4>  // b.none
   85bf4:	b9002bff 	str	wzr, [sp, #40]
   85bf8:	14000029 	b	85c9c <CEcoMemoryAllocator1_4D656D31_Compare+0xd4>
   85bfc:	b9402be0 	ldr	w0, [sp, #40]
   85c00:	f9400be1 	ldr	x1, [sp, #16]
   85c04:	8b000020 	add	x0, x1, x0
   85c08:	39400001 	ldrb	w1, [x0]
   85c0c:	b9402be0 	ldr	w0, [sp, #40]
   85c10:	f94007e2 	ldr	x2, [sp, #8]
   85c14:	8b000040 	add	x0, x2, x0
   85c18:	39400000 	ldrb	w0, [x0]
   85c1c:	6b00003f 	cmp	w1, w0
   85c20:	54000082 	b.cs	85c30 <CEcoMemoryAllocator1_4D656D31_Compare+0x68>  // b.hs, b.nlast
   85c24:	12800000 	mov	w0, #0xffffffff            	// #-1
   85c28:	79005fe0 	strh	w0, [sp, #46]
   85c2c:	14000020 	b	85cac <CEcoMemoryAllocator1_4D656D31_Compare+0xe4>
   85c30:	b9402be0 	ldr	w0, [sp, #40]
   85c34:	f9400be1 	ldr	x1, [sp, #16]
   85c38:	8b000020 	add	x0, x1, x0
   85c3c:	39400001 	ldrb	w1, [x0]
   85c40:	b9402be0 	ldr	w0, [sp, #40]
   85c44:	f94007e2 	ldr	x2, [sp, #8]
   85c48:	8b000040 	add	x0, x2, x0
   85c4c:	39400000 	ldrb	w0, [x0]
   85c50:	6b00003f 	cmp	w1, w0
   85c54:	54000089 	b.ls	85c64 <CEcoMemoryAllocator1_4D656D31_Compare+0x9c>  // b.plast
   85c58:	52800020 	mov	w0, #0x1                   	// #1
   85c5c:	79005fe0 	strh	w0, [sp, #46]
   85c60:	14000013 	b	85cac <CEcoMemoryAllocator1_4D656D31_Compare+0xe4>
   85c64:	b9402be0 	ldr	w0, [sp, #40]
   85c68:	f9400be1 	ldr	x1, [sp, #16]
   85c6c:	8b000020 	add	x0, x1, x0
   85c70:	39400001 	ldrb	w1, [x0]
   85c74:	b9402be0 	ldr	w0, [sp, #40]
   85c78:	f94007e2 	ldr	x2, [sp, #8]
   85c7c:	8b000040 	add	x0, x2, x0
   85c80:	39400000 	ldrb	w0, [x0]
   85c84:	6b00003f 	cmp	w1, w0
   85c88:	54000041 	b.ne	85c90 <CEcoMemoryAllocator1_4D656D31_Compare+0xc8>  // b.any
   85c8c:	79005fff 	strh	wzr, [sp, #46]
   85c90:	b9402be0 	ldr	w0, [sp, #40]
   85c94:	11000400 	add	w0, w0, #0x1
   85c98:	b9002be0 	str	w0, [sp, #40]
   85c9c:	b9402be1 	ldr	w1, [sp, #40]
   85ca0:	b94007e0 	ldr	w0, [sp, #4]
   85ca4:	6b00003f 	cmp	w1, w0
   85ca8:	54fffaa3 	b.cc	85bfc <CEcoMemoryAllocator1_4D656D31_Compare+0x34>  // b.lo, b.ul, b.last
   85cac:	79c05fe0 	ldrsh	w0, [sp, #46]
   85cb0:	9100c3ff 	add	sp, sp, #0x30
   85cb4:	d65f03c0 	ret

0000000000085cb8 <CEcoIPCCMailbox1Factory_QueryInterface>:
   85cb8:	a9bd7bfd 	stp	x29, x30, [sp, #-48]!
   85cbc:	910003fd 	mov	x29, sp
   85cc0:	f90017e0 	str	x0, [sp, #40]
   85cc4:	f90013e1 	str	x1, [sp, #32]
   85cc8:	f9000fe2 	str	x2, [sp, #24]
   85ccc:	f94013e0 	ldr	x0, [sp, #32]
   85cd0:	39400001 	ldrb	w1, [x0]
   85cd4:	d0000440 	adrp	x0, 10f000 <EcoVirtualMemory1Lab_623E1838_MemoryMap+0x7d610>
   85cd8:	91242000 	add	x0, x0, #0x908
   85cdc:	39400000 	ldrb	w0, [x0]
   85ce0:	6b00003f 	cmp	w1, w0
   85ce4:	54001121 	b.ne	85f08 <CEcoIPCCMailbox1Factory_QueryInterface+0x250>  // b.any
   85ce8:	f94013e0 	ldr	x0, [sp, #32]
   85cec:	91000400 	add	x0, x0, #0x1
   85cf0:	39400001 	ldrb	w1, [x0]
   85cf4:	d0000440 	adrp	x0, 10f000 <EcoVirtualMemory1Lab_623E1838_MemoryMap+0x7d610>
   85cf8:	91242400 	add	x0, x0, #0x909
   85cfc:	39400000 	ldrb	w0, [x0]
   85d00:	6b00003f 	cmp	w1, w0
   85d04:	54001021 	b.ne	85f08 <CEcoIPCCMailbox1Factory_QueryInterface+0x250>  // b.any
   85d08:	f94013e0 	ldr	x0, [sp, #32]
   85d0c:	91000800 	add	x0, x0, #0x2
   85d10:	39400001 	ldrb	w1, [x0]
   85d14:	d0000440 	adrp	x0, 10f000 <EcoVirtualMemory1Lab_623E1838_MemoryMap+0x7d610>
   85d18:	91242800 	add	x0, x0, #0x90a
   85d1c:	39400000 	ldrb	w0, [x0]
   85d20:	6b00003f 	cmp	w1, w0
   85d24:	54000f21 	b.ne	85f08 <CEcoIPCCMailbox1Factory_QueryInterface+0x250>  // b.any
   85d28:	f94013e0 	ldr	x0, [sp, #32]
   85d2c:	91000c00 	add	x0, x0, #0x3
   85d30:	39400001 	ldrb	w1, [x0]
   85d34:	d0000440 	adrp	x0, 10f000 <EcoVirtualMemory1Lab_623E1838_MemoryMap+0x7d610>
   85d38:	91242c00 	add	x0, x0, #0x90b
   85d3c:	39400000 	ldrb	w0, [x0]
   85d40:	6b00003f 	cmp	w1, w0
   85d44:	54000e21 	b.ne	85f08 <CEcoIPCCMailbox1Factory_QueryInterface+0x250>  // b.any
   85d48:	f94013e0 	ldr	x0, [sp, #32]
   85d4c:	91001000 	add	x0, x0, #0x4
   85d50:	39400001 	ldrb	w1, [x0]
   85d54:	d0000440 	adrp	x0, 10f000 <EcoVirtualMemory1Lab_623E1838_MemoryMap+0x7d610>
   85d58:	91243000 	add	x0, x0, #0x90c
   85d5c:	39400000 	ldrb	w0, [x0]
   85d60:	6b00003f 	cmp	w1, w0
   85d64:	54000d21 	b.ne	85f08 <CEcoIPCCMailbox1Factory_QueryInterface+0x250>  // b.any
   85d68:	f94013e0 	ldr	x0, [sp, #32]
   85d6c:	91001400 	add	x0, x0, #0x5
   85d70:	39400001 	ldrb	w1, [x0]
   85d74:	d0000440 	adrp	x0, 10f000 <EcoVirtualMemory1Lab_623E1838_MemoryMap+0x7d610>
   85d78:	91243400 	add	x0, x0, #0x90d
   85d7c:	39400000 	ldrb	w0, [x0]
   85d80:	6b00003f 	cmp	w1, w0
   85d84:	54000c21 	b.ne	85f08 <CEcoIPCCMailbox1Factory_QueryInterface+0x250>  // b.any
   85d88:	f94013e0 	ldr	x0, [sp, #32]
   85d8c:	91001800 	add	x0, x0, #0x6
   85d90:	39400001 	ldrb	w1, [x0]
   85d94:	d0000440 	adrp	x0, 10f000 <EcoVirtualMemory1Lab_623E1838_MemoryMap+0x7d610>
   85d98:	91243800 	add	x0, x0, #0x90e
   85d9c:	39400000 	ldrb	w0, [x0]
   85da0:	6b00003f 	cmp	w1, w0
   85da4:	54000b21 	b.ne	85f08 <CEcoIPCCMailbox1Factory_QueryInterface+0x250>  // b.any
   85da8:	f94013e0 	ldr	x0, [sp, #32]
   85dac:	91001c00 	add	x0, x0, #0x7
   85db0:	39400001 	ldrb	w1, [x0]
   85db4:	d0000440 	adrp	x0, 10f000 <EcoVirtualMemory1Lab_623E1838_MemoryMap+0x7d610>
   85db8:	91243c00 	add	x0, x0, #0x90f
   85dbc:	39400000 	ldrb	w0, [x0]
   85dc0:	6b00003f 	cmp	w1, w0
   85dc4:	54000a21 	b.ne	85f08 <CEcoIPCCMailbox1Factory_QueryInterface+0x250>  // b.any
   85dc8:	f94013e0 	ldr	x0, [sp, #32]
   85dcc:	91002000 	add	x0, x0, #0x8
   85dd0:	39400001 	ldrb	w1, [x0]
   85dd4:	d0000440 	adrp	x0, 10f000 <EcoVirtualMemory1Lab_623E1838_MemoryMap+0x7d610>
   85dd8:	91244000 	add	x0, x0, #0x910
   85ddc:	39400000 	ldrb	w0, [x0]
   85de0:	6b00003f 	cmp	w1, w0
   85de4:	54000921 	b.ne	85f08 <CEcoIPCCMailbox1Factory_QueryInterface+0x250>  // b.any
   85de8:	f94013e0 	ldr	x0, [sp, #32]
   85dec:	91002400 	add	x0, x0, #0x9
   85df0:	39400001 	ldrb	w1, [x0]
   85df4:	d0000440 	adrp	x0, 10f000 <EcoVirtualMemory1Lab_623E1838_MemoryMap+0x7d610>
   85df8:	91244400 	add	x0, x0, #0x911
   85dfc:	39400000 	ldrb	w0, [x0]
   85e00:	6b00003f 	cmp	w1, w0
   85e04:	54000821 	b.ne	85f08 <CEcoIPCCMailbox1Factory_QueryInterface+0x250>  // b.any
   85e08:	f94013e0 	ldr	x0, [sp, #32]
   85e0c:	91002800 	add	x0, x0, #0xa
   85e10:	39400001 	ldrb	w1, [x0]
   85e14:	d0000440 	adrp	x0, 10f000 <EcoVirtualMemory1Lab_623E1838_MemoryMap+0x7d610>
   85e18:	91244800 	add	x0, x0, #0x912
   85e1c:	39400000 	ldrb	w0, [x0]
   85e20:	6b00003f 	cmp	w1, w0
   85e24:	54000721 	b.ne	85f08 <CEcoIPCCMailbox1Factory_QueryInterface+0x250>  // b.any
   85e28:	f94013e0 	ldr	x0, [sp, #32]
   85e2c:	91002c00 	add	x0, x0, #0xb
   85e30:	39400001 	ldrb	w1, [x0]
   85e34:	d0000440 	adrp	x0, 10f000 <EcoVirtualMemory1Lab_623E1838_MemoryMap+0x7d610>
   85e38:	91244c00 	add	x0, x0, #0x913
   85e3c:	39400000 	ldrb	w0, [x0]
   85e40:	6b00003f 	cmp	w1, w0
   85e44:	54000621 	b.ne	85f08 <CEcoIPCCMailbox1Factory_QueryInterface+0x250>  // b.any
   85e48:	f94013e0 	ldr	x0, [sp, #32]
   85e4c:	91003000 	add	x0, x0, #0xc
   85e50:	39400001 	ldrb	w1, [x0]
   85e54:	d0000440 	adrp	x0, 10f000 <EcoVirtualMemory1Lab_623E1838_MemoryMap+0x7d610>
   85e58:	91245000 	add	x0, x0, #0x914
   85e5c:	39400000 	ldrb	w0, [x0]
   85e60:	6b00003f 	cmp	w1, w0
   85e64:	54000521 	b.ne	85f08 <CEcoIPCCMailbox1Factory_QueryInterface+0x250>  // b.any
   85e68:	f94013e0 	ldr	x0, [sp, #32]
   85e6c:	91003400 	add	x0, x0, #0xd
   85e70:	39400001 	ldrb	w1, [x0]
   85e74:	d0000440 	adrp	x0, 10f000 <EcoVirtualMemory1Lab_623E1838_MemoryMap+0x7d610>
   85e78:	91245400 	add	x0, x0, #0x915
   85e7c:	39400000 	ldrb	w0, [x0]
   85e80:	6b00003f 	cmp	w1, w0
   85e84:	54000421 	b.ne	85f08 <CEcoIPCCMailbox1Factory_QueryInterface+0x250>  // b.any
   85e88:	f94013e0 	ldr	x0, [sp, #32]
   85e8c:	91003800 	add	x0, x0, #0xe
   85e90:	39400001 	ldrb	w1, [x0]
   85e94:	d0000440 	adrp	x0, 10f000 <EcoVirtualMemory1Lab_623E1838_MemoryMap+0x7d610>
   85e98:	91245800 	add	x0, x0, #0x916
   85e9c:	39400000 	ldrb	w0, [x0]
   85ea0:	6b00003f 	cmp	w1, w0
   85ea4:	54000321 	b.ne	85f08 <CEcoIPCCMailbox1Factory_QueryInterface+0x250>  // b.any
   85ea8:	f94013e0 	ldr	x0, [sp, #32]
   85eac:	91003c00 	add	x0, x0, #0xf
   85eb0:	39400001 	ldrb	w1, [x0]
   85eb4:	d0000440 	adrp	x0, 10f000 <EcoVirtualMemory1Lab_623E1838_MemoryMap+0x7d610>
   85eb8:	91245c00 	add	x0, x0, #0x917
   85ebc:	39400000 	ldrb	w0, [x0]
   85ec0:	6b00003f 	cmp	w1, w0
   85ec4:	54000221 	b.ne	85f08 <CEcoIPCCMailbox1Factory_QueryInterface+0x250>  // b.any
   85ec8:	f94013e0 	ldr	x0, [sp, #32]
   85ecc:	91004000 	add	x0, x0, #0x10
   85ed0:	39400001 	ldrb	w1, [x0]
   85ed4:	d0000440 	adrp	x0, 10f000 <EcoVirtualMemory1Lab_623E1838_MemoryMap+0x7d610>
   85ed8:	91246000 	add	x0, x0, #0x918
   85edc:	39400000 	ldrb	w0, [x0]
   85ee0:	6b00003f 	cmp	w1, w0
   85ee4:	54000121 	b.ne	85f08 <CEcoIPCCMailbox1Factory_QueryInterface+0x250>  // b.any
   85ee8:	f94013e0 	ldr	x0, [sp, #32]
   85eec:	91004400 	add	x0, x0, #0x11
   85ef0:	39400001 	ldrb	w1, [x0]
   85ef4:	d0000440 	adrp	x0, 10f000 <EcoVirtualMemory1Lab_623E1838_MemoryMap+0x7d610>
   85ef8:	91246400 	add	x0, x0, #0x919
   85efc:	39400000 	ldrb	w0, [x0]
   85f00:	6b00003f 	cmp	w1, w0
   85f04:	54001200 	b.eq	86144 <CEcoIPCCMailbox1Factory_QueryInterface+0x48c>  // b.none
   85f08:	f94013e0 	ldr	x0, [sp, #32]
   85f0c:	39400001 	ldrb	w1, [x0]
   85f10:	d0000440 	adrp	x0, 10f000 <EcoVirtualMemory1Lab_623E1838_MemoryMap+0x7d610>
   85f14:	91248000 	add	x0, x0, #0x920
   85f18:	39400000 	ldrb	w0, [x0]
   85f1c:	6b00003f 	cmp	w1, w0
   85f20:	540012a1 	b.ne	86174 <CEcoIPCCMailbox1Factory_QueryInterface+0x4bc>  // b.any
   85f24:	f94013e0 	ldr	x0, [sp, #32]
   85f28:	91000400 	add	x0, x0, #0x1
   85f2c:	39400001 	ldrb	w1, [x0]
   85f30:	d0000440 	adrp	x0, 10f000 <EcoVirtualMemory1Lab_623E1838_MemoryMap+0x7d610>
   85f34:	91248400 	add	x0, x0, #0x921
   85f38:	39400000 	ldrb	w0, [x0]
   85f3c:	6b00003f 	cmp	w1, w0
   85f40:	540011a1 	b.ne	86174 <CEcoIPCCMailbox1Factory_QueryInterface+0x4bc>  // b.any
   85f44:	f94013e0 	ldr	x0, [sp, #32]
   85f48:	91000800 	add	x0, x0, #0x2
   85f4c:	39400001 	ldrb	w1, [x0]
   85f50:	d0000440 	adrp	x0, 10f000 <EcoVirtualMemory1Lab_623E1838_MemoryMap+0x7d610>
   85f54:	91248800 	add	x0, x0, #0x922
   85f58:	39400000 	ldrb	w0, [x0]
   85f5c:	6b00003f 	cmp	w1, w0
   85f60:	540010a1 	b.ne	86174 <CEcoIPCCMailbox1Factory_QueryInterface+0x4bc>  // b.any
   85f64:	f94013e0 	ldr	x0, [sp, #32]
   85f68:	91000c00 	add	x0, x0, #0x3
   85f6c:	39400001 	ldrb	w1, [x0]
   85f70:	d0000440 	adrp	x0, 10f000 <EcoVirtualMemory1Lab_623E1838_MemoryMap+0x7d610>
   85f74:	91248c00 	add	x0, x0, #0x923
   85f78:	39400000 	ldrb	w0, [x0]
   85f7c:	6b00003f 	cmp	w1, w0
   85f80:	54000fa1 	b.ne	86174 <CEcoIPCCMailbox1Factory_QueryInterface+0x4bc>  // b.any
   85f84:	f94013e0 	ldr	x0, [sp, #32]
   85f88:	91001000 	add	x0, x0, #0x4
   85f8c:	39400001 	ldrb	w1, [x0]
   85f90:	d0000440 	adrp	x0, 10f000 <EcoVirtualMemory1Lab_623E1838_MemoryMap+0x7d610>
   85f94:	91249000 	add	x0, x0, #0x924
   85f98:	39400000 	ldrb	w0, [x0]
   85f9c:	6b00003f 	cmp	w1, w0
   85fa0:	54000ea1 	b.ne	86174 <CEcoIPCCMailbox1Factory_QueryInterface+0x4bc>  // b.any
   85fa4:	f94013e0 	ldr	x0, [sp, #32]
   85fa8:	91001400 	add	x0, x0, #0x5
   85fac:	39400001 	ldrb	w1, [x0]
   85fb0:	d0000440 	adrp	x0, 10f000 <EcoVirtualMemory1Lab_623E1838_MemoryMap+0x7d610>
   85fb4:	91249400 	add	x0, x0, #0x925
   85fb8:	39400000 	ldrb	w0, [x0]
   85fbc:	6b00003f 	cmp	w1, w0
   85fc0:	54000da1 	b.ne	86174 <CEcoIPCCMailbox1Factory_QueryInterface+0x4bc>  // b.any
   85fc4:	f94013e0 	ldr	x0, [sp, #32]
   85fc8:	91001800 	add	x0, x0, #0x6
   85fcc:	39400001 	ldrb	w1, [x0]
   85fd0:	d0000440 	adrp	x0, 10f000 <EcoVirtualMemory1Lab_623E1838_MemoryMap+0x7d610>
   85fd4:	91249800 	add	x0, x0, #0x926
   85fd8:	39400000 	ldrb	w0, [x0]
   85fdc:	6b00003f 	cmp	w1, w0
   85fe0:	54000ca1 	b.ne	86174 <CEcoIPCCMailbox1Factory_QueryInterface+0x4bc>  // b.any
   85fe4:	f94013e0 	ldr	x0, [sp, #32]
   85fe8:	91001c00 	add	x0, x0, #0x7
   85fec:	39400001 	ldrb	w1, [x0]
   85ff0:	d0000440 	adrp	x0, 10f000 <EcoVirtualMemory1Lab_623E1838_MemoryMap+0x7d610>
   85ff4:	91249c00 	add	x0, x0, #0x927
   85ff8:	39400000 	ldrb	w0, [x0]
   85ffc:	6b00003f 	cmp	w1, w0
   86000:	54000ba1 	b.ne	86174 <CEcoIPCCMailbox1Factory_QueryInterface+0x4bc>  // b.any
   86004:	f94013e0 	ldr	x0, [sp, #32]
   86008:	91002000 	add	x0, x0, #0x8
   8600c:	39400001 	ldrb	w1, [x0]
   86010:	b0000440 	adrp	x0, 10f000 <EcoVirtualMemory1Lab_623E1838_MemoryMap+0x7d610>
   86014:	9124a000 	add	x0, x0, #0x928
   86018:	39400000 	ldrb	w0, [x0]
   8601c:	6b00003f 	cmp	w1, w0
   86020:	54000aa1 	b.ne	86174 <CEcoIPCCMailbox1Factory_QueryInterface+0x4bc>  // b.any
   86024:	f94013e0 	ldr	x0, [sp, #32]
   86028:	91002400 	add	x0, x0, #0x9
   8602c:	39400001 	ldrb	w1, [x0]
   86030:	b0000440 	adrp	x0, 10f000 <EcoVirtualMemory1Lab_623E1838_MemoryMap+0x7d610>
   86034:	9124a400 	add	x0, x0, #0x929
   86038:	39400000 	ldrb	w0, [x0]
   8603c:	6b00003f 	cmp	w1, w0
   86040:	540009a1 	b.ne	86174 <CEcoIPCCMailbox1Factory_QueryInterface+0x4bc>  // b.any
   86044:	f94013e0 	ldr	x0, [sp, #32]
   86048:	91002800 	add	x0, x0, #0xa
   8604c:	39400001 	ldrb	w1, [x0]
   86050:	b0000440 	adrp	x0, 10f000 <EcoVirtualMemory1Lab_623E1838_MemoryMap+0x7d610>
   86054:	9124a800 	add	x0, x0, #0x92a
   86058:	39400000 	ldrb	w0, [x0]
   8605c:	6b00003f 	cmp	w1, w0
   86060:	540008a1 	b.ne	86174 <CEcoIPCCMailbox1Factory_QueryInterface+0x4bc>  // b.any
   86064:	f94013e0 	ldr	x0, [sp, #32]
   86068:	91002c00 	add	x0, x0, #0xb
   8606c:	39400001 	ldrb	w1, [x0]
   86070:	b0000440 	adrp	x0, 10f000 <EcoVirtualMemory1Lab_623E1838_MemoryMap+0x7d610>
   86074:	9124ac00 	add	x0, x0, #0x92b
   86078:	39400000 	ldrb	w0, [x0]
   8607c:	6b00003f 	cmp	w1, w0
   86080:	540007a1 	b.ne	86174 <CEcoIPCCMailbox1Factory_QueryInterface+0x4bc>  // b.any
   86084:	f94013e0 	ldr	x0, [sp, #32]
   86088:	91003000 	add	x0, x0, #0xc
   8608c:	39400001 	ldrb	w1, [x0]
   86090:	b0000440 	adrp	x0, 10f000 <EcoVirtualMemory1Lab_623E1838_MemoryMap+0x7d610>
   86094:	9124b000 	add	x0, x0, #0x92c
   86098:	39400000 	ldrb	w0, [x0]
   8609c:	6b00003f 	cmp	w1, w0
   860a0:	540006a1 	b.ne	86174 <CEcoIPCCMailbox1Factory_QueryInterface+0x4bc>  // b.any
   860a4:	f94013e0 	ldr	x0, [sp, #32]
   860a8:	91003400 	add	x0, x0, #0xd
   860ac:	39400001 	ldrb	w1, [x0]
   860b0:	b0000440 	adrp	x0, 10f000 <EcoVirtualMemory1Lab_623E1838_MemoryMap+0x7d610>
   860b4:	9124b400 	add	x0, x0, #0x92d
   860b8:	39400000 	ldrb	w0, [x0]
   860bc:	6b00003f 	cmp	w1, w0
   860c0:	540005a1 	b.ne	86174 <CEcoIPCCMailbox1Factory_QueryInterface+0x4bc>  // b.any
   860c4:	f94013e0 	ldr	x0, [sp, #32]
   860c8:	91003800 	add	x0, x0, #0xe
   860cc:	39400001 	ldrb	w1, [x0]
   860d0:	b0000440 	adrp	x0, 10f000 <EcoVirtualMemory1Lab_623E1838_MemoryMap+0x7d610>
   860d4:	9124b800 	add	x0, x0, #0x92e
   860d8:	39400000 	ldrb	w0, [x0]
   860dc:	6b00003f 	cmp	w1, w0
   860e0:	540004a1 	b.ne	86174 <CEcoIPCCMailbox1Factory_QueryInterface+0x4bc>  // b.any
   860e4:	f94013e0 	ldr	x0, [sp, #32]
   860e8:	91003c00 	add	x0, x0, #0xf
   860ec:	39400001 	ldrb	w1, [x0]
   860f0:	b0000440 	adrp	x0, 10f000 <EcoVirtualMemory1Lab_623E1838_MemoryMap+0x7d610>
   860f4:	9124bc00 	add	x0, x0, #0x92f
   860f8:	39400000 	ldrb	w0, [x0]
   860fc:	6b00003f 	cmp	w1, w0
   86100:	540003a1 	b.ne	86174 <CEcoIPCCMailbox1Factory_QueryInterface+0x4bc>  // b.any
   86104:	f94013e0 	ldr	x0, [sp, #32]
   86108:	91004000 	add	x0, x0, #0x10
   8610c:	39400001 	ldrb	w1, [x0]
   86110:	b0000440 	adrp	x0, 10f000 <EcoVirtualMemory1Lab_623E1838_MemoryMap+0x7d610>
   86114:	9124c000 	add	x0, x0, #0x930
   86118:	39400000 	ldrb	w0, [x0]
   8611c:	6b00003f 	cmp	w1, w0
   86120:	540002a1 	b.ne	86174 <CEcoIPCCMailbox1Factory_QueryInterface+0x4bc>  // b.any
   86124:	f94013e0 	ldr	x0, [sp, #32]
   86128:	91004400 	add	x0, x0, #0x11
   8612c:	39400001 	ldrb	w1, [x0]
   86130:	b0000440 	adrp	x0, 10f000 <EcoVirtualMemory1Lab_623E1838_MemoryMap+0x7d610>
   86134:	9124c400 	add	x0, x0, #0x931
   86138:	39400000 	ldrb	w0, [x0]
   8613c:	6b00003f 	cmp	w1, w0
   86140:	540001a1 	b.ne	86174 <CEcoIPCCMailbox1Factory_QueryInterface+0x4bc>  // b.any
   86144:	f9400fe0 	ldr	x0, [sp, #24]
   86148:	f94017e1 	ldr	x1, [sp, #40]
   8614c:	f9000001 	str	x1, [x0]
   86150:	f9400fe0 	ldr	x0, [sp, #24]
   86154:	f9400000 	ldr	x0, [x0]
   86158:	f9400000 	ldr	x0, [x0]
   8615c:	f9400401 	ldr	x1, [x0, #8]
   86160:	f9400fe0 	ldr	x0, [sp, #24]
   86164:	f9400000 	ldr	x0, [x0]
   86168:	d63f0020 	blr	x1
   8616c:	52800000 	mov	w0, #0x0                   	// #0
   86170:	14000004 	b	86180 <CEcoIPCCMailbox1Factory_QueryInterface+0x4c8>
   86174:	f9400fe0 	ldr	x0, [sp, #24]
   86178:	f900001f 	str	xzr, [x0]
   8617c:	12800000 	mov	w0, #0xffffffff            	// #-1
   86180:	a8c37bfd 	ldp	x29, x30, [sp], #48
   86184:	d65f03c0 	ret

0000000000086188 <CEcoIPCCMailbox1Factory_AddRef>:
   86188:	d10083ff 	sub	sp, sp, #0x20
   8618c:	f90007e0 	str	x0, [sp, #8]
   86190:	f94007e0 	ldr	x0, [sp, #8]
   86194:	f9000fe0 	str	x0, [sp, #24]
   86198:	f94007e0 	ldr	x0, [sp, #8]
   8619c:	f100001f 	cmp	x0, #0x0
   861a0:	54000061 	b.ne	861ac <CEcoIPCCMailbox1Factory_AddRef+0x24>  // b.any
   861a4:	12800000 	mov	w0, #0xffffffff            	// #-1
   861a8:	14000008 	b	861c8 <CEcoIPCCMailbox1Factory_AddRef+0x40>
   861ac:	f9400fe0 	ldr	x0, [sp, #24]
   861b0:	b9400800 	ldr	w0, [x0, #8]
   861b4:	11000401 	add	w1, w0, #0x1
   861b8:	f9400fe0 	ldr	x0, [sp, #24]
   861bc:	b9000801 	str	w1, [x0, #8]
   861c0:	f9400fe0 	ldr	x0, [sp, #24]
   861c4:	b9400800 	ldr	w0, [x0, #8]
   861c8:	910083ff 	add	sp, sp, #0x20
   861cc:	d65f03c0 	ret

00000000000861d0 <CEcoIPCCMailbox1Factory_Release>:
   861d0:	d10083ff 	sub	sp, sp, #0x20
   861d4:	f90007e0 	str	x0, [sp, #8]
   861d8:	f94007e0 	ldr	x0, [sp, #8]
   861dc:	f9000fe0 	str	x0, [sp, #24]
   861e0:	f94007e0 	ldr	x0, [sp, #8]
   861e4:	f100001f 	cmp	x0, #0x0
   861e8:	54000061 	b.ne	861f4 <CEcoIPCCMailbox1Factory_Release+0x24>  // b.any
   861ec:	12800000 	mov	w0, #0xffffffff            	// #-1
   861f0:	1400000e 	b	86228 <CEcoIPCCMailbox1Factory_Release+0x58>
   861f4:	f9400fe0 	ldr	x0, [sp, #24]
   861f8:	b9400800 	ldr	w0, [x0, #8]
   861fc:	51000401 	sub	w1, w0, #0x1
   86200:	f9400fe0 	ldr	x0, [sp, #24]
   86204:	b9000801 	str	w1, [x0, #8]
   86208:	f9400fe0 	ldr	x0, [sp, #24]
   8620c:	b9400800 	ldr	w0, [x0, #8]
   86210:	7100001f 	cmp	w0, #0x0
   86214:	54000061 	b.ne	86220 <CEcoIPCCMailbox1Factory_Release+0x50>  // b.any
   86218:	52800000 	mov	w0, #0x0                   	// #0
   8621c:	14000003 	b	86228 <CEcoIPCCMailbox1Factory_Release+0x58>
   86220:	f9400fe0 	ldr	x0, [sp, #24]
   86224:	b9400800 	ldr	w0, [x0, #8]
   86228:	910083ff 	add	sp, sp, #0x20
   8622c:	d65f03c0 	ret

0000000000086230 <CEcoIPCCMailbox1Factory_Init>:
   86230:	a9bc7bfd 	stp	x29, x30, [sp, #-64]!
   86234:	910003fd 	mov	x29, sp
   86238:	f90017e0 	str	x0, [sp, #40]
   8623c:	f90013e1 	str	x1, [sp, #32]
   86240:	f9000fe2 	str	x2, [sp, #24]
   86244:	f94017e0 	ldr	x0, [sp, #40]
   86248:	f9001fe0 	str	x0, [sp, #56]
   8624c:	12800000 	mov	w0, #0xffffffff            	// #-1
   86250:	79006fe0 	strh	w0, [sp, #54]
   86254:	f94017e0 	ldr	x0, [sp, #40]
   86258:	f100001f 	cmp	x0, #0x0
   8625c:	54000061 	b.ne	86268 <CEcoIPCCMailbox1Factory_Init+0x38>  // b.any
   86260:	12800000 	mov	w0, #0xffffffff            	// #-1
   86264:	14000008 	b	86284 <CEcoIPCCMailbox1Factory_Init+0x54>
   86268:	f9401fe0 	ldr	x0, [sp, #56]
   8626c:	f9400c02 	ldr	x2, [x0, #24]
   86270:	f94013e1 	ldr	x1, [sp, #32]
   86274:	f9400fe0 	ldr	x0, [sp, #24]
   86278:	d63f0040 	blr	x2
   8627c:	79006fe0 	strh	w0, [sp, #54]
   86280:	79c06fe0 	ldrsh	w0, [sp, #54]
   86284:	a8c47bfd 	ldp	x29, x30, [sp], #64
   86288:	d65f03c0 	ret

000000000008628c <CEcoIPCCMailbox1Factory_Alloc>:
   8628c:	a9ba7bfd 	stp	x29, x30, [sp, #-96]!
   86290:	910003fd 	mov	x29, sp
   86294:	f9001fe0 	str	x0, [sp, #56]
   86298:	f9001be1 	str	x1, [sp, #48]
   8629c:	f90017e2 	str	x2, [sp, #40]
   862a0:	f90013e3 	str	x3, [sp, #32]
   862a4:	f9000fe4 	str	x4, [sp, #24]
   862a8:	f9401fe0 	ldr	x0, [sp, #56]
   862ac:	f9002fe0 	str	x0, [sp, #88]
   862b0:	12800000 	mov	w0, #0xffffffff            	// #-1
   862b4:	7900afe0 	strh	w0, [sp, #86]
   862b8:	f90027ff 	str	xzr, [sp, #72]
   862bc:	f9401fe0 	ldr	x0, [sp, #56]
   862c0:	f100001f 	cmp	x0, #0x0
   862c4:	54000061 	b.ne	862d0 <CEcoIPCCMailbox1Factory_Alloc+0x44>  // b.any
   862c8:	12800000 	mov	w0, #0xffffffff            	// #-1
   862cc:	140000b3 	b	86598 <CEcoIPCCMailbox1Factory_Alloc+0x30c>
   862d0:	f94017e0 	ldr	x0, [sp, #40]
   862d4:	f100001f 	cmp	x0, #0x0
   862d8:	54001240 	b.eq	86520 <CEcoIPCCMailbox1Factory_Alloc+0x294>  // b.none
   862dc:	f94013e0 	ldr	x0, [sp, #32]
   862e0:	39400001 	ldrb	w1, [x0]
   862e4:	b0000440 	adrp	x0, 10f000 <EcoVirtualMemory1Lab_623E1838_MemoryMap+0x7d610>
   862e8:	91242000 	add	x0, x0, #0x908
   862ec:	39400000 	ldrb	w0, [x0]
   862f0:	6b00003f 	cmp	w1, w0
   862f4:	54001121 	b.ne	86518 <CEcoIPCCMailbox1Factory_Alloc+0x28c>  // b.any
   862f8:	f94013e0 	ldr	x0, [sp, #32]
   862fc:	91000400 	add	x0, x0, #0x1
   86300:	39400001 	ldrb	w1, [x0]
   86304:	b0000440 	adrp	x0, 10f000 <EcoVirtualMemory1Lab_623E1838_MemoryMap+0x7d610>
   86308:	91242400 	add	x0, x0, #0x909
   8630c:	39400000 	ldrb	w0, [x0]
   86310:	6b00003f 	cmp	w1, w0
   86314:	54001021 	b.ne	86518 <CEcoIPCCMailbox1Factory_Alloc+0x28c>  // b.any
   86318:	f94013e0 	ldr	x0, [sp, #32]
   8631c:	91000800 	add	x0, x0, #0x2
   86320:	39400001 	ldrb	w1, [x0]
   86324:	b0000440 	adrp	x0, 10f000 <EcoVirtualMemory1Lab_623E1838_MemoryMap+0x7d610>
   86328:	91242800 	add	x0, x0, #0x90a
   8632c:	39400000 	ldrb	w0, [x0]
   86330:	6b00003f 	cmp	w1, w0
   86334:	54000f21 	b.ne	86518 <CEcoIPCCMailbox1Factory_Alloc+0x28c>  // b.any
   86338:	f94013e0 	ldr	x0, [sp, #32]
   8633c:	91000c00 	add	x0, x0, #0x3
   86340:	39400001 	ldrb	w1, [x0]
   86344:	b0000440 	adrp	x0, 10f000 <EcoVirtualMemory1Lab_623E1838_MemoryMap+0x7d610>
   86348:	91242c00 	add	x0, x0, #0x90b
   8634c:	39400000 	ldrb	w0, [x0]
   86350:	6b00003f 	cmp	w1, w0
   86354:	54000e21 	b.ne	86518 <CEcoIPCCMailbox1Factory_Alloc+0x28c>  // b.any
   86358:	f94013e0 	ldr	x0, [sp, #32]
   8635c:	91001000 	add	x0, x0, #0x4
   86360:	39400001 	ldrb	w1, [x0]
   86364:	b0000440 	adrp	x0, 10f000 <EcoVirtualMemory1Lab_623E1838_MemoryMap+0x7d610>
   86368:	91243000 	add	x0, x0, #0x90c
   8636c:	39400000 	ldrb	w0, [x0]
   86370:	6b00003f 	cmp	w1, w0
   86374:	54000d21 	b.ne	86518 <CEcoIPCCMailbox1Factory_Alloc+0x28c>  // b.any
   86378:	f94013e0 	ldr	x0, [sp, #32]
   8637c:	91001400 	add	x0, x0, #0x5
   86380:	39400001 	ldrb	w1, [x0]
   86384:	b0000440 	adrp	x0, 10f000 <EcoVirtualMemory1Lab_623E1838_MemoryMap+0x7d610>
   86388:	91243400 	add	x0, x0, #0x90d
   8638c:	39400000 	ldrb	w0, [x0]
   86390:	6b00003f 	cmp	w1, w0
   86394:	54000c21 	b.ne	86518 <CEcoIPCCMailbox1Factory_Alloc+0x28c>  // b.any
   86398:	f94013e0 	ldr	x0, [sp, #32]
   8639c:	91001800 	add	x0, x0, #0x6
   863a0:	39400001 	ldrb	w1, [x0]
   863a4:	b0000440 	adrp	x0, 10f000 <EcoVirtualMemory1Lab_623E1838_MemoryMap+0x7d610>
   863a8:	91243800 	add	x0, x0, #0x90e
   863ac:	39400000 	ldrb	w0, [x0]
   863b0:	6b00003f 	cmp	w1, w0
   863b4:	54000b21 	b.ne	86518 <CEcoIPCCMailbox1Factory_Alloc+0x28c>  // b.any
   863b8:	f94013e0 	ldr	x0, [sp, #32]
   863bc:	91001c00 	add	x0, x0, #0x7
   863c0:	39400001 	ldrb	w1, [x0]
   863c4:	b0000440 	adrp	x0, 10f000 <EcoVirtualMemory1Lab_623E1838_MemoryMap+0x7d610>
   863c8:	91243c00 	add	x0, x0, #0x90f
   863cc:	39400000 	ldrb	w0, [x0]
   863d0:	6b00003f 	cmp	w1, w0
   863d4:	54000a21 	b.ne	86518 <CEcoIPCCMailbox1Factory_Alloc+0x28c>  // b.any
   863d8:	f94013e0 	ldr	x0, [sp, #32]
   863dc:	91002000 	add	x0, x0, #0x8
   863e0:	39400001 	ldrb	w1, [x0]
   863e4:	b0000440 	adrp	x0, 10f000 <EcoVirtualMemory1Lab_623E1838_MemoryMap+0x7d610>
   863e8:	91244000 	add	x0, x0, #0x910
   863ec:	39400000 	ldrb	w0, [x0]
   863f0:	6b00003f 	cmp	w1, w0
   863f4:	54000921 	b.ne	86518 <CEcoIPCCMailbox1Factory_Alloc+0x28c>  // b.any
   863f8:	f94013e0 	ldr	x0, [sp, #32]
   863fc:	91002400 	add	x0, x0, #0x9
   86400:	39400001 	ldrb	w1, [x0]
   86404:	b0000440 	adrp	x0, 10f000 <EcoVirtualMemory1Lab_623E1838_MemoryMap+0x7d610>
   86408:	91244400 	add	x0, x0, #0x911
   8640c:	39400000 	ldrb	w0, [x0]
   86410:	6b00003f 	cmp	w1, w0
   86414:	54000821 	b.ne	86518 <CEcoIPCCMailbox1Factory_Alloc+0x28c>  // b.any
   86418:	f94013e0 	ldr	x0, [sp, #32]
   8641c:	91002800 	add	x0, x0, #0xa
   86420:	39400001 	ldrb	w1, [x0]
   86424:	b0000440 	adrp	x0, 10f000 <EcoVirtualMemory1Lab_623E1838_MemoryMap+0x7d610>
   86428:	91244800 	add	x0, x0, #0x912
   8642c:	39400000 	ldrb	w0, [x0]
   86430:	6b00003f 	cmp	w1, w0
   86434:	54000721 	b.ne	86518 <CEcoIPCCMailbox1Factory_Alloc+0x28c>  // b.any
   86438:	f94013e0 	ldr	x0, [sp, #32]
   8643c:	91002c00 	add	x0, x0, #0xb
   86440:	39400001 	ldrb	w1, [x0]
   86444:	b0000440 	adrp	x0, 10f000 <EcoVirtualMemory1Lab_623E1838_MemoryMap+0x7d610>
   86448:	91244c00 	add	x0, x0, #0x913
   8644c:	39400000 	ldrb	w0, [x0]
   86450:	6b00003f 	cmp	w1, w0
   86454:	54000621 	b.ne	86518 <CEcoIPCCMailbox1Factory_Alloc+0x28c>  // b.any
   86458:	f94013e0 	ldr	x0, [sp, #32]
   8645c:	91003000 	add	x0, x0, #0xc
   86460:	39400001 	ldrb	w1, [x0]
   86464:	b0000440 	adrp	x0, 10f000 <EcoVirtualMemory1Lab_623E1838_MemoryMap+0x7d610>
   86468:	91245000 	add	x0, x0, #0x914
   8646c:	39400000 	ldrb	w0, [x0]
   86470:	6b00003f 	cmp	w1, w0
   86474:	54000521 	b.ne	86518 <CEcoIPCCMailbox1Factory_Alloc+0x28c>  // b.any
   86478:	f94013e0 	ldr	x0, [sp, #32]
   8647c:	91003400 	add	x0, x0, #0xd
   86480:	39400001 	ldrb	w1, [x0]
   86484:	b0000440 	adrp	x0, 10f000 <EcoVirtualMemory1Lab_623E1838_MemoryMap+0x7d610>
   86488:	91245400 	add	x0, x0, #0x915
   8648c:	39400000 	ldrb	w0, [x0]
   86490:	6b00003f 	cmp	w1, w0
   86494:	54000421 	b.ne	86518 <CEcoIPCCMailbox1Factory_Alloc+0x28c>  // b.any
   86498:	f94013e0 	ldr	x0, [sp, #32]
   8649c:	91003800 	add	x0, x0, #0xe
   864a0:	39400001 	ldrb	w1, [x0]
   864a4:	b0000440 	adrp	x0, 10f000 <EcoVirtualMemory1Lab_623E1838_MemoryMap+0x7d610>
   864a8:	91245800 	add	x0, x0, #0x916
   864ac:	39400000 	ldrb	w0, [x0]
   864b0:	6b00003f 	cmp	w1, w0
   864b4:	54000321 	b.ne	86518 <CEcoIPCCMailbox1Factory_Alloc+0x28c>  // b.any
   864b8:	f94013e0 	ldr	x0, [sp, #32]
   864bc:	91003c00 	add	x0, x0, #0xf
   864c0:	39400001 	ldrb	w1, [x0]
   864c4:	b0000440 	adrp	x0, 10f000 <EcoVirtualMemory1Lab_623E1838_MemoryMap+0x7d610>
   864c8:	91245c00 	add	x0, x0, #0x917
   864cc:	39400000 	ldrb	w0, [x0]
   864d0:	6b00003f 	cmp	w1, w0
   864d4:	54000221 	b.ne	86518 <CEcoIPCCMailbox1Factory_Alloc+0x28c>  // b.any
   864d8:	f94013e0 	ldr	x0, [sp, #32]
   864dc:	91004000 	add	x0, x0, #0x10
   864e0:	39400001 	ldrb	w1, [x0]
   864e4:	b0000440 	adrp	x0, 10f000 <EcoVirtualMemory1Lab_623E1838_MemoryMap+0x7d610>
   864e8:	91246000 	add	x0, x0, #0x918
   864ec:	39400000 	ldrb	w0, [x0]
   864f0:	6b00003f 	cmp	w1, w0
   864f4:	54000121 	b.ne	86518 <CEcoIPCCMailbox1Factory_Alloc+0x28c>  // b.any
   864f8:	f94013e0 	ldr	x0, [sp, #32]
   864fc:	91004400 	add	x0, x0, #0x11
   86500:	39400001 	ldrb	w1, [x0]
   86504:	b0000440 	adrp	x0, 10f000 <EcoVirtualMemory1Lab_623E1838_MemoryMap+0x7d610>
   86508:	91246400 	add	x0, x0, #0x919
   8650c:	39400000 	ldrb	w0, [x0]
   86510:	6b00003f 	cmp	w1, w0
   86514:	54000060 	b.eq	86520 <CEcoIPCCMailbox1Factory_Alloc+0x294>  // b.none
   86518:	12800000 	mov	w0, #0xffffffff            	// #-1
   8651c:	1400001f 	b	86598 <CEcoIPCCMailbox1Factory_Alloc+0x30c>
   86520:	f9402fe0 	ldr	x0, [sp, #88]
   86524:	f9400803 	ldr	x3, [x0, #16]
   86528:	910123e0 	add	x0, sp, #0x48
   8652c:	aa0003e2 	mov	x2, x0
   86530:	f94017e1 	ldr	x1, [sp, #40]
   86534:	f9401be0 	ldr	x0, [sp, #48]
   86538:	d63f0060 	blr	x3
   8653c:	7900afe0 	strh	w0, [sp, #86]
   86540:	79c0afe0 	ldrsh	w0, [sp, #86]
   86544:	7100001f 	cmp	w0, #0x0
   86548:	54000081 	b.ne	86558 <CEcoIPCCMailbox1Factory_Alloc+0x2cc>  // b.any
   8654c:	f94027e0 	ldr	x0, [sp, #72]
   86550:	f100001f 	cmp	x0, #0x0
   86554:	54000061 	b.ne	86560 <CEcoIPCCMailbox1Factory_Alloc+0x2d4>  // b.any
   86558:	12800000 	mov	w0, #0xffffffff            	// #-1
   8655c:	1400000f 	b	86598 <CEcoIPCCMailbox1Factory_Alloc+0x30c>
   86560:	f94027e0 	ldr	x0, [sp, #72]
   86564:	f9400000 	ldr	x0, [x0]
   86568:	f9400003 	ldr	x3, [x0]
   8656c:	f94027e0 	ldr	x0, [sp, #72]
   86570:	f9400fe2 	ldr	x2, [sp, #24]
   86574:	f94013e1 	ldr	x1, [sp, #32]
   86578:	d63f0060 	blr	x3
   8657c:	7900afe0 	strh	w0, [sp, #86]
   86580:	f94027e0 	ldr	x0, [sp, #72]
   86584:	f9400000 	ldr	x0, [x0]
   86588:	f9400801 	ldr	x1, [x0, #16]
   8658c:	f94027e0 	ldr	x0, [sp, #72]
   86590:	d63f0020 	blr	x1
   86594:	79c0afe0 	ldrsh	w0, [sp, #86]
   86598:	a8c67bfd 	ldp	x29, x30, [sp], #96
   8659c:	d65f03c0 	ret

00000000000865a0 <CEcoIPCCMailbox1Factory_get_Name>:
   865a0:	d10083ff 	sub	sp, sp, #0x20
   865a4:	f90007e0 	str	x0, [sp, #8]
   865a8:	f94007e0 	ldr	x0, [sp, #8]
   865ac:	f9000fe0 	str	x0, [sp, #24]
   865b0:	f94007e0 	ldr	x0, [sp, #8]
   865b4:	f100001f 	cmp	x0, #0x0
   865b8:	54000061 	b.ne	865c4 <CEcoIPCCMailbox1Factory_get_Name+0x24>  // b.any
   865bc:	d2800000 	mov	x0, #0x0                   	// #0
   865c0:	14000003 	b	865cc <CEcoIPCCMailbox1Factory_get_Name+0x2c>
   865c4:	f9400fe0 	ldr	x0, [sp, #24]
   865c8:	91008000 	add	x0, x0, #0x20
   865cc:	910083ff 	add	sp, sp, #0x20
   865d0:	d65f03c0 	ret

00000000000865d4 <CEcoIPCCMailbox1Factory_get_Version>:
   865d4:	d10083ff 	sub	sp, sp, #0x20
   865d8:	f90007e0 	str	x0, [sp, #8]
   865dc:	f94007e0 	ldr	x0, [sp, #8]
   865e0:	f9000fe0 	str	x0, [sp, #24]
   865e4:	f94007e0 	ldr	x0, [sp, #8]
   865e8:	f100001f 	cmp	x0, #0x0
   865ec:	54000061 	b.ne	865f8 <CEcoIPCCMailbox1Factory_get_Version+0x24>  // b.any
   865f0:	d2800000 	mov	x0, #0x0                   	// #0
   865f4:	14000003 	b	86600 <CEcoIPCCMailbox1Factory_get_Version+0x2c>
   865f8:	f9400fe0 	ldr	x0, [sp, #24]
   865fc:	91018000 	add	x0, x0, #0x60
   86600:	910083ff 	add	sp, sp, #0x20
   86604:	d65f03c0 	ret

0000000000086608 <CEcoIPCCMailbox1Factory_get_Manufacturer>:
   86608:	d10083ff 	sub	sp, sp, #0x20
   8660c:	f90007e0 	str	x0, [sp, #8]
   86610:	f94007e0 	ldr	x0, [sp, #8]
   86614:	f9000fe0 	str	x0, [sp, #24]
   86618:	f94007e0 	ldr	x0, [sp, #8]
   8661c:	f100001f 	cmp	x0, #0x0
   86620:	54000061 	b.ne	8662c <CEcoIPCCMailbox1Factory_get_Manufacturer+0x24>  // b.any
   86624:	d2800000 	mov	x0, #0x0                   	// #0
   86628:	14000003 	b	86634 <CEcoIPCCMailbox1Factory_get_Manufacturer+0x2c>
   8662c:	f9400fe0 	ldr	x0, [sp, #24]
   86630:	9101c000 	add	x0, x0, #0x70
   86634:	910083ff 	add	sp, sp, #0x20
   86638:	d65f03c0 	ret

000000000008663c <CEcoIPCCMailbox1_QueryInterface>:
   8663c:	a9bc7bfd 	stp	x29, x30, [sp, #-64]!
   86640:	910003fd 	mov	x29, sp
   86644:	f90017e0 	str	x0, [sp, #40]
   86648:	f90013e1 	str	x1, [sp, #32]
   8664c:	f9000fe2 	str	x2, [sp, #24]
   86650:	f94017e0 	ldr	x0, [sp, #40]
   86654:	f9001fe0 	str	x0, [sp, #56]
   86658:	12800000 	mov	w0, #0xffffffff            	// #-1
   8665c:	79006fe0 	strh	w0, [sp, #54]
   86660:	f94017e0 	ldr	x0, [sp, #40]
   86664:	f100001f 	cmp	x0, #0x0
   86668:	54000080 	b.eq	86678 <CEcoIPCCMailbox1_QueryInterface+0x3c>  // b.none
   8666c:	f9400fe0 	ldr	x0, [sp, #24]
   86670:	f100001f 	cmp	x0, #0x0
   86674:	54000061 	b.ne	86680 <CEcoIPCCMailbox1_QueryInterface+0x44>  // b.any
   86678:	79c06fe0 	ldrsh	w0, [sp, #54]
   8667c:	14000136 	b	86b54 <CEcoIPCCMailbox1_QueryInterface+0x518>
   86680:	f94013e0 	ldr	x0, [sp, #32]
   86684:	39400001 	ldrb	w1, [x0]
   86688:	b0000440 	adrp	x0, 10f000 <EcoVirtualMemory1Lab_623E1838_MemoryMap+0x7d610>
   8668c:	9127e000 	add	x0, x0, #0x9f8
   86690:	39400000 	ldrb	w0, [x0]
   86694:	6b00003f 	cmp	w1, w0
   86698:	54001241 	b.ne	868e0 <CEcoIPCCMailbox1_QueryInterface+0x2a4>  // b.any
   8669c:	f94013e0 	ldr	x0, [sp, #32]
   866a0:	91000400 	add	x0, x0, #0x1
   866a4:	39400001 	ldrb	w1, [x0]
   866a8:	b0000440 	adrp	x0, 10f000 <EcoVirtualMemory1Lab_623E1838_MemoryMap+0x7d610>
   866ac:	9127e400 	add	x0, x0, #0x9f9
   866b0:	39400000 	ldrb	w0, [x0]
   866b4:	6b00003f 	cmp	w1, w0
   866b8:	54001141 	b.ne	868e0 <CEcoIPCCMailbox1_QueryInterface+0x2a4>  // b.any
   866bc:	f94013e0 	ldr	x0, [sp, #32]
   866c0:	91000800 	add	x0, x0, #0x2
   866c4:	39400001 	ldrb	w1, [x0]
   866c8:	b0000440 	adrp	x0, 10f000 <EcoVirtualMemory1Lab_623E1838_MemoryMap+0x7d610>
   866cc:	9127e800 	add	x0, x0, #0x9fa
   866d0:	39400000 	ldrb	w0, [x0]
   866d4:	6b00003f 	cmp	w1, w0
   866d8:	54001041 	b.ne	868e0 <CEcoIPCCMailbox1_QueryInterface+0x2a4>  // b.any
   866dc:	f94013e0 	ldr	x0, [sp, #32]
   866e0:	91000c00 	add	x0, x0, #0x3
   866e4:	39400001 	ldrb	w1, [x0]
   866e8:	b0000440 	adrp	x0, 10f000 <EcoVirtualMemory1Lab_623E1838_MemoryMap+0x7d610>
   866ec:	9127ec00 	add	x0, x0, #0x9fb
   866f0:	39400000 	ldrb	w0, [x0]
   866f4:	6b00003f 	cmp	w1, w0
   866f8:	54000f41 	b.ne	868e0 <CEcoIPCCMailbox1_QueryInterface+0x2a4>  // b.any
   866fc:	f94013e0 	ldr	x0, [sp, #32]
   86700:	91001000 	add	x0, x0, #0x4
   86704:	39400001 	ldrb	w1, [x0]
   86708:	b0000440 	adrp	x0, 10f000 <EcoVirtualMemory1Lab_623E1838_MemoryMap+0x7d610>
   8670c:	9127f000 	add	x0, x0, #0x9fc
   86710:	39400000 	ldrb	w0, [x0]
   86714:	6b00003f 	cmp	w1, w0
   86718:	54000e41 	b.ne	868e0 <CEcoIPCCMailbox1_QueryInterface+0x2a4>  // b.any
   8671c:	f94013e0 	ldr	x0, [sp, #32]
   86720:	91001400 	add	x0, x0, #0x5
   86724:	39400001 	ldrb	w1, [x0]
   86728:	b0000440 	adrp	x0, 10f000 <EcoVirtualMemory1Lab_623E1838_MemoryMap+0x7d610>
   8672c:	9127f400 	add	x0, x0, #0x9fd
   86730:	39400000 	ldrb	w0, [x0]
   86734:	6b00003f 	cmp	w1, w0
   86738:	54000d41 	b.ne	868e0 <CEcoIPCCMailbox1_QueryInterface+0x2a4>  // b.any
   8673c:	f94013e0 	ldr	x0, [sp, #32]
   86740:	91001800 	add	x0, x0, #0x6
   86744:	39400001 	ldrb	w1, [x0]
   86748:	b0000440 	adrp	x0, 10f000 <EcoVirtualMemory1Lab_623E1838_MemoryMap+0x7d610>
   8674c:	9127f800 	add	x0, x0, #0x9fe
   86750:	39400000 	ldrb	w0, [x0]
   86754:	6b00003f 	cmp	w1, w0
   86758:	54000c41 	b.ne	868e0 <CEcoIPCCMailbox1_QueryInterface+0x2a4>  // b.any
   8675c:	f94013e0 	ldr	x0, [sp, #32]
   86760:	91001c00 	add	x0, x0, #0x7
   86764:	39400001 	ldrb	w1, [x0]
   86768:	b0000440 	adrp	x0, 10f000 <EcoVirtualMemory1Lab_623E1838_MemoryMap+0x7d610>
   8676c:	9127fc00 	add	x0, x0, #0x9ff
   86770:	39400000 	ldrb	w0, [x0]
   86774:	6b00003f 	cmp	w1, w0
   86778:	54000b41 	b.ne	868e0 <CEcoIPCCMailbox1_QueryInterface+0x2a4>  // b.any
   8677c:	f94013e0 	ldr	x0, [sp, #32]
   86780:	91002000 	add	x0, x0, #0x8
   86784:	39400001 	ldrb	w1, [x0]
   86788:	b0000440 	adrp	x0, 10f000 <EcoVirtualMemory1Lab_623E1838_MemoryMap+0x7d610>
   8678c:	91280000 	add	x0, x0, #0xa00
   86790:	39400000 	ldrb	w0, [x0]
   86794:	6b00003f 	cmp	w1, w0
   86798:	54000a41 	b.ne	868e0 <CEcoIPCCMailbox1_QueryInterface+0x2a4>  // b.any
   8679c:	f94013e0 	ldr	x0, [sp, #32]
   867a0:	91002400 	add	x0, x0, #0x9
   867a4:	39400001 	ldrb	w1, [x0]
   867a8:	b0000440 	adrp	x0, 10f000 <EcoVirtualMemory1Lab_623E1838_MemoryMap+0x7d610>
   867ac:	91280400 	add	x0, x0, #0xa01
   867b0:	39400000 	ldrb	w0, [x0]
   867b4:	6b00003f 	cmp	w1, w0
   867b8:	54000941 	b.ne	868e0 <CEcoIPCCMailbox1_QueryInterface+0x2a4>  // b.any
   867bc:	f94013e0 	ldr	x0, [sp, #32]
   867c0:	91002800 	add	x0, x0, #0xa
   867c4:	39400001 	ldrb	w1, [x0]
   867c8:	b0000440 	adrp	x0, 10f000 <EcoVirtualMemory1Lab_623E1838_MemoryMap+0x7d610>
   867cc:	91280800 	add	x0, x0, #0xa02
   867d0:	39400000 	ldrb	w0, [x0]
   867d4:	6b00003f 	cmp	w1, w0
   867d8:	54000841 	b.ne	868e0 <CEcoIPCCMailbox1_QueryInterface+0x2a4>  // b.any
   867dc:	f94013e0 	ldr	x0, [sp, #32]
   867e0:	91002c00 	add	x0, x0, #0xb
   867e4:	39400001 	ldrb	w1, [x0]
   867e8:	b0000440 	adrp	x0, 10f000 <EcoVirtualMemory1Lab_623E1838_MemoryMap+0x7d610>
   867ec:	91280c00 	add	x0, x0, #0xa03
   867f0:	39400000 	ldrb	w0, [x0]
   867f4:	6b00003f 	cmp	w1, w0
   867f8:	54000741 	b.ne	868e0 <CEcoIPCCMailbox1_QueryInterface+0x2a4>  // b.any
   867fc:	f94013e0 	ldr	x0, [sp, #32]
   86800:	91003000 	add	x0, x0, #0xc
   86804:	39400001 	ldrb	w1, [x0]
   86808:	b0000440 	adrp	x0, 10f000 <EcoVirtualMemory1Lab_623E1838_MemoryMap+0x7d610>
   8680c:	91281000 	add	x0, x0, #0xa04
   86810:	39400000 	ldrb	w0, [x0]
   86814:	6b00003f 	cmp	w1, w0
   86818:	54000641 	b.ne	868e0 <CEcoIPCCMailbox1_QueryInterface+0x2a4>  // b.any
   8681c:	f94013e0 	ldr	x0, [sp, #32]
   86820:	91003400 	add	x0, x0, #0xd
   86824:	39400001 	ldrb	w1, [x0]
   86828:	b0000440 	adrp	x0, 10f000 <EcoVirtualMemory1Lab_623E1838_MemoryMap+0x7d610>
   8682c:	91281400 	add	x0, x0, #0xa05
   86830:	39400000 	ldrb	w0, [x0]
   86834:	6b00003f 	cmp	w1, w0
   86838:	54000541 	b.ne	868e0 <CEcoIPCCMailbox1_QueryInterface+0x2a4>  // b.any
   8683c:	f94013e0 	ldr	x0, [sp, #32]
   86840:	91003800 	add	x0, x0, #0xe
   86844:	39400001 	ldrb	w1, [x0]
   86848:	b0000440 	adrp	x0, 10f000 <EcoVirtualMemory1Lab_623E1838_MemoryMap+0x7d610>
   8684c:	91281800 	add	x0, x0, #0xa06
   86850:	39400000 	ldrb	w0, [x0]
   86854:	6b00003f 	cmp	w1, w0
   86858:	54000441 	b.ne	868e0 <CEcoIPCCMailbox1_QueryInterface+0x2a4>  // b.any
   8685c:	f94013e0 	ldr	x0, [sp, #32]
   86860:	91003c00 	add	x0, x0, #0xf
   86864:	39400001 	ldrb	w1, [x0]
   86868:	b0000440 	adrp	x0, 10f000 <EcoVirtualMemory1Lab_623E1838_MemoryMap+0x7d610>
   8686c:	91281c00 	add	x0, x0, #0xa07
   86870:	39400000 	ldrb	w0, [x0]
   86874:	6b00003f 	cmp	w1, w0
   86878:	54000341 	b.ne	868e0 <CEcoIPCCMailbox1_QueryInterface+0x2a4>  // b.any
   8687c:	f94013e0 	ldr	x0, [sp, #32]
   86880:	91004000 	add	x0, x0, #0x10
   86884:	39400001 	ldrb	w1, [x0]
   86888:	b0000440 	adrp	x0, 10f000 <EcoVirtualMemory1Lab_623E1838_MemoryMap+0x7d610>
   8688c:	91282000 	add	x0, x0, #0xa08
   86890:	39400000 	ldrb	w0, [x0]
   86894:	6b00003f 	cmp	w1, w0
   86898:	54000241 	b.ne	868e0 <CEcoIPCCMailbox1_QueryInterface+0x2a4>  // b.any
   8689c:	f94013e0 	ldr	x0, [sp, #32]
   868a0:	91004400 	add	x0, x0, #0x11
   868a4:	39400001 	ldrb	w1, [x0]
   868a8:	b0000440 	adrp	x0, 10f000 <EcoVirtualMemory1Lab_623E1838_MemoryMap+0x7d610>
   868ac:	91282400 	add	x0, x0, #0xa09
   868b0:	39400000 	ldrb	w0, [x0]
   868b4:	6b00003f 	cmp	w1, w0
   868b8:	54000141 	b.ne	868e0 <CEcoIPCCMailbox1_QueryInterface+0x2a4>  // b.any
   868bc:	f9401fe1 	ldr	x1, [sp, #56]
   868c0:	f9400fe0 	ldr	x0, [sp, #24]
   868c4:	f9000001 	str	x1, [x0]
   868c8:	f9401fe0 	ldr	x0, [sp, #56]
   868cc:	f9400000 	ldr	x0, [x0]
   868d0:	f9400401 	ldr	x1, [x0, #8]
   868d4:	f9401fe0 	ldr	x0, [sp, #56]
   868d8:	d63f0020 	blr	x1
   868dc:	1400009d 	b	86b50 <CEcoIPCCMailbox1_QueryInterface+0x514>
   868e0:	f94013e0 	ldr	x0, [sp, #32]
   868e4:	39400001 	ldrb	w1, [x0]
   868e8:	b0000440 	adrp	x0, 10f000 <EcoVirtualMemory1Lab_623E1838_MemoryMap+0x7d610>
   868ec:	91266000 	add	x0, x0, #0x998
   868f0:	39400000 	ldrb	w0, [x0]
   868f4:	6b00003f 	cmp	w1, w0
   868f8:	54001241 	b.ne	86b40 <CEcoIPCCMailbox1_QueryInterface+0x504>  // b.any
   868fc:	f94013e0 	ldr	x0, [sp, #32]
   86900:	91000400 	add	x0, x0, #0x1
   86904:	39400001 	ldrb	w1, [x0]
   86908:	b0000440 	adrp	x0, 10f000 <EcoVirtualMemory1Lab_623E1838_MemoryMap+0x7d610>
   8690c:	91266400 	add	x0, x0, #0x999
   86910:	39400000 	ldrb	w0, [x0]
   86914:	6b00003f 	cmp	w1, w0
   86918:	54001141 	b.ne	86b40 <CEcoIPCCMailbox1_QueryInterface+0x504>  // b.any
   8691c:	f94013e0 	ldr	x0, [sp, #32]
   86920:	91000800 	add	x0, x0, #0x2
   86924:	39400001 	ldrb	w1, [x0]
   86928:	b0000440 	adrp	x0, 10f000 <EcoVirtualMemory1Lab_623E1838_MemoryMap+0x7d610>
   8692c:	91266800 	add	x0, x0, #0x99a
   86930:	39400000 	ldrb	w0, [x0]
   86934:	6b00003f 	cmp	w1, w0
   86938:	54001041 	b.ne	86b40 <CEcoIPCCMailbox1_QueryInterface+0x504>  // b.any
   8693c:	f94013e0 	ldr	x0, [sp, #32]
   86940:	91000c00 	add	x0, x0, #0x3
   86944:	39400001 	ldrb	w1, [x0]
   86948:	b0000440 	adrp	x0, 10f000 <EcoVirtualMemory1Lab_623E1838_MemoryMap+0x7d610>
   8694c:	91266c00 	add	x0, x0, #0x99b
   86950:	39400000 	ldrb	w0, [x0]
   86954:	6b00003f 	cmp	w1, w0
   86958:	54000f41 	b.ne	86b40 <CEcoIPCCMailbox1_QueryInterface+0x504>  // b.any
   8695c:	f94013e0 	ldr	x0, [sp, #32]
   86960:	91001000 	add	x0, x0, #0x4
   86964:	39400001 	ldrb	w1, [x0]
   86968:	b0000440 	adrp	x0, 10f000 <EcoVirtualMemory1Lab_623E1838_MemoryMap+0x7d610>
   8696c:	91267000 	add	x0, x0, #0x99c
   86970:	39400000 	ldrb	w0, [x0]
   86974:	6b00003f 	cmp	w1, w0
   86978:	54000e41 	b.ne	86b40 <CEcoIPCCMailbox1_QueryInterface+0x504>  // b.any
   8697c:	f94013e0 	ldr	x0, [sp, #32]
   86980:	91001400 	add	x0, x0, #0x5
   86984:	39400001 	ldrb	w1, [x0]
   86988:	b0000440 	adrp	x0, 10f000 <EcoVirtualMemory1Lab_623E1838_MemoryMap+0x7d610>
   8698c:	91267400 	add	x0, x0, #0x99d
   86990:	39400000 	ldrb	w0, [x0]
   86994:	6b00003f 	cmp	w1, w0
   86998:	54000d41 	b.ne	86b40 <CEcoIPCCMailbox1_QueryInterface+0x504>  // b.any
   8699c:	f94013e0 	ldr	x0, [sp, #32]
   869a0:	91001800 	add	x0, x0, #0x6
   869a4:	39400001 	ldrb	w1, [x0]
   869a8:	b0000440 	adrp	x0, 10f000 <EcoVirtualMemory1Lab_623E1838_MemoryMap+0x7d610>
   869ac:	91267800 	add	x0, x0, #0x99e
   869b0:	39400000 	ldrb	w0, [x0]
   869b4:	6b00003f 	cmp	w1, w0
   869b8:	54000c41 	b.ne	86b40 <CEcoIPCCMailbox1_QueryInterface+0x504>  // b.any
   869bc:	f94013e0 	ldr	x0, [sp, #32]
   869c0:	91001c00 	add	x0, x0, #0x7
   869c4:	39400001 	ldrb	w1, [x0]
   869c8:	b0000440 	adrp	x0, 10f000 <EcoVirtualMemory1Lab_623E1838_MemoryMap+0x7d610>
   869cc:	91267c00 	add	x0, x0, #0x99f
   869d0:	39400000 	ldrb	w0, [x0]
   869d4:	6b00003f 	cmp	w1, w0
   869d8:	54000b41 	b.ne	86b40 <CEcoIPCCMailbox1_QueryInterface+0x504>  // b.any
   869dc:	f94013e0 	ldr	x0, [sp, #32]
   869e0:	91002000 	add	x0, x0, #0x8
   869e4:	39400001 	ldrb	w1, [x0]
   869e8:	b0000440 	adrp	x0, 10f000 <EcoVirtualMemory1Lab_623E1838_MemoryMap+0x7d610>
   869ec:	91268000 	add	x0, x0, #0x9a0
   869f0:	39400000 	ldrb	w0, [x0]
   869f4:	6b00003f 	cmp	w1, w0
   869f8:	54000a41 	b.ne	86b40 <CEcoIPCCMailbox1_QueryInterface+0x504>  // b.any
   869fc:	f94013e0 	ldr	x0, [sp, #32]
   86a00:	91002400 	add	x0, x0, #0x9
   86a04:	39400001 	ldrb	w1, [x0]
   86a08:	b0000440 	adrp	x0, 10f000 <EcoVirtualMemory1Lab_623E1838_MemoryMap+0x7d610>
   86a0c:	91268400 	add	x0, x0, #0x9a1
   86a10:	39400000 	ldrb	w0, [x0]
   86a14:	6b00003f 	cmp	w1, w0
   86a18:	54000941 	b.ne	86b40 <CEcoIPCCMailbox1_QueryInterface+0x504>  // b.any
   86a1c:	f94013e0 	ldr	x0, [sp, #32]
   86a20:	91002800 	add	x0, x0, #0xa
   86a24:	39400001 	ldrb	w1, [x0]
   86a28:	b0000440 	adrp	x0, 10f000 <EcoVirtualMemory1Lab_623E1838_MemoryMap+0x7d610>
   86a2c:	91268800 	add	x0, x0, #0x9a2
   86a30:	39400000 	ldrb	w0, [x0]
   86a34:	6b00003f 	cmp	w1, w0
   86a38:	54000841 	b.ne	86b40 <CEcoIPCCMailbox1_QueryInterface+0x504>  // b.any
   86a3c:	f94013e0 	ldr	x0, [sp, #32]
   86a40:	91002c00 	add	x0, x0, #0xb
   86a44:	39400001 	ldrb	w1, [x0]
   86a48:	b0000440 	adrp	x0, 10f000 <EcoVirtualMemory1Lab_623E1838_MemoryMap+0x7d610>
   86a4c:	91268c00 	add	x0, x0, #0x9a3
   86a50:	39400000 	ldrb	w0, [x0]
   86a54:	6b00003f 	cmp	w1, w0
   86a58:	54000741 	b.ne	86b40 <CEcoIPCCMailbox1_QueryInterface+0x504>  // b.any
   86a5c:	f94013e0 	ldr	x0, [sp, #32]
   86a60:	91003000 	add	x0, x0, #0xc
   86a64:	39400001 	ldrb	w1, [x0]
   86a68:	b0000440 	adrp	x0, 10f000 <EcoVirtualMemory1Lab_623E1838_MemoryMap+0x7d610>
   86a6c:	91269000 	add	x0, x0, #0x9a4
   86a70:	39400000 	ldrb	w0, [x0]
   86a74:	6b00003f 	cmp	w1, w0
   86a78:	54000641 	b.ne	86b40 <CEcoIPCCMailbox1_QueryInterface+0x504>  // b.any
   86a7c:	f94013e0 	ldr	x0, [sp, #32]
   86a80:	91003400 	add	x0, x0, #0xd
   86a84:	39400001 	ldrb	w1, [x0]
   86a88:	b0000440 	adrp	x0, 10f000 <EcoVirtualMemory1Lab_623E1838_MemoryMap+0x7d610>
   86a8c:	91269400 	add	x0, x0, #0x9a5
   86a90:	39400000 	ldrb	w0, [x0]
   86a94:	6b00003f 	cmp	w1, w0
   86a98:	54000541 	b.ne	86b40 <CEcoIPCCMailbox1_QueryInterface+0x504>  // b.any
   86a9c:	f94013e0 	ldr	x0, [sp, #32]
   86aa0:	91003800 	add	x0, x0, #0xe
   86aa4:	39400001 	ldrb	w1, [x0]
   86aa8:	b0000440 	adrp	x0, 10f000 <EcoVirtualMemory1Lab_623E1838_MemoryMap+0x7d610>
   86aac:	91269800 	add	x0, x0, #0x9a6
   86ab0:	39400000 	ldrb	w0, [x0]
   86ab4:	6b00003f 	cmp	w1, w0
   86ab8:	54000441 	b.ne	86b40 <CEcoIPCCMailbox1_QueryInterface+0x504>  // b.any
   86abc:	f94013e0 	ldr	x0, [sp, #32]
   86ac0:	91003c00 	add	x0, x0, #0xf
   86ac4:	39400001 	ldrb	w1, [x0]
   86ac8:	b0000440 	adrp	x0, 10f000 <EcoVirtualMemory1Lab_623E1838_MemoryMap+0x7d610>
   86acc:	91269c00 	add	x0, x0, #0x9a7
   86ad0:	39400000 	ldrb	w0, [x0]
   86ad4:	6b00003f 	cmp	w1, w0
   86ad8:	54000341 	b.ne	86b40 <CEcoIPCCMailbox1_QueryInterface+0x504>  // b.any
   86adc:	f94013e0 	ldr	x0, [sp, #32]
   86ae0:	91004000 	add	x0, x0, #0x10
   86ae4:	39400001 	ldrb	w1, [x0]
   86ae8:	b0000440 	adrp	x0, 10f000 <EcoVirtualMemory1Lab_623E1838_MemoryMap+0x7d610>
   86aec:	9126a000 	add	x0, x0, #0x9a8
   86af0:	39400000 	ldrb	w0, [x0]
   86af4:	6b00003f 	cmp	w1, w0
   86af8:	54000241 	b.ne	86b40 <CEcoIPCCMailbox1_QueryInterface+0x504>  // b.any
   86afc:	f94013e0 	ldr	x0, [sp, #32]
   86b00:	91004400 	add	x0, x0, #0x11
   86b04:	39400001 	ldrb	w1, [x0]
   86b08:	b0000440 	adrp	x0, 10f000 <EcoVirtualMemory1Lab_623E1838_MemoryMap+0x7d610>
   86b0c:	9126a400 	add	x0, x0, #0x9a9
   86b10:	39400000 	ldrb	w0, [x0]
   86b14:	6b00003f 	cmp	w1, w0
   86b18:	54000141 	b.ne	86b40 <CEcoIPCCMailbox1_QueryInterface+0x504>  // b.any
   86b1c:	f9401fe1 	ldr	x1, [sp, #56]
   86b20:	f9400fe0 	ldr	x0, [sp, #24]
   86b24:	f9000001 	str	x1, [x0]
   86b28:	f9401fe0 	ldr	x0, [sp, #56]
   86b2c:	f9400000 	ldr	x0, [x0]
   86b30:	f9400401 	ldr	x1, [x0, #8]
   86b34:	f9401fe0 	ldr	x0, [sp, #56]
   86b38:	d63f0020 	blr	x1
   86b3c:	14000005 	b	86b50 <CEcoIPCCMailbox1_QueryInterface+0x514>
   86b40:	f9400fe0 	ldr	x0, [sp, #24]
   86b44:	f900001f 	str	xzr, [x0]
   86b48:	12800000 	mov	w0, #0xffffffff            	// #-1
   86b4c:	14000002 	b	86b54 <CEcoIPCCMailbox1_QueryInterface+0x518>
   86b50:	52800000 	mov	w0, #0x0                   	// #0
   86b54:	a8c47bfd 	ldp	x29, x30, [sp], #64
   86b58:	d65f03c0 	ret

0000000000086b5c <CEcoIPCCMailbox1_AddRef>:
   86b5c:	d10083ff 	sub	sp, sp, #0x20
   86b60:	f90007e0 	str	x0, [sp, #8]
   86b64:	f94007e0 	ldr	x0, [sp, #8]
   86b68:	f9000fe0 	str	x0, [sp, #24]
   86b6c:	f94007e0 	ldr	x0, [sp, #8]
   86b70:	f100001f 	cmp	x0, #0x0
   86b74:	54000061 	b.ne	86b80 <CEcoIPCCMailbox1_AddRef+0x24>  // b.any
   86b78:	12800000 	mov	w0, #0xffffffff            	// #-1
   86b7c:	14000008 	b	86b9c <CEcoIPCCMailbox1_AddRef+0x40>
   86b80:	f9400fe0 	ldr	x0, [sp, #24]
   86b84:	b9400800 	ldr	w0, [x0, #8]
   86b88:	11000401 	add	w1, w0, #0x1
   86b8c:	f9400fe0 	ldr	x0, [sp, #24]
   86b90:	b9000801 	str	w1, [x0, #8]
   86b94:	f9400fe0 	ldr	x0, [sp, #24]
   86b98:	b9400800 	ldr	w0, [x0, #8]
   86b9c:	910083ff 	add	sp, sp, #0x20
   86ba0:	d65f03c0 	ret

0000000000086ba4 <CEcoIPCCMailbox1_Release>:
   86ba4:	a9bd7bfd 	stp	x29, x30, [sp, #-48]!
   86ba8:	910003fd 	mov	x29, sp
   86bac:	f9000fe0 	str	x0, [sp, #24]
   86bb0:	f9400fe0 	ldr	x0, [sp, #24]
   86bb4:	f90017e0 	str	x0, [sp, #40]
   86bb8:	f9400fe0 	ldr	x0, [sp, #24]
   86bbc:	f100001f 	cmp	x0, #0x0
   86bc0:	54000061 	b.ne	86bcc <CEcoIPCCMailbox1_Release+0x28>  // b.any
   86bc4:	12800000 	mov	w0, #0xffffffff            	// #-1
   86bc8:	14000010 	b	86c08 <CEcoIPCCMailbox1_Release+0x64>
   86bcc:	f94017e0 	ldr	x0, [sp, #40]
   86bd0:	b9400800 	ldr	w0, [x0, #8]
   86bd4:	51000401 	sub	w1, w0, #0x1
   86bd8:	f94017e0 	ldr	x0, [sp, #40]
   86bdc:	b9000801 	str	w1, [x0, #8]
   86be0:	f94017e0 	ldr	x0, [sp, #40]
   86be4:	b9400800 	ldr	w0, [x0, #8]
   86be8:	7100001f 	cmp	w0, #0x0
   86bec:	540000a1 	b.ne	86c00 <CEcoIPCCMailbox1_Release+0x5c>  // b.any
   86bf0:	f94017e0 	ldr	x0, [sp, #40]
   86bf4:	94000121 	bl	87078 <deleteCEcoIPCCMailbox1>
   86bf8:	52800000 	mov	w0, #0x0                   	// #0
   86bfc:	14000003 	b	86c08 <CEcoIPCCMailbox1_Release+0x64>
   86c00:	f94017e0 	ldr	x0, [sp, #40]
   86c04:	b9400800 	ldr	w0, [x0, #8]
   86c08:	a8c37bfd 	ldp	x29, x30, [sp], #48
   86c0c:	d65f03c0 	ret

0000000000086c10 <CEcoIPCCMailbox1_get_MappedAddress>:
   86c10:	d10083ff 	sub	sp, sp, #0x20
   86c14:	f90007e0 	str	x0, [sp, #8]
   86c18:	f94007e0 	ldr	x0, [sp, #8]
   86c1c:	f9000fe0 	str	x0, [sp, #24]
   86c20:	f9000bff 	str	xzr, [sp, #16]
   86c24:	f94007e0 	ldr	x0, [sp, #8]
   86c28:	f100001f 	cmp	x0, #0x0
   86c2c:	54000061 	b.ne	86c38 <CEcoIPCCMailbox1_get_MappedAddress+0x28>  // b.any
   86c30:	f9400be0 	ldr	x0, [sp, #16]
   86c34:	14000003 	b	86c40 <CEcoIPCCMailbox1_get_MappedAddress+0x30>
   86c38:	f9400fe0 	ldr	x0, [sp, #24]
   86c3c:	f9401000 	ldr	x0, [x0, #32]
   86c40:	910083ff 	add	sp, sp, #0x20
   86c44:	d65f03c0 	ret

0000000000086c48 <CEcoIPCCMailbox1_set_MappedAddress>:
   86c48:	d10083ff 	sub	sp, sp, #0x20
   86c4c:	f90007e0 	str	x0, [sp, #8]
   86c50:	f90003e1 	str	x1, [sp]
   86c54:	f94007e0 	ldr	x0, [sp, #8]
   86c58:	f9000fe0 	str	x0, [sp, #24]
   86c5c:	f94007e0 	ldr	x0, [sp, #8]
   86c60:	f100001f 	cmp	x0, #0x0
   86c64:	540000a0 	b.eq	86c78 <CEcoIPCCMailbox1_set_MappedAddress+0x30>  // b.none
   86c68:	f9400fe0 	ldr	x0, [sp, #24]
   86c6c:	f94003e1 	ldr	x1, [sp]
   86c70:	f9001001 	str	x1, [x0, #32]
   86c74:	14000002 	b	86c7c <CEcoIPCCMailbox1_set_MappedAddress+0x34>
   86c78:	d503201f 	nop
   86c7c:	910083ff 	add	sp, sp, #0x20
   86c80:	d65f03c0 	ret

0000000000086c84 <CEcoIPCCMailbox1_Read>:
   86c84:	d10083ff 	sub	sp, sp, #0x20
   86c88:	f90007e0 	str	x0, [sp, #8]
   86c8c:	39001fe1 	strb	w1, [sp, #7]
   86c90:	f9000fff 	str	xzr, [sp, #24]
   86c94:	b90017ff 	str	wzr, [sp, #20]
   86c98:	f94007e0 	ldr	x0, [sp, #8]
   86c9c:	f100001f 	cmp	x0, #0x0
   86ca0:	54000061 	b.ne	86cac <CEcoIPCCMailbox1_Read+0x28>  // b.any
   86ca4:	52800000 	mov	w0, #0x0                   	// #0
   86ca8:	14000018 	b	86d08 <CEcoIPCCMailbox1_Read+0x84>
   86cac:	f94007e0 	ldr	x0, [sp, #8]
   86cb0:	f9000fe0 	str	x0, [sp, #24]
   86cb4:	f9400fe0 	ldr	x0, [sp, #24]
   86cb8:	f9401000 	ldr	x0, [x0, #32]
   86cbc:	b9401800 	ldr	w0, [x0, #24]
   86cc0:	b90017e0 	str	w0, [sp, #20]
   86cc4:	b94017e0 	ldr	w0, [sp, #20]
   86cc8:	12020000 	and	w0, w0, #0x40000000
   86ccc:	7100001f 	cmp	w0, #0x0
   86cd0:	54ffff21 	b.ne	86cb4 <CEcoIPCCMailbox1_Read+0x30>  // b.any
   86cd4:	f9400fe0 	ldr	x0, [sp, #24]
   86cd8:	f9401000 	ldr	x0, [x0, #32]
   86cdc:	b9400000 	ldr	w0, [x0]
   86ce0:	b90017e0 	str	w0, [sp, #20]
   86ce4:	b94017e0 	ldr	w0, [sp, #20]
   86ce8:	12000c01 	and	w1, w0, #0xf
   86cec:	39401fe0 	ldrb	w0, [sp, #7]
   86cf0:	6b00003f 	cmp	w1, w0
   86cf4:	54fffe01 	b.ne	86cb4 <CEcoIPCCMailbox1_Read+0x30>  // b.any
   86cf8:	b94017e0 	ldr	w0, [sp, #20]
   86cfc:	121c6c00 	and	w0, w0, #0xfffffff0
   86d00:	b90017e0 	str	w0, [sp, #20]
   86d04:	b94017e0 	ldr	w0, [sp, #20]
   86d08:	910083ff 	add	sp, sp, #0x20
   86d0c:	d65f03c0 	ret

0000000000086d10 <CEcoIPCCMailbox1_Write>:
   86d10:	d10083ff 	sub	sp, sp, #0x20
   86d14:	f90007e0 	str	x0, [sp, #8]
   86d18:	39001fe1 	strb	w1, [sp, #7]
   86d1c:	b90003e2 	str	w2, [sp]
   86d20:	f94007e0 	ldr	x0, [sp, #8]
   86d24:	f9000fe0 	str	x0, [sp, #24]
   86d28:	b90017ff 	str	wzr, [sp, #20]
   86d2c:	f94007e0 	ldr	x0, [sp, #8]
   86d30:	f100001f 	cmp	x0, #0x0
   86d34:	540002a0 	b.eq	86d88 <CEcoIPCCMailbox1_Write+0x78>  // b.none
   86d38:	b94003e0 	ldr	w0, [sp]
   86d3c:	121c6c00 	and	w0, w0, #0xfffffff0
   86d40:	b90003e0 	str	w0, [sp]
   86d44:	39401fe0 	ldrb	w0, [sp, #7]
   86d48:	b94003e1 	ldr	w1, [sp]
   86d4c:	2a000020 	orr	w0, w1, w0
   86d50:	b90003e0 	str	w0, [sp]
   86d54:	f9400fe0 	ldr	x0, [sp, #24]
   86d58:	f9401000 	ldr	x0, [x0, #32]
   86d5c:	b9403800 	ldr	w0, [x0, #56]
   86d60:	b90017e0 	str	w0, [sp, #20]
   86d64:	b94017e0 	ldr	w0, [sp, #20]
   86d68:	7100001f 	cmp	w0, #0x0
   86d6c:	54ffff4b 	b.lt	86d54 <CEcoIPCCMailbox1_Write+0x44>  // b.tstop
   86d70:	f9400fe0 	ldr	x0, [sp, #24]
   86d74:	f9401000 	ldr	x0, [x0, #32]
   86d78:	aa0003e1 	mov	x1, x0
   86d7c:	b94003e0 	ldr	w0, [sp]
   86d80:	b9002020 	str	w0, [x1, #32]
   86d84:	14000002 	b	86d8c <CEcoIPCCMailbox1_Write+0x7c>
   86d88:	d503201f 	nop
   86d8c:	910083ff 	add	sp, sp, #0x20
   86d90:	d65f03c0 	ret

0000000000086d94 <CEcoIPCCMailbox1_ProcessingByArgs>:
   86d94:	a9a87bfd 	stp	x29, x30, [sp, #-384]!
   86d98:	910003fd 	mov	x29, sp
   86d9c:	f90017e0 	str	x0, [sp, #40]
   86da0:	39009fe1 	strb	w1, [sp, #39]
   86da4:	f9000fe2 	str	x2, [sp, #24]
   86da8:	b90023e3 	str	w3, [sp, #32]
   86dac:	f900b3e4 	str	x4, [sp, #352]
   86db0:	f900b7e5 	str	x5, [sp, #360]
   86db4:	f900bbe6 	str	x6, [sp, #368]
   86db8:	f900bfe7 	str	x7, [sp, #376]
   86dbc:	3d803be0 	str	q0, [sp, #224]
   86dc0:	3d803fe1 	str	q1, [sp, #240]
   86dc4:	3d8043e2 	str	q2, [sp, #256]
   86dc8:	3d8047e3 	str	q3, [sp, #272]
   86dcc:	3d804be4 	str	q4, [sp, #288]
   86dd0:	3d804fe5 	str	q5, [sp, #304]
   86dd4:	3d8053e6 	str	q6, [sp, #320]
   86dd8:	3d8057e7 	str	q7, [sp, #336]
   86ddc:	12800000 	mov	w0, #0xffffffff            	// #-1
   86de0:	b900dfe0 	str	w0, [sp, #220]
   86de4:	b900dbff 	str	wzr, [sp, #216]
   86de8:	a9057fff 	stp	xzr, xzr, [sp, #80]
   86dec:	a9067fff 	stp	xzr, xzr, [sp, #96]
   86df0:	a9077fff 	stp	xzr, xzr, [sp, #112]
   86df4:	a9087fff 	stp	xzr, xzr, [sp, #128]
   86df8:	a9097fff 	stp	xzr, xzr, [sp, #144]
   86dfc:	a90a7fff 	stp	xzr, xzr, [sp, #160]
   86e00:	a90b7fff 	stp	xzr, xzr, [sp, #176]
   86e04:	a90c7fff 	stp	xzr, xzr, [sp, #192]
   86e08:	f94017e0 	ldr	x0, [sp, #40]
   86e0c:	f100001f 	cmp	x0, #0x0
   86e10:	54000081 	b.ne	86e20 <CEcoIPCCMailbox1_ProcessingByArgs+0x8c>  // b.any
   86e14:	b940dfe0 	ldr	w0, [sp, #220]
   86e18:	13003c00 	sxth	w0, w0
   86e1c:	14000066 	b	86fb4 <CEcoIPCCMailbox1_ProcessingByArgs+0x220>
   86e20:	910603e0 	add	x0, sp, #0x180
   86e24:	f9001be0 	str	x0, [sp, #48]
   86e28:	910603e0 	add	x0, sp, #0x180
   86e2c:	f9001fe0 	str	x0, [sp, #56]
   86e30:	910583e0 	add	x0, sp, #0x160
   86e34:	f90023e0 	str	x0, [sp, #64]
   86e38:	128003e0 	mov	w0, #0xffffffe0            	// #-32
   86e3c:	b9004be0 	str	w0, [sp, #72]
   86e40:	12800fe0 	mov	w0, #0xffffff80            	// #-128
   86e44:	b9004fe0 	str	w0, [sp, #76]
   86e48:	b94023e0 	ldr	w0, [sp, #32]
   86e4c:	11000c00 	add	w0, w0, #0x3
   86e50:	531e7400 	lsl	w0, w0, #2
   86e54:	b90053e0 	str	w0, [sp, #80]
   86e58:	b94023e0 	ldr	w0, [sp, #32]
   86e5c:	11000800 	add	w0, w0, #0x2
   86e60:	2a0003e0 	mov	w0, w0
   86e64:	d37ef400 	lsl	x0, x0, #2
   86e68:	910143e1 	add	x1, sp, #0x50
   86e6c:	b820683f 	str	wzr, [x1, x0]
   86e70:	b90057ff 	str	wzr, [sp, #84]
   86e74:	b900dbff 	str	wzr, [sp, #216]
   86e78:	1400001f 	b	86ef4 <CEcoIPCCMailbox1_ProcessingByArgs+0x160>
   86e7c:	b940dbe0 	ldr	w0, [sp, #216]
   86e80:	11000803 	add	w3, w0, #0x2
   86e84:	b9404be1 	ldr	w1, [sp, #72]
   86e88:	f9401be0 	ldr	x0, [sp, #48]
   86e8c:	7100003f 	cmp	w1, #0x0
   86e90:	540000ab 	b.lt	86ea4 <CEcoIPCCMailbox1_ProcessingByArgs+0x110>  // b.tstop
   86e94:	91002c01 	add	x1, x0, #0xb
   86e98:	927df021 	and	x1, x1, #0xfffffffffffffff8
   86e9c:	f9001be1 	str	x1, [sp, #48]
   86ea0:	1400000d 	b	86ed4 <CEcoIPCCMailbox1_ProcessingByArgs+0x140>
   86ea4:	11002022 	add	w2, w1, #0x8
   86ea8:	b9004be2 	str	w2, [sp, #72]
   86eac:	b9404be2 	ldr	w2, [sp, #72]
   86eb0:	7100005f 	cmp	w2, #0x0
   86eb4:	540000ad 	b.le	86ec8 <CEcoIPCCMailbox1_ProcessingByArgs+0x134>
   86eb8:	91002c01 	add	x1, x0, #0xb
   86ebc:	927df021 	and	x1, x1, #0xfffffffffffffff8
   86ec0:	f9001be1 	str	x1, [sp, #48]
   86ec4:	14000004 	b	86ed4 <CEcoIPCCMailbox1_ProcessingByArgs+0x140>
   86ec8:	f9401fe2 	ldr	x2, [sp, #56]
   86ecc:	93407c20 	sxtw	x0, w1
   86ed0:	8b000040 	add	x0, x2, x0
   86ed4:	b9400002 	ldr	w2, [x0]
   86ed8:	93407c60 	sxtw	x0, w3
   86edc:	d37ef400 	lsl	x0, x0, #2
   86ee0:	910143e1 	add	x1, sp, #0x50
   86ee4:	b8206822 	str	w2, [x1, x0]
   86ee8:	b940dbe0 	ldr	w0, [sp, #216]
   86eec:	11000400 	add	w0, w0, #0x1
   86ef0:	b900dbe0 	str	w0, [sp, #216]
   86ef4:	b940dbe0 	ldr	w0, [sp, #216]
   86ef8:	b94023e1 	ldr	w1, [sp, #32]
   86efc:	6b00003f 	cmp	w1, w0
   86f00:	54fffbe8 	b.hi	86e7c <CEcoIPCCMailbox1_ProcessingByArgs+0xe8>  // b.pmore
   86f04:	f94017e0 	ldr	x0, [sp, #40]
   86f08:	f9400000 	ldr	x0, [x0]
   86f0c:	f9401803 	ldr	x3, [x0, #48]
   86f10:	910143e0 	add	x0, sp, #0x50
   86f14:	2a0003e2 	mov	w2, w0
   86f18:	39409fe1 	ldrb	w1, [sp, #39]
   86f1c:	f94017e0 	ldr	x0, [sp, #40]
   86f20:	d63f0060 	blr	x3
   86f24:	f94017e0 	ldr	x0, [sp, #40]
   86f28:	f9400000 	ldr	x0, [x0]
   86f2c:	f9401402 	ldr	x2, [x0, #40]
   86f30:	39409fe1 	ldrb	w1, [sp, #39]
   86f34:	f94017e0 	ldr	x0, [sp, #40]
   86f38:	d63f0040 	blr	x2
   86f3c:	b94057e1 	ldr	w1, [sp, #84]
   86f40:	52b00000 	mov	w0, #0x80000000            	// #-2147483648
   86f44:	6b00003f 	cmp	w1, w0
   86f48:	54000321 	b.ne	86fac <CEcoIPCCMailbox1_ProcessingByArgs+0x218>  // b.any
   86f4c:	f9400fe0 	ldr	x0, [sp, #24]
   86f50:	f100001f 	cmp	x0, #0x0
   86f54:	540002a0 	b.eq	86fa8 <CEcoIPCCMailbox1_ProcessingByArgs+0x214>  // b.none
   86f58:	b900dbff 	str	wzr, [sp, #216]
   86f5c:	1400000f 	b	86f98 <CEcoIPCCMailbox1_ProcessingByArgs+0x204>
   86f60:	b940dbe0 	ldr	w0, [sp, #216]
   86f64:	11000802 	add	w2, w0, #0x2
   86f68:	b980dbe0 	ldrsw	x0, [sp, #216]
   86f6c:	d37ef400 	lsl	x0, x0, #2
   86f70:	f9400fe1 	ldr	x1, [sp, #24]
   86f74:	8b000020 	add	x0, x1, x0
   86f78:	93407c41 	sxtw	x1, w2
   86f7c:	d37ef421 	lsl	x1, x1, #2
   86f80:	910143e2 	add	x2, sp, #0x50
   86f84:	b8616841 	ldr	w1, [x2, x1]
   86f88:	b9000001 	str	w1, [x0]
   86f8c:	b940dbe0 	ldr	w0, [sp, #216]
   86f90:	11000400 	add	w0, w0, #0x1
   86f94:	b900dbe0 	str	w0, [sp, #216]
   86f98:	b940dbe0 	ldr	w0, [sp, #216]
   86f9c:	b94023e1 	ldr	w1, [sp, #32]
   86fa0:	6b00003f 	cmp	w1, w0
   86fa4:	54fffde8 	b.hi	86f60 <CEcoIPCCMailbox1_ProcessingByArgs+0x1cc>  // b.pmore
   86fa8:	b900dfff 	str	wzr, [sp, #220]
   86fac:	b940dfe0 	ldr	w0, [sp, #220]
   86fb0:	13003c00 	sxth	w0, w0
   86fb4:	a8d87bfd 	ldp	x29, x30, [sp], #384
   86fb8:	d65f03c0 	ret

0000000000086fbc <initCEcoIPCCMailbox1>:
   86fbc:	d10083ff 	sub	sp, sp, #0x20
   86fc0:	f90007e0 	str	x0, [sp, #8]
   86fc4:	f90003e1 	str	x1, [sp]
   86fc8:	f94007e0 	ldr	x0, [sp, #8]
   86fcc:	f9000fe0 	str	x0, [sp, #24]
   86fd0:	12800000 	mov	w0, #0xffffffff            	// #-1
   86fd4:	79002fe0 	strh	w0, [sp, #22]
   86fd8:	f94007e0 	ldr	x0, [sp, #8]
   86fdc:	f100001f 	cmp	x0, #0x0
   86fe0:	54000061 	b.ne	86fec <initCEcoIPCCMailbox1+0x30>  // b.any
   86fe4:	79c02fe0 	ldrsh	w0, [sp, #22]
   86fe8:	14000009 	b	8700c <initCEcoIPCCMailbox1+0x50>
   86fec:	f9400fe0 	ldr	x0, [sp, #24]
   86ff0:	f94003e1 	ldr	x1, [sp]
   86ff4:	f9000c01 	str	x1, [x0, #24]
   86ff8:	f9400fe0 	ldr	x0, [sp, #24]
   86ffc:	d2971001 	mov	x1, #0xb880                	// #47232
   87000:	f2a7e001 	movk	x1, #0x3f00, lsl #16
   87004:	f9001001 	str	x1, [x0, #32]
   87008:	52800000 	mov	w0, #0x0                   	// #0
   8700c:	910083ff 	add	sp, sp, #0x20
   87010:	d65f03c0 	ret

0000000000087014 <createCEcoIPCCMailbox1>:
   87014:	d100c3ff 	sub	sp, sp, #0x30
   87018:	f9000fe0 	str	x0, [sp, #24]
   8701c:	f9000be1 	str	x1, [sp, #16]
   87020:	f90007e2 	str	x2, [sp, #8]
   87024:	f90017ff 	str	xzr, [sp, #40]
   87028:	d0000040 	adrp	x0, 91000 <g_xF10BC39A4F2143CF8A1E104650A2C302Factory+0x58>
   8702c:	91028000 	add	x0, x0, #0xa0
   87030:	f90017e0 	str	x0, [sp, #40]
   87034:	f94017e0 	ldr	x0, [sp, #40]
   87038:	b9400800 	ldr	w0, [x0, #8]
   8703c:	7100001f 	cmp	w0, #0x0
   87040:	54000101 	b.ne	87060 <createCEcoIPCCMailbox1+0x4c>  // b.any
   87044:	f94017e0 	ldr	x0, [sp, #40]
   87048:	52800021 	mov	w1, #0x1                   	// #1
   8704c:	b9000801 	str	w1, [x0, #8]
   87050:	f94017e0 	ldr	x0, [sp, #40]
   87054:	d2971001 	mov	x1, #0xb880                	// #47232
   87058:	f2a7e001 	movk	x1, #0x3f00, lsl #16
   8705c:	f9001001 	str	x1, [x0, #32]
   87060:	f94007e0 	ldr	x0, [sp, #8]
   87064:	f94017e1 	ldr	x1, [sp, #40]
   87068:	f9000001 	str	x1, [x0]
   8706c:	52800000 	mov	w0, #0x0                   	// #0
   87070:	9100c3ff 	add	sp, sp, #0x30
   87074:	d65f03c0 	ret

0000000000087078 <deleteCEcoIPCCMailbox1>:
   87078:	d10043ff 	sub	sp, sp, #0x10
   8707c:	f90007e0 	str	x0, [sp, #8]
   87080:	d503201f 	nop
   87084:	910043ff 	add	sp, sp, #0x10
   87088:	d65f03c0 	ret

000000000008708c <CEcoVFB1_AF252188Factory_QueryInterface>:
   8708c:	a9bd7bfd 	stp	x29, x30, [sp, #-48]!
   87090:	910003fd 	mov	x29, sp
   87094:	f90017e0 	str	x0, [sp, #40]
   87098:	f90013e1 	str	x1, [sp, #32]
   8709c:	f9000fe2 	str	x2, [sp, #24]
   870a0:	f94013e0 	ldr	x0, [sp, #32]
   870a4:	39400001 	ldrb	w1, [x0]
   870a8:	90000440 	adrp	x0, 10f000 <EcoVirtualMemory1Lab_623E1838_MemoryMap+0x7d610>
   870ac:	91290000 	add	x0, x0, #0xa40
   870b0:	39400000 	ldrb	w0, [x0]
   870b4:	6b00003f 	cmp	w1, w0
   870b8:	54001121 	b.ne	872dc <CEcoVFB1_AF252188Factory_QueryInterface+0x250>  // b.any
   870bc:	f94013e0 	ldr	x0, [sp, #32]
   870c0:	91000400 	add	x0, x0, #0x1
   870c4:	39400001 	ldrb	w1, [x0]
   870c8:	90000440 	adrp	x0, 10f000 <EcoVirtualMemory1Lab_623E1838_MemoryMap+0x7d610>
   870cc:	91290400 	add	x0, x0, #0xa41
   870d0:	39400000 	ldrb	w0, [x0]
   870d4:	6b00003f 	cmp	w1, w0
   870d8:	54001021 	b.ne	872dc <CEcoVFB1_AF252188Factory_QueryInterface+0x250>  // b.any
   870dc:	f94013e0 	ldr	x0, [sp, #32]
   870e0:	91000800 	add	x0, x0, #0x2
   870e4:	39400001 	ldrb	w1, [x0]
   870e8:	90000440 	adrp	x0, 10f000 <EcoVirtualMemory1Lab_623E1838_MemoryMap+0x7d610>
   870ec:	91290800 	add	x0, x0, #0xa42
   870f0:	39400000 	ldrb	w0, [x0]
   870f4:	6b00003f 	cmp	w1, w0
   870f8:	54000f21 	b.ne	872dc <CEcoVFB1_AF252188Factory_QueryInterface+0x250>  // b.any
   870fc:	f94013e0 	ldr	x0, [sp, #32]
   87100:	91000c00 	add	x0, x0, #0x3
   87104:	39400001 	ldrb	w1, [x0]
   87108:	90000440 	adrp	x0, 10f000 <EcoVirtualMemory1Lab_623E1838_MemoryMap+0x7d610>
   8710c:	91290c00 	add	x0, x0, #0xa43
   87110:	39400000 	ldrb	w0, [x0]
   87114:	6b00003f 	cmp	w1, w0
   87118:	54000e21 	b.ne	872dc <CEcoVFB1_AF252188Factory_QueryInterface+0x250>  // b.any
   8711c:	f94013e0 	ldr	x0, [sp, #32]
   87120:	91001000 	add	x0, x0, #0x4
   87124:	39400001 	ldrb	w1, [x0]
   87128:	90000440 	adrp	x0, 10f000 <EcoVirtualMemory1Lab_623E1838_MemoryMap+0x7d610>
   8712c:	91291000 	add	x0, x0, #0xa44
   87130:	39400000 	ldrb	w0, [x0]
   87134:	6b00003f 	cmp	w1, w0
   87138:	54000d21 	b.ne	872dc <CEcoVFB1_AF252188Factory_QueryInterface+0x250>  // b.any
   8713c:	f94013e0 	ldr	x0, [sp, #32]
   87140:	91001400 	add	x0, x0, #0x5
   87144:	39400001 	ldrb	w1, [x0]
   87148:	90000440 	adrp	x0, 10f000 <EcoVirtualMemory1Lab_623E1838_MemoryMap+0x7d610>
   8714c:	91291400 	add	x0, x0, #0xa45
   87150:	39400000 	ldrb	w0, [x0]
   87154:	6b00003f 	cmp	w1, w0
   87158:	54000c21 	b.ne	872dc <CEcoVFB1_AF252188Factory_QueryInterface+0x250>  // b.any
   8715c:	f94013e0 	ldr	x0, [sp, #32]
   87160:	91001800 	add	x0, x0, #0x6
   87164:	39400001 	ldrb	w1, [x0]
   87168:	90000440 	adrp	x0, 10f000 <EcoVirtualMemory1Lab_623E1838_MemoryMap+0x7d610>
   8716c:	91291800 	add	x0, x0, #0xa46
   87170:	39400000 	ldrb	w0, [x0]
   87174:	6b00003f 	cmp	w1, w0
   87178:	54000b21 	b.ne	872dc <CEcoVFB1_AF252188Factory_QueryInterface+0x250>  // b.any
   8717c:	f94013e0 	ldr	x0, [sp, #32]
   87180:	91001c00 	add	x0, x0, #0x7
   87184:	39400001 	ldrb	w1, [x0]
   87188:	90000440 	adrp	x0, 10f000 <EcoVirtualMemory1Lab_623E1838_MemoryMap+0x7d610>
   8718c:	91291c00 	add	x0, x0, #0xa47
   87190:	39400000 	ldrb	w0, [x0]
   87194:	6b00003f 	cmp	w1, w0
   87198:	54000a21 	b.ne	872dc <CEcoVFB1_AF252188Factory_QueryInterface+0x250>  // b.any
   8719c:	f94013e0 	ldr	x0, [sp, #32]
   871a0:	91002000 	add	x0, x0, #0x8
   871a4:	39400001 	ldrb	w1, [x0]
   871a8:	90000440 	adrp	x0, 10f000 <EcoVirtualMemory1Lab_623E1838_MemoryMap+0x7d610>
   871ac:	91292000 	add	x0, x0, #0xa48
   871b0:	39400000 	ldrb	w0, [x0]
   871b4:	6b00003f 	cmp	w1, w0
   871b8:	54000921 	b.ne	872dc <CEcoVFB1_AF252188Factory_QueryInterface+0x250>  // b.any
   871bc:	f94013e0 	ldr	x0, [sp, #32]
   871c0:	91002400 	add	x0, x0, #0x9
   871c4:	39400001 	ldrb	w1, [x0]
   871c8:	90000440 	adrp	x0, 10f000 <EcoVirtualMemory1Lab_623E1838_MemoryMap+0x7d610>
   871cc:	91292400 	add	x0, x0, #0xa49
   871d0:	39400000 	ldrb	w0, [x0]
   871d4:	6b00003f 	cmp	w1, w0
   871d8:	54000821 	b.ne	872dc <CEcoVFB1_AF252188Factory_QueryInterface+0x250>  // b.any
   871dc:	f94013e0 	ldr	x0, [sp, #32]
   871e0:	91002800 	add	x0, x0, #0xa
   871e4:	39400001 	ldrb	w1, [x0]
   871e8:	90000440 	adrp	x0, 10f000 <EcoVirtualMemory1Lab_623E1838_MemoryMap+0x7d610>
   871ec:	91292800 	add	x0, x0, #0xa4a
   871f0:	39400000 	ldrb	w0, [x0]
   871f4:	6b00003f 	cmp	w1, w0
   871f8:	54000721 	b.ne	872dc <CEcoVFB1_AF252188Factory_QueryInterface+0x250>  // b.any
   871fc:	f94013e0 	ldr	x0, [sp, #32]
   87200:	91002c00 	add	x0, x0, #0xb
   87204:	39400001 	ldrb	w1, [x0]
   87208:	90000440 	adrp	x0, 10f000 <EcoVirtualMemory1Lab_623E1838_MemoryMap+0x7d610>
   8720c:	91292c00 	add	x0, x0, #0xa4b
   87210:	39400000 	ldrb	w0, [x0]
   87214:	6b00003f 	cmp	w1, w0
   87218:	54000621 	b.ne	872dc <CEcoVFB1_AF252188Factory_QueryInterface+0x250>  // b.any
   8721c:	f94013e0 	ldr	x0, [sp, #32]
   87220:	91003000 	add	x0, x0, #0xc
   87224:	39400001 	ldrb	w1, [x0]
   87228:	90000440 	adrp	x0, 10f000 <EcoVirtualMemory1Lab_623E1838_MemoryMap+0x7d610>
   8722c:	91293000 	add	x0, x0, #0xa4c
   87230:	39400000 	ldrb	w0, [x0]
   87234:	6b00003f 	cmp	w1, w0
   87238:	54000521 	b.ne	872dc <CEcoVFB1_AF252188Factory_QueryInterface+0x250>  // b.any
   8723c:	f94013e0 	ldr	x0, [sp, #32]
   87240:	91003400 	add	x0, x0, #0xd
   87244:	39400001 	ldrb	w1, [x0]
   87248:	90000440 	adrp	x0, 10f000 <EcoVirtualMemory1Lab_623E1838_MemoryMap+0x7d610>
   8724c:	91293400 	add	x0, x0, #0xa4d
   87250:	39400000 	ldrb	w0, [x0]
   87254:	6b00003f 	cmp	w1, w0
   87258:	54000421 	b.ne	872dc <CEcoVFB1_AF252188Factory_QueryInterface+0x250>  // b.any
   8725c:	f94013e0 	ldr	x0, [sp, #32]
   87260:	91003800 	add	x0, x0, #0xe
   87264:	39400001 	ldrb	w1, [x0]
   87268:	90000440 	adrp	x0, 10f000 <EcoVirtualMemory1Lab_623E1838_MemoryMap+0x7d610>
   8726c:	91293800 	add	x0, x0, #0xa4e
   87270:	39400000 	ldrb	w0, [x0]
   87274:	6b00003f 	cmp	w1, w0
   87278:	54000321 	b.ne	872dc <CEcoVFB1_AF252188Factory_QueryInterface+0x250>  // b.any
   8727c:	f94013e0 	ldr	x0, [sp, #32]
   87280:	91003c00 	add	x0, x0, #0xf
   87284:	39400001 	ldrb	w1, [x0]
   87288:	90000440 	adrp	x0, 10f000 <EcoVirtualMemory1Lab_623E1838_MemoryMap+0x7d610>
   8728c:	91293c00 	add	x0, x0, #0xa4f
   87290:	39400000 	ldrb	w0, [x0]
   87294:	6b00003f 	cmp	w1, w0
   87298:	54000221 	b.ne	872dc <CEcoVFB1_AF252188Factory_QueryInterface+0x250>  // b.any
   8729c:	f94013e0 	ldr	x0, [sp, #32]
   872a0:	91004000 	add	x0, x0, #0x10
   872a4:	39400001 	ldrb	w1, [x0]
   872a8:	90000440 	adrp	x0, 10f000 <EcoVirtualMemory1Lab_623E1838_MemoryMap+0x7d610>
   872ac:	91294000 	add	x0, x0, #0xa50
   872b0:	39400000 	ldrb	w0, [x0]
   872b4:	6b00003f 	cmp	w1, w0
   872b8:	54000121 	b.ne	872dc <CEcoVFB1_AF252188Factory_QueryInterface+0x250>  // b.any
   872bc:	f94013e0 	ldr	x0, [sp, #32]
   872c0:	91004400 	add	x0, x0, #0x11
   872c4:	39400001 	ldrb	w1, [x0]
   872c8:	90000440 	adrp	x0, 10f000 <EcoVirtualMemory1Lab_623E1838_MemoryMap+0x7d610>
   872cc:	91294400 	add	x0, x0, #0xa51
   872d0:	39400000 	ldrb	w0, [x0]
   872d4:	6b00003f 	cmp	w1, w0
   872d8:	54001200 	b.eq	87518 <CEcoVFB1_AF252188Factory_QueryInterface+0x48c>  // b.none
   872dc:	f94013e0 	ldr	x0, [sp, #32]
   872e0:	39400001 	ldrb	w1, [x0]
   872e4:	90000440 	adrp	x0, 10f000 <EcoVirtualMemory1Lab_623E1838_MemoryMap+0x7d610>
   872e8:	91296000 	add	x0, x0, #0xa58
   872ec:	39400000 	ldrb	w0, [x0]
   872f0:	6b00003f 	cmp	w1, w0
   872f4:	540012a1 	b.ne	87548 <CEcoVFB1_AF252188Factory_QueryInterface+0x4bc>  // b.any
   872f8:	f94013e0 	ldr	x0, [sp, #32]
   872fc:	91000400 	add	x0, x0, #0x1
   87300:	39400001 	ldrb	w1, [x0]
   87304:	90000440 	adrp	x0, 10f000 <EcoVirtualMemory1Lab_623E1838_MemoryMap+0x7d610>
   87308:	91296400 	add	x0, x0, #0xa59
   8730c:	39400000 	ldrb	w0, [x0]
   87310:	6b00003f 	cmp	w1, w0
   87314:	540011a1 	b.ne	87548 <CEcoVFB1_AF252188Factory_QueryInterface+0x4bc>  // b.any
   87318:	f94013e0 	ldr	x0, [sp, #32]
   8731c:	91000800 	add	x0, x0, #0x2
   87320:	39400001 	ldrb	w1, [x0]
   87324:	90000440 	adrp	x0, 10f000 <EcoVirtualMemory1Lab_623E1838_MemoryMap+0x7d610>
   87328:	91296800 	add	x0, x0, #0xa5a
   8732c:	39400000 	ldrb	w0, [x0]
   87330:	6b00003f 	cmp	w1, w0
   87334:	540010a1 	b.ne	87548 <CEcoVFB1_AF252188Factory_QueryInterface+0x4bc>  // b.any
   87338:	f94013e0 	ldr	x0, [sp, #32]
   8733c:	91000c00 	add	x0, x0, #0x3
   87340:	39400001 	ldrb	w1, [x0]
   87344:	90000440 	adrp	x0, 10f000 <EcoVirtualMemory1Lab_623E1838_MemoryMap+0x7d610>
   87348:	91296c00 	add	x0, x0, #0xa5b
   8734c:	39400000 	ldrb	w0, [x0]
   87350:	6b00003f 	cmp	w1, w0
   87354:	54000fa1 	b.ne	87548 <CEcoVFB1_AF252188Factory_QueryInterface+0x4bc>  // b.any
   87358:	f94013e0 	ldr	x0, [sp, #32]
   8735c:	91001000 	add	x0, x0, #0x4
   87360:	39400001 	ldrb	w1, [x0]
   87364:	90000440 	adrp	x0, 10f000 <EcoVirtualMemory1Lab_623E1838_MemoryMap+0x7d610>
   87368:	91297000 	add	x0, x0, #0xa5c
   8736c:	39400000 	ldrb	w0, [x0]
   87370:	6b00003f 	cmp	w1, w0
   87374:	54000ea1 	b.ne	87548 <CEcoVFB1_AF252188Factory_QueryInterface+0x4bc>  // b.any
   87378:	f94013e0 	ldr	x0, [sp, #32]
   8737c:	91001400 	add	x0, x0, #0x5
   87380:	39400001 	ldrb	w1, [x0]
   87384:	90000440 	adrp	x0, 10f000 <EcoVirtualMemory1Lab_623E1838_MemoryMap+0x7d610>
   87388:	91297400 	add	x0, x0, #0xa5d
   8738c:	39400000 	ldrb	w0, [x0]
   87390:	6b00003f 	cmp	w1, w0
   87394:	54000da1 	b.ne	87548 <CEcoVFB1_AF252188Factory_QueryInterface+0x4bc>  // b.any
   87398:	f94013e0 	ldr	x0, [sp, #32]
   8739c:	91001800 	add	x0, x0, #0x6
   873a0:	39400001 	ldrb	w1, [x0]
   873a4:	90000440 	adrp	x0, 10f000 <EcoVirtualMemory1Lab_623E1838_MemoryMap+0x7d610>
   873a8:	91297800 	add	x0, x0, #0xa5e
   873ac:	39400000 	ldrb	w0, [x0]
   873b0:	6b00003f 	cmp	w1, w0
   873b4:	54000ca1 	b.ne	87548 <CEcoVFB1_AF252188Factory_QueryInterface+0x4bc>  // b.any
   873b8:	f94013e0 	ldr	x0, [sp, #32]
   873bc:	91001c00 	add	x0, x0, #0x7
   873c0:	39400001 	ldrb	w1, [x0]
   873c4:	90000440 	adrp	x0, 10f000 <EcoVirtualMemory1Lab_623E1838_MemoryMap+0x7d610>
   873c8:	91297c00 	add	x0, x0, #0xa5f
   873cc:	39400000 	ldrb	w0, [x0]
   873d0:	6b00003f 	cmp	w1, w0
   873d4:	54000ba1 	b.ne	87548 <CEcoVFB1_AF252188Factory_QueryInterface+0x4bc>  // b.any
   873d8:	f94013e0 	ldr	x0, [sp, #32]
   873dc:	91002000 	add	x0, x0, #0x8
   873e0:	39400001 	ldrb	w1, [x0]
   873e4:	90000440 	adrp	x0, 10f000 <EcoVirtualMemory1Lab_623E1838_MemoryMap+0x7d610>
   873e8:	91298000 	add	x0, x0, #0xa60
   873ec:	39400000 	ldrb	w0, [x0]
   873f0:	6b00003f 	cmp	w1, w0
   873f4:	54000aa1 	b.ne	87548 <CEcoVFB1_AF252188Factory_QueryInterface+0x4bc>  // b.any
   873f8:	f94013e0 	ldr	x0, [sp, #32]
   873fc:	91002400 	add	x0, x0, #0x9
   87400:	39400001 	ldrb	w1, [x0]
   87404:	90000440 	adrp	x0, 10f000 <EcoVirtualMemory1Lab_623E1838_MemoryMap+0x7d610>
   87408:	91298400 	add	x0, x0, #0xa61
   8740c:	39400000 	ldrb	w0, [x0]
   87410:	6b00003f 	cmp	w1, w0
   87414:	540009a1 	b.ne	87548 <CEcoVFB1_AF252188Factory_QueryInterface+0x4bc>  // b.any
   87418:	f94013e0 	ldr	x0, [sp, #32]
   8741c:	91002800 	add	x0, x0, #0xa
   87420:	39400001 	ldrb	w1, [x0]
   87424:	90000440 	adrp	x0, 10f000 <EcoVirtualMemory1Lab_623E1838_MemoryMap+0x7d610>
   87428:	91298800 	add	x0, x0, #0xa62
   8742c:	39400000 	ldrb	w0, [x0]
   87430:	6b00003f 	cmp	w1, w0
   87434:	540008a1 	b.ne	87548 <CEcoVFB1_AF252188Factory_QueryInterface+0x4bc>  // b.any
   87438:	f94013e0 	ldr	x0, [sp, #32]
   8743c:	91002c00 	add	x0, x0, #0xb
   87440:	39400001 	ldrb	w1, [x0]
   87444:	90000440 	adrp	x0, 10f000 <EcoVirtualMemory1Lab_623E1838_MemoryMap+0x7d610>
   87448:	91298c00 	add	x0, x0, #0xa63
   8744c:	39400000 	ldrb	w0, [x0]
   87450:	6b00003f 	cmp	w1, w0
   87454:	540007a1 	b.ne	87548 <CEcoVFB1_AF252188Factory_QueryInterface+0x4bc>  // b.any
   87458:	f94013e0 	ldr	x0, [sp, #32]
   8745c:	91003000 	add	x0, x0, #0xc
   87460:	39400001 	ldrb	w1, [x0]
   87464:	90000440 	adrp	x0, 10f000 <EcoVirtualMemory1Lab_623E1838_MemoryMap+0x7d610>
   87468:	91299000 	add	x0, x0, #0xa64
   8746c:	39400000 	ldrb	w0, [x0]
   87470:	6b00003f 	cmp	w1, w0
   87474:	540006a1 	b.ne	87548 <CEcoVFB1_AF252188Factory_QueryInterface+0x4bc>  // b.any
   87478:	f94013e0 	ldr	x0, [sp, #32]
   8747c:	91003400 	add	x0, x0, #0xd
   87480:	39400001 	ldrb	w1, [x0]
   87484:	90000440 	adrp	x0, 10f000 <EcoVirtualMemory1Lab_623E1838_MemoryMap+0x7d610>
   87488:	91299400 	add	x0, x0, #0xa65
   8748c:	39400000 	ldrb	w0, [x0]
   87490:	6b00003f 	cmp	w1, w0
   87494:	540005a1 	b.ne	87548 <CEcoVFB1_AF252188Factory_QueryInterface+0x4bc>  // b.any
   87498:	f94013e0 	ldr	x0, [sp, #32]
   8749c:	91003800 	add	x0, x0, #0xe
   874a0:	39400001 	ldrb	w1, [x0]
   874a4:	90000440 	adrp	x0, 10f000 <EcoVirtualMemory1Lab_623E1838_MemoryMap+0x7d610>
   874a8:	91299800 	add	x0, x0, #0xa66
   874ac:	39400000 	ldrb	w0, [x0]
   874b0:	6b00003f 	cmp	w1, w0
   874b4:	540004a1 	b.ne	87548 <CEcoVFB1_AF252188Factory_QueryInterface+0x4bc>  // b.any
   874b8:	f94013e0 	ldr	x0, [sp, #32]
   874bc:	91003c00 	add	x0, x0, #0xf
   874c0:	39400001 	ldrb	w1, [x0]
   874c4:	90000440 	adrp	x0, 10f000 <EcoVirtualMemory1Lab_623E1838_MemoryMap+0x7d610>
   874c8:	91299c00 	add	x0, x0, #0xa67
   874cc:	39400000 	ldrb	w0, [x0]
   874d0:	6b00003f 	cmp	w1, w0
   874d4:	540003a1 	b.ne	87548 <CEcoVFB1_AF252188Factory_QueryInterface+0x4bc>  // b.any
   874d8:	f94013e0 	ldr	x0, [sp, #32]
   874dc:	91004000 	add	x0, x0, #0x10
   874e0:	39400001 	ldrb	w1, [x0]
   874e4:	90000440 	adrp	x0, 10f000 <EcoVirtualMemory1Lab_623E1838_MemoryMap+0x7d610>
   874e8:	9129a000 	add	x0, x0, #0xa68
   874ec:	39400000 	ldrb	w0, [x0]
   874f0:	6b00003f 	cmp	w1, w0
   874f4:	540002a1 	b.ne	87548 <CEcoVFB1_AF252188Factory_QueryInterface+0x4bc>  // b.any
   874f8:	f94013e0 	ldr	x0, [sp, #32]
   874fc:	91004400 	add	x0, x0, #0x11
   87500:	39400001 	ldrb	w1, [x0]
   87504:	90000440 	adrp	x0, 10f000 <EcoVirtualMemory1Lab_623E1838_MemoryMap+0x7d610>
   87508:	9129a400 	add	x0, x0, #0xa69
   8750c:	39400000 	ldrb	w0, [x0]
   87510:	6b00003f 	cmp	w1, w0
   87514:	540001a1 	b.ne	87548 <CEcoVFB1_AF252188Factory_QueryInterface+0x4bc>  // b.any
   87518:	f9400fe0 	ldr	x0, [sp, #24]
   8751c:	f94017e1 	ldr	x1, [sp, #40]
   87520:	f9000001 	str	x1, [x0]
   87524:	f9400fe0 	ldr	x0, [sp, #24]
   87528:	f9400000 	ldr	x0, [x0]
   8752c:	f9400000 	ldr	x0, [x0]
   87530:	f9400401 	ldr	x1, [x0, #8]
   87534:	f9400fe0 	ldr	x0, [sp, #24]
   87538:	f9400000 	ldr	x0, [x0]
   8753c:	d63f0020 	blr	x1
   87540:	52800000 	mov	w0, #0x0                   	// #0
   87544:	14000004 	b	87554 <CEcoVFB1_AF252188Factory_QueryInterface+0x4c8>
   87548:	f9400fe0 	ldr	x0, [sp, #24]
   8754c:	f900001f 	str	xzr, [x0]
   87550:	12800240 	mov	w0, #0xffffffed            	// #-19
   87554:	a8c37bfd 	ldp	x29, x30, [sp], #48
   87558:	d65f03c0 	ret

000000000008755c <CEcoVFB1_AF252188Factory_AddRef>:
   8755c:	d10083ff 	sub	sp, sp, #0x20
   87560:	f90007e0 	str	x0, [sp, #8]
   87564:	f94007e0 	ldr	x0, [sp, #8]
   87568:	f9000fe0 	str	x0, [sp, #24]
   8756c:	f94007e0 	ldr	x0, [sp, #8]
   87570:	f100001f 	cmp	x0, #0x0
   87574:	54000061 	b.ne	87580 <CEcoVFB1_AF252188Factory_AddRef+0x24>  // b.any
   87578:	12800000 	mov	w0, #0xffffffff            	// #-1
   8757c:	14000008 	b	8759c <CEcoVFB1_AF252188Factory_AddRef+0x40>
   87580:	f9400fe0 	ldr	x0, [sp, #24]
   87584:	b9400800 	ldr	w0, [x0, #8]
   87588:	11000401 	add	w1, w0, #0x1
   8758c:	f9400fe0 	ldr	x0, [sp, #24]
   87590:	b9000801 	str	w1, [x0, #8]
   87594:	f9400fe0 	ldr	x0, [sp, #24]
   87598:	b9400800 	ldr	w0, [x0, #8]
   8759c:	910083ff 	add	sp, sp, #0x20
   875a0:	d65f03c0 	ret

00000000000875a4 <CEcoVFB1_AF252188Factory_Release>:
   875a4:	d10083ff 	sub	sp, sp, #0x20
   875a8:	f90007e0 	str	x0, [sp, #8]
   875ac:	f94007e0 	ldr	x0, [sp, #8]
   875b0:	f9000fe0 	str	x0, [sp, #24]
   875b4:	f94007e0 	ldr	x0, [sp, #8]
   875b8:	f100001f 	cmp	x0, #0x0
   875bc:	54000061 	b.ne	875c8 <CEcoVFB1_AF252188Factory_Release+0x24>  // b.any
   875c0:	12800000 	mov	w0, #0xffffffff            	// #-1
   875c4:	1400000e 	b	875fc <CEcoVFB1_AF252188Factory_Release+0x58>
   875c8:	f9400fe0 	ldr	x0, [sp, #24]
   875cc:	b9400800 	ldr	w0, [x0, #8]
   875d0:	51000401 	sub	w1, w0, #0x1
   875d4:	f9400fe0 	ldr	x0, [sp, #24]
   875d8:	b9000801 	str	w1, [x0, #8]
   875dc:	f9400fe0 	ldr	x0, [sp, #24]
   875e0:	b9400800 	ldr	w0, [x0, #8]
   875e4:	7100001f 	cmp	w0, #0x0
   875e8:	54000061 	b.ne	875f4 <CEcoVFB1_AF252188Factory_Release+0x50>  // b.any
   875ec:	52800000 	mov	w0, #0x0                   	// #0
   875f0:	14000003 	b	875fc <CEcoVFB1_AF252188Factory_Release+0x58>
   875f4:	f9400fe0 	ldr	x0, [sp, #24]
   875f8:	b9400800 	ldr	w0, [x0, #8]
   875fc:	910083ff 	add	sp, sp, #0x20
   87600:	d65f03c0 	ret

0000000000087604 <CEcoVFB1_AF252188Factory_Init>:
   87604:	a9bc7bfd 	stp	x29, x30, [sp, #-64]!
   87608:	910003fd 	mov	x29, sp
   8760c:	f90017e0 	str	x0, [sp, #40]
   87610:	f90013e1 	str	x1, [sp, #32]
   87614:	f9000fe2 	str	x2, [sp, #24]
   87618:	f94017e0 	ldr	x0, [sp, #40]
   8761c:	f9001fe0 	str	x0, [sp, #56]
   87620:	12800000 	mov	w0, #0xffffffff            	// #-1
   87624:	79006fe0 	strh	w0, [sp, #54]
   87628:	f94017e0 	ldr	x0, [sp, #40]
   8762c:	f100001f 	cmp	x0, #0x0
   87630:	54000061 	b.ne	8763c <CEcoVFB1_AF252188Factory_Init+0x38>  // b.any
   87634:	12800220 	mov	w0, #0xffffffee            	// #-18
   87638:	14000008 	b	87658 <CEcoVFB1_AF252188Factory_Init+0x54>
   8763c:	f9401fe0 	ldr	x0, [sp, #56]
   87640:	f9400c02 	ldr	x2, [x0, #24]
   87644:	f94013e1 	ldr	x1, [sp, #32]
   87648:	f9400fe0 	ldr	x0, [sp, #24]
   8764c:	d63f0040 	blr	x2
   87650:	79006fe0 	strh	w0, [sp, #54]
   87654:	79c06fe0 	ldrsh	w0, [sp, #54]
   87658:	a8c47bfd 	ldp	x29, x30, [sp], #64
   8765c:	d65f03c0 	ret

0000000000087660 <CEcoVFB1_AF252188Factory_Alloc>:
   87660:	a9ba7bfd 	stp	x29, x30, [sp, #-96]!
   87664:	910003fd 	mov	x29, sp
   87668:	f9001fe0 	str	x0, [sp, #56]
   8766c:	f9001be1 	str	x1, [sp, #48]
   87670:	f90017e2 	str	x2, [sp, #40]
   87674:	f90013e3 	str	x3, [sp, #32]
   87678:	f9000fe4 	str	x4, [sp, #24]
   8767c:	f9401fe0 	ldr	x0, [sp, #56]
   87680:	f9002fe0 	str	x0, [sp, #88]
   87684:	f90027ff 	str	xzr, [sp, #72]
   87688:	12800000 	mov	w0, #0xffffffff            	// #-1
   8768c:	7900afe0 	strh	w0, [sp, #86]
   87690:	f9401fe0 	ldr	x0, [sp, #56]
   87694:	f100001f 	cmp	x0, #0x0
   87698:	54000061 	b.ne	876a4 <CEcoVFB1_AF252188Factory_Alloc+0x44>  // b.any
   8769c:	12800220 	mov	w0, #0xffffffee            	// #-18
   876a0:	140000bc 	b	87990 <CEcoVFB1_AF252188Factory_Alloc+0x330>
   876a4:	f94017e0 	ldr	x0, [sp, #40]
   876a8:	f100001f 	cmp	x0, #0x0
   876ac:	54001240 	b.eq	878f4 <CEcoVFB1_AF252188Factory_Alloc+0x294>  // b.none
   876b0:	f94013e0 	ldr	x0, [sp, #32]
   876b4:	39400001 	ldrb	w1, [x0]
   876b8:	90000440 	adrp	x0, 10f000 <EcoVirtualMemory1Lab_623E1838_MemoryMap+0x7d610>
   876bc:	91290000 	add	x0, x0, #0xa40
   876c0:	39400000 	ldrb	w0, [x0]
   876c4:	6b00003f 	cmp	w1, w0
   876c8:	54001121 	b.ne	878ec <CEcoVFB1_AF252188Factory_Alloc+0x28c>  // b.any
   876cc:	f94013e0 	ldr	x0, [sp, #32]
   876d0:	91000400 	add	x0, x0, #0x1
   876d4:	39400001 	ldrb	w1, [x0]
   876d8:	90000440 	adrp	x0, 10f000 <EcoVirtualMemory1Lab_623E1838_MemoryMap+0x7d610>
   876dc:	91290400 	add	x0, x0, #0xa41
   876e0:	39400000 	ldrb	w0, [x0]
   876e4:	6b00003f 	cmp	w1, w0
   876e8:	54001021 	b.ne	878ec <CEcoVFB1_AF252188Factory_Alloc+0x28c>  // b.any
   876ec:	f94013e0 	ldr	x0, [sp, #32]
   876f0:	91000800 	add	x0, x0, #0x2
   876f4:	39400001 	ldrb	w1, [x0]
   876f8:	90000440 	adrp	x0, 10f000 <EcoVirtualMemory1Lab_623E1838_MemoryMap+0x7d610>
   876fc:	91290800 	add	x0, x0, #0xa42
   87700:	39400000 	ldrb	w0, [x0]
   87704:	6b00003f 	cmp	w1, w0
   87708:	54000f21 	b.ne	878ec <CEcoVFB1_AF252188Factory_Alloc+0x28c>  // b.any
   8770c:	f94013e0 	ldr	x0, [sp, #32]
   87710:	91000c00 	add	x0, x0, #0x3
   87714:	39400001 	ldrb	w1, [x0]
   87718:	90000440 	adrp	x0, 10f000 <EcoVirtualMemory1Lab_623E1838_MemoryMap+0x7d610>
   8771c:	91290c00 	add	x0, x0, #0xa43
   87720:	39400000 	ldrb	w0, [x0]
   87724:	6b00003f 	cmp	w1, w0
   87728:	54000e21 	b.ne	878ec <CEcoVFB1_AF252188Factory_Alloc+0x28c>  // b.any
   8772c:	f94013e0 	ldr	x0, [sp, #32]
   87730:	91001000 	add	x0, x0, #0x4
   87734:	39400001 	ldrb	w1, [x0]
   87738:	90000440 	adrp	x0, 10f000 <EcoVirtualMemory1Lab_623E1838_MemoryMap+0x7d610>
   8773c:	91291000 	add	x0, x0, #0xa44
   87740:	39400000 	ldrb	w0, [x0]
   87744:	6b00003f 	cmp	w1, w0
   87748:	54000d21 	b.ne	878ec <CEcoVFB1_AF252188Factory_Alloc+0x28c>  // b.any
   8774c:	f94013e0 	ldr	x0, [sp, #32]
   87750:	91001400 	add	x0, x0, #0x5
   87754:	39400001 	ldrb	w1, [x0]
   87758:	90000440 	adrp	x0, 10f000 <EcoVirtualMemory1Lab_623E1838_MemoryMap+0x7d610>
   8775c:	91291400 	add	x0, x0, #0xa45
   87760:	39400000 	ldrb	w0, [x0]
   87764:	6b00003f 	cmp	w1, w0
   87768:	54000c21 	b.ne	878ec <CEcoVFB1_AF252188Factory_Alloc+0x28c>  // b.any
   8776c:	f94013e0 	ldr	x0, [sp, #32]
   87770:	91001800 	add	x0, x0, #0x6
   87774:	39400001 	ldrb	w1, [x0]
   87778:	90000440 	adrp	x0, 10f000 <EcoVirtualMemory1Lab_623E1838_MemoryMap+0x7d610>
   8777c:	91291800 	add	x0, x0, #0xa46
   87780:	39400000 	ldrb	w0, [x0]
   87784:	6b00003f 	cmp	w1, w0
   87788:	54000b21 	b.ne	878ec <CEcoVFB1_AF252188Factory_Alloc+0x28c>  // b.any
   8778c:	f94013e0 	ldr	x0, [sp, #32]
   87790:	91001c00 	add	x0, x0, #0x7
   87794:	39400001 	ldrb	w1, [x0]
   87798:	90000440 	adrp	x0, 10f000 <EcoVirtualMemory1Lab_623E1838_MemoryMap+0x7d610>
   8779c:	91291c00 	add	x0, x0, #0xa47
   877a0:	39400000 	ldrb	w0, [x0]
   877a4:	6b00003f 	cmp	w1, w0
   877a8:	54000a21 	b.ne	878ec <CEcoVFB1_AF252188Factory_Alloc+0x28c>  // b.any
   877ac:	f94013e0 	ldr	x0, [sp, #32]
   877b0:	91002000 	add	x0, x0, #0x8
   877b4:	39400001 	ldrb	w1, [x0]
   877b8:	90000440 	adrp	x0, 10f000 <EcoVirtualMemory1Lab_623E1838_MemoryMap+0x7d610>
   877bc:	91292000 	add	x0, x0, #0xa48
   877c0:	39400000 	ldrb	w0, [x0]
   877c4:	6b00003f 	cmp	w1, w0
   877c8:	54000921 	b.ne	878ec <CEcoVFB1_AF252188Factory_Alloc+0x28c>  // b.any
   877cc:	f94013e0 	ldr	x0, [sp, #32]
   877d0:	91002400 	add	x0, x0, #0x9
   877d4:	39400001 	ldrb	w1, [x0]
   877d8:	90000440 	adrp	x0, 10f000 <EcoVirtualMemory1Lab_623E1838_MemoryMap+0x7d610>
   877dc:	91292400 	add	x0, x0, #0xa49
   877e0:	39400000 	ldrb	w0, [x0]
   877e4:	6b00003f 	cmp	w1, w0
   877e8:	54000821 	b.ne	878ec <CEcoVFB1_AF252188Factory_Alloc+0x28c>  // b.any
   877ec:	f94013e0 	ldr	x0, [sp, #32]
   877f0:	91002800 	add	x0, x0, #0xa
   877f4:	39400001 	ldrb	w1, [x0]
   877f8:	90000440 	adrp	x0, 10f000 <EcoVirtualMemory1Lab_623E1838_MemoryMap+0x7d610>
   877fc:	91292800 	add	x0, x0, #0xa4a
   87800:	39400000 	ldrb	w0, [x0]
   87804:	6b00003f 	cmp	w1, w0
   87808:	54000721 	b.ne	878ec <CEcoVFB1_AF252188Factory_Alloc+0x28c>  // b.any
   8780c:	f94013e0 	ldr	x0, [sp, #32]
   87810:	91002c00 	add	x0, x0, #0xb
   87814:	39400001 	ldrb	w1, [x0]
   87818:	90000440 	adrp	x0, 10f000 <EcoVirtualMemory1Lab_623E1838_MemoryMap+0x7d610>
   8781c:	91292c00 	add	x0, x0, #0xa4b
   87820:	39400000 	ldrb	w0, [x0]
   87824:	6b00003f 	cmp	w1, w0
   87828:	54000621 	b.ne	878ec <CEcoVFB1_AF252188Factory_Alloc+0x28c>  // b.any
   8782c:	f94013e0 	ldr	x0, [sp, #32]
   87830:	91003000 	add	x0, x0, #0xc
   87834:	39400001 	ldrb	w1, [x0]
   87838:	90000440 	adrp	x0, 10f000 <EcoVirtualMemory1Lab_623E1838_MemoryMap+0x7d610>
   8783c:	91293000 	add	x0, x0, #0xa4c
   87840:	39400000 	ldrb	w0, [x0]
   87844:	6b00003f 	cmp	w1, w0
   87848:	54000521 	b.ne	878ec <CEcoVFB1_AF252188Factory_Alloc+0x28c>  // b.any
   8784c:	f94013e0 	ldr	x0, [sp, #32]
   87850:	91003400 	add	x0, x0, #0xd
   87854:	39400001 	ldrb	w1, [x0]
   87858:	90000440 	adrp	x0, 10f000 <EcoVirtualMemory1Lab_623E1838_MemoryMap+0x7d610>
   8785c:	91293400 	add	x0, x0, #0xa4d
   87860:	39400000 	ldrb	w0, [x0]
   87864:	6b00003f 	cmp	w1, w0
   87868:	54000421 	b.ne	878ec <CEcoVFB1_AF252188Factory_Alloc+0x28c>  // b.any
   8786c:	f94013e0 	ldr	x0, [sp, #32]
   87870:	91003800 	add	x0, x0, #0xe
   87874:	39400001 	ldrb	w1, [x0]
   87878:	90000440 	adrp	x0, 10f000 <EcoVirtualMemory1Lab_623E1838_MemoryMap+0x7d610>
   8787c:	91293800 	add	x0, x0, #0xa4e
   87880:	39400000 	ldrb	w0, [x0]
   87884:	6b00003f 	cmp	w1, w0
   87888:	54000321 	b.ne	878ec <CEcoVFB1_AF252188Factory_Alloc+0x28c>  // b.any
   8788c:	f94013e0 	ldr	x0, [sp, #32]
   87890:	91003c00 	add	x0, x0, #0xf
   87894:	39400001 	ldrb	w1, [x0]
   87898:	90000440 	adrp	x0, 10f000 <EcoVirtualMemory1Lab_623E1838_MemoryMap+0x7d610>
   8789c:	91293c00 	add	x0, x0, #0xa4f
   878a0:	39400000 	ldrb	w0, [x0]
   878a4:	6b00003f 	cmp	w1, w0
   878a8:	54000221 	b.ne	878ec <CEcoVFB1_AF252188Factory_Alloc+0x28c>  // b.any
   878ac:	f94013e0 	ldr	x0, [sp, #32]
   878b0:	91004000 	add	x0, x0, #0x10
   878b4:	39400001 	ldrb	w1, [x0]
   878b8:	90000440 	adrp	x0, 10f000 <EcoVirtualMemory1Lab_623E1838_MemoryMap+0x7d610>
   878bc:	91294000 	add	x0, x0, #0xa50
   878c0:	39400000 	ldrb	w0, [x0]
   878c4:	6b00003f 	cmp	w1, w0
   878c8:	54000121 	b.ne	878ec <CEcoVFB1_AF252188Factory_Alloc+0x28c>  // b.any
   878cc:	f94013e0 	ldr	x0, [sp, #32]
   878d0:	91004400 	add	x0, x0, #0x11
   878d4:	39400001 	ldrb	w1, [x0]
   878d8:	90000440 	adrp	x0, 10f000 <EcoVirtualMemory1Lab_623E1838_MemoryMap+0x7d610>
   878dc:	91294400 	add	x0, x0, #0xa51
   878e0:	39400000 	ldrb	w0, [x0]
   878e4:	6b00003f 	cmp	w1, w0
   878e8:	54000060 	b.eq	878f4 <CEcoVFB1_AF252188Factory_Alloc+0x294>  // b.none
   878ec:	12800000 	mov	w0, #0xffffffff            	// #-1
   878f0:	14000028 	b	87990 <CEcoVFB1_AF252188Factory_Alloc+0x330>
   878f4:	f9402fe0 	ldr	x0, [sp, #88]
   878f8:	f9400803 	ldr	x3, [x0, #16]
   878fc:	910123e0 	add	x0, sp, #0x48
   87900:	aa0003e2 	mov	x2, x0
   87904:	f94017e1 	ldr	x1, [sp, #40]
   87908:	f9401be0 	ldr	x0, [sp, #48]
   8790c:	d63f0060 	blr	x3
   87910:	7900afe0 	strh	w0, [sp, #86]
   87914:	79c0afe0 	ldrsh	w0, [sp, #86]
   87918:	7100001f 	cmp	w0, #0x0
   8791c:	54000081 	b.ne	8792c <CEcoVFB1_AF252188Factory_Alloc+0x2cc>  // b.any
   87920:	f94027e0 	ldr	x0, [sp, #72]
   87924:	f100001f 	cmp	x0, #0x0
   87928:	54000061 	b.ne	87934 <CEcoVFB1_AF252188Factory_Alloc+0x2d4>  // b.any
   8792c:	12800000 	mov	w0, #0xffffffff            	// #-1
   87930:	14000018 	b	87990 <CEcoVFB1_AF252188Factory_Alloc+0x330>
   87934:	f9401fe0 	ldr	x0, [sp, #56]
   87938:	f9400000 	ldr	x0, [x0]
   8793c:	f9401003 	ldr	x3, [x0, #32]
   87940:	f94027e0 	ldr	x0, [sp, #72]
   87944:	aa0003e2 	mov	x2, x0
   87948:	f9401be1 	ldr	x1, [sp, #48]
   8794c:	f9401fe0 	ldr	x0, [sp, #56]
   87950:	d63f0060 	blr	x3
   87954:	7900afe0 	strh	w0, [sp, #86]
   87958:	f94027e0 	ldr	x0, [sp, #72]
   8795c:	f9400000 	ldr	x0, [x0]
   87960:	f9400003 	ldr	x3, [x0]
   87964:	f94027e0 	ldr	x0, [sp, #72]
   87968:	f9400fe2 	ldr	x2, [sp, #24]
   8796c:	f94013e1 	ldr	x1, [sp, #32]
   87970:	d63f0060 	blr	x3
   87974:	7900afe0 	strh	w0, [sp, #86]
   87978:	f94027e0 	ldr	x0, [sp, #72]
   8797c:	f9400000 	ldr	x0, [x0]
   87980:	f9400801 	ldr	x1, [x0, #16]
   87984:	f94027e0 	ldr	x0, [sp, #72]
   87988:	d63f0020 	blr	x1
   8798c:	79c0afe0 	ldrsh	w0, [sp, #86]
   87990:	a8c67bfd 	ldp	x29, x30, [sp], #96
   87994:	d65f03c0 	ret

0000000000087998 <CEcoVFB1_AF252188Factory_get_Name>:
   87998:	d10083ff 	sub	sp, sp, #0x20
   8799c:	f90007e0 	str	x0, [sp, #8]
   879a0:	f94007e0 	ldr	x0, [sp, #8]
   879a4:	f9000fe0 	str	x0, [sp, #24]
   879a8:	f94007e0 	ldr	x0, [sp, #8]
   879ac:	f100001f 	cmp	x0, #0x0
   879b0:	54000061 	b.ne	879bc <CEcoVFB1_AF252188Factory_get_Name+0x24>  // b.any
   879b4:	d2800000 	mov	x0, #0x0                   	// #0
   879b8:	14000003 	b	879c4 <CEcoVFB1_AF252188Factory_get_Name+0x2c>
   879bc:	f9400fe0 	ldr	x0, [sp, #24]
   879c0:	91008000 	add	x0, x0, #0x20
   879c4:	910083ff 	add	sp, sp, #0x20
   879c8:	d65f03c0 	ret

00000000000879cc <CEcoVFB1_AF252188Factory_get_Version>:
   879cc:	d10083ff 	sub	sp, sp, #0x20
   879d0:	f90007e0 	str	x0, [sp, #8]
   879d4:	f94007e0 	ldr	x0, [sp, #8]
   879d8:	f9000fe0 	str	x0, [sp, #24]
   879dc:	f94007e0 	ldr	x0, [sp, #8]
   879e0:	f100001f 	cmp	x0, #0x0
   879e4:	54000061 	b.ne	879f0 <CEcoVFB1_AF252188Factory_get_Version+0x24>  // b.any
   879e8:	d2800000 	mov	x0, #0x0                   	// #0
   879ec:	14000003 	b	879f8 <CEcoVFB1_AF252188Factory_get_Version+0x2c>
   879f0:	f9400fe0 	ldr	x0, [sp, #24]
   879f4:	91018000 	add	x0, x0, #0x60
   879f8:	910083ff 	add	sp, sp, #0x20
   879fc:	d65f03c0 	ret

0000000000087a00 <CEcoVFB1_AF252188Factory_get_Manufacturer>:
   87a00:	d10083ff 	sub	sp, sp, #0x20
   87a04:	f90007e0 	str	x0, [sp, #8]
   87a08:	f94007e0 	ldr	x0, [sp, #8]
   87a0c:	f9000fe0 	str	x0, [sp, #24]
   87a10:	f94007e0 	ldr	x0, [sp, #8]
   87a14:	f100001f 	cmp	x0, #0x0
   87a18:	54000061 	b.ne	87a24 <CEcoVFB1_AF252188Factory_get_Manufacturer+0x24>  // b.any
   87a1c:	d2800000 	mov	x0, #0x0                   	// #0
   87a20:	14000003 	b	87a2c <CEcoVFB1_AF252188Factory_get_Manufacturer+0x2c>
   87a24:	f9400fe0 	ldr	x0, [sp, #24]
   87a28:	9101c000 	add	x0, x0, #0x70
   87a2c:	910083ff 	add	sp, sp, #0x20
   87a30:	d65f03c0 	ret

0000000000087a34 <CEcoVFB1_AF252188_QueryInterface>:
   87a34:	a9bc7bfd 	stp	x29, x30, [sp, #-64]!
   87a38:	910003fd 	mov	x29, sp
   87a3c:	f90017e0 	str	x0, [sp, #40]
   87a40:	f90013e1 	str	x1, [sp, #32]
   87a44:	f9000fe2 	str	x2, [sp, #24]
   87a48:	f94017e0 	ldr	x0, [sp, #40]
   87a4c:	f9001fe0 	str	x0, [sp, #56]
   87a50:	f94017e0 	ldr	x0, [sp, #40]
   87a54:	f100001f 	cmp	x0, #0x0
   87a58:	54000080 	b.eq	87a68 <CEcoVFB1_AF252188_QueryInterface+0x34>  // b.none
   87a5c:	f9400fe0 	ldr	x0, [sp, #24]
   87a60:	f100001f 	cmp	x0, #0x0
   87a64:	54000061 	b.ne	87a70 <CEcoVFB1_AF252188_QueryInterface+0x3c>  // b.any
   87a68:	12800220 	mov	w0, #0xffffffee            	// #-18
   87a6c:	14000301 	b	88670 <CEcoVFB1_AF252188_QueryInterface+0xc3c>
   87a70:	f94013e0 	ldr	x0, [sp, #32]
   87a74:	39400001 	ldrb	w1, [x0]
   87a78:	90000440 	adrp	x0, 10f000 <EcoVirtualMemory1Lab_623E1838_MemoryMap+0x7d610>
   87a7c:	91392000 	add	x0, x0, #0xe48
   87a80:	39400000 	ldrb	w0, [x0]
   87a84:	6b00003f 	cmp	w1, w0
   87a88:	54001241 	b.ne	87cd0 <CEcoVFB1_AF252188_QueryInterface+0x29c>  // b.any
   87a8c:	f94013e0 	ldr	x0, [sp, #32]
   87a90:	91000400 	add	x0, x0, #0x1
   87a94:	39400001 	ldrb	w1, [x0]
   87a98:	90000440 	adrp	x0, 10f000 <EcoVirtualMemory1Lab_623E1838_MemoryMap+0x7d610>
   87a9c:	91392400 	add	x0, x0, #0xe49
   87aa0:	39400000 	ldrb	w0, [x0]
   87aa4:	6b00003f 	cmp	w1, w0
   87aa8:	54001141 	b.ne	87cd0 <CEcoVFB1_AF252188_QueryInterface+0x29c>  // b.any
   87aac:	f94013e0 	ldr	x0, [sp, #32]
   87ab0:	91000800 	add	x0, x0, #0x2
   87ab4:	39400001 	ldrb	w1, [x0]
   87ab8:	90000440 	adrp	x0, 10f000 <EcoVirtualMemory1Lab_623E1838_MemoryMap+0x7d610>
   87abc:	91392800 	add	x0, x0, #0xe4a
   87ac0:	39400000 	ldrb	w0, [x0]
   87ac4:	6b00003f 	cmp	w1, w0
   87ac8:	54001041 	b.ne	87cd0 <CEcoVFB1_AF252188_QueryInterface+0x29c>  // b.any
   87acc:	f94013e0 	ldr	x0, [sp, #32]
   87ad0:	91000c00 	add	x0, x0, #0x3
   87ad4:	39400001 	ldrb	w1, [x0]
   87ad8:	90000440 	adrp	x0, 10f000 <EcoVirtualMemory1Lab_623E1838_MemoryMap+0x7d610>
   87adc:	91392c00 	add	x0, x0, #0xe4b
   87ae0:	39400000 	ldrb	w0, [x0]
   87ae4:	6b00003f 	cmp	w1, w0
   87ae8:	54000f41 	b.ne	87cd0 <CEcoVFB1_AF252188_QueryInterface+0x29c>  // b.any
   87aec:	f94013e0 	ldr	x0, [sp, #32]
   87af0:	91001000 	add	x0, x0, #0x4
   87af4:	39400001 	ldrb	w1, [x0]
   87af8:	90000440 	adrp	x0, 10f000 <EcoVirtualMemory1Lab_623E1838_MemoryMap+0x7d610>
   87afc:	91393000 	add	x0, x0, #0xe4c
   87b00:	39400000 	ldrb	w0, [x0]
   87b04:	6b00003f 	cmp	w1, w0
   87b08:	54000e41 	b.ne	87cd0 <CEcoVFB1_AF252188_QueryInterface+0x29c>  // b.any
   87b0c:	f94013e0 	ldr	x0, [sp, #32]
   87b10:	91001400 	add	x0, x0, #0x5
   87b14:	39400001 	ldrb	w1, [x0]
   87b18:	90000440 	adrp	x0, 10f000 <EcoVirtualMemory1Lab_623E1838_MemoryMap+0x7d610>
   87b1c:	91393400 	add	x0, x0, #0xe4d
   87b20:	39400000 	ldrb	w0, [x0]
   87b24:	6b00003f 	cmp	w1, w0
   87b28:	54000d41 	b.ne	87cd0 <CEcoVFB1_AF252188_QueryInterface+0x29c>  // b.any
   87b2c:	f94013e0 	ldr	x0, [sp, #32]
   87b30:	91001800 	add	x0, x0, #0x6
   87b34:	39400001 	ldrb	w1, [x0]
   87b38:	90000440 	adrp	x0, 10f000 <EcoVirtualMemory1Lab_623E1838_MemoryMap+0x7d610>
   87b3c:	91393800 	add	x0, x0, #0xe4e
   87b40:	39400000 	ldrb	w0, [x0]
   87b44:	6b00003f 	cmp	w1, w0
   87b48:	54000c41 	b.ne	87cd0 <CEcoVFB1_AF252188_QueryInterface+0x29c>  // b.any
   87b4c:	f94013e0 	ldr	x0, [sp, #32]
   87b50:	91001c00 	add	x0, x0, #0x7
   87b54:	39400001 	ldrb	w1, [x0]
   87b58:	90000440 	adrp	x0, 10f000 <EcoVirtualMemory1Lab_623E1838_MemoryMap+0x7d610>
   87b5c:	91393c00 	add	x0, x0, #0xe4f
   87b60:	39400000 	ldrb	w0, [x0]
   87b64:	6b00003f 	cmp	w1, w0
   87b68:	54000b41 	b.ne	87cd0 <CEcoVFB1_AF252188_QueryInterface+0x29c>  // b.any
   87b6c:	f94013e0 	ldr	x0, [sp, #32]
   87b70:	91002000 	add	x0, x0, #0x8
   87b74:	39400001 	ldrb	w1, [x0]
   87b78:	90000440 	adrp	x0, 10f000 <EcoVirtualMemory1Lab_623E1838_MemoryMap+0x7d610>
   87b7c:	91394000 	add	x0, x0, #0xe50
   87b80:	39400000 	ldrb	w0, [x0]
   87b84:	6b00003f 	cmp	w1, w0
   87b88:	54000a41 	b.ne	87cd0 <CEcoVFB1_AF252188_QueryInterface+0x29c>  // b.any
   87b8c:	f94013e0 	ldr	x0, [sp, #32]
   87b90:	91002400 	add	x0, x0, #0x9
   87b94:	39400001 	ldrb	w1, [x0]
   87b98:	90000440 	adrp	x0, 10f000 <EcoVirtualMemory1Lab_623E1838_MemoryMap+0x7d610>
   87b9c:	91394400 	add	x0, x0, #0xe51
   87ba0:	39400000 	ldrb	w0, [x0]
   87ba4:	6b00003f 	cmp	w1, w0
   87ba8:	54000941 	b.ne	87cd0 <CEcoVFB1_AF252188_QueryInterface+0x29c>  // b.any
   87bac:	f94013e0 	ldr	x0, [sp, #32]
   87bb0:	91002800 	add	x0, x0, #0xa
   87bb4:	39400001 	ldrb	w1, [x0]
   87bb8:	90000440 	adrp	x0, 10f000 <EcoVirtualMemory1Lab_623E1838_MemoryMap+0x7d610>
   87bbc:	91394800 	add	x0, x0, #0xe52
   87bc0:	39400000 	ldrb	w0, [x0]
   87bc4:	6b00003f 	cmp	w1, w0
   87bc8:	54000841 	b.ne	87cd0 <CEcoVFB1_AF252188_QueryInterface+0x29c>  // b.any
   87bcc:	f94013e0 	ldr	x0, [sp, #32]
   87bd0:	91002c00 	add	x0, x0, #0xb
   87bd4:	39400001 	ldrb	w1, [x0]
   87bd8:	90000440 	adrp	x0, 10f000 <EcoVirtualMemory1Lab_623E1838_MemoryMap+0x7d610>
   87bdc:	91394c00 	add	x0, x0, #0xe53
   87be0:	39400000 	ldrb	w0, [x0]
   87be4:	6b00003f 	cmp	w1, w0
   87be8:	54000741 	b.ne	87cd0 <CEcoVFB1_AF252188_QueryInterface+0x29c>  // b.any
   87bec:	f94013e0 	ldr	x0, [sp, #32]
   87bf0:	91003000 	add	x0, x0, #0xc
   87bf4:	39400001 	ldrb	w1, [x0]
   87bf8:	90000440 	adrp	x0, 10f000 <EcoVirtualMemory1Lab_623E1838_MemoryMap+0x7d610>
   87bfc:	91395000 	add	x0, x0, #0xe54
   87c00:	39400000 	ldrb	w0, [x0]
   87c04:	6b00003f 	cmp	w1, w0
   87c08:	54000641 	b.ne	87cd0 <CEcoVFB1_AF252188_QueryInterface+0x29c>  // b.any
   87c0c:	f94013e0 	ldr	x0, [sp, #32]
   87c10:	91003400 	add	x0, x0, #0xd
   87c14:	39400001 	ldrb	w1, [x0]
   87c18:	90000440 	adrp	x0, 10f000 <EcoVirtualMemory1Lab_623E1838_MemoryMap+0x7d610>
   87c1c:	91395400 	add	x0, x0, #0xe55
   87c20:	39400000 	ldrb	w0, [x0]
   87c24:	6b00003f 	cmp	w1, w0
   87c28:	54000541 	b.ne	87cd0 <CEcoVFB1_AF252188_QueryInterface+0x29c>  // b.any
   87c2c:	f94013e0 	ldr	x0, [sp, #32]
   87c30:	91003800 	add	x0, x0, #0xe
   87c34:	39400001 	ldrb	w1, [x0]
   87c38:	90000440 	adrp	x0, 10f000 <EcoVirtualMemory1Lab_623E1838_MemoryMap+0x7d610>
   87c3c:	91395800 	add	x0, x0, #0xe56
   87c40:	39400000 	ldrb	w0, [x0]
   87c44:	6b00003f 	cmp	w1, w0
   87c48:	54000441 	b.ne	87cd0 <CEcoVFB1_AF252188_QueryInterface+0x29c>  // b.any
   87c4c:	f94013e0 	ldr	x0, [sp, #32]
   87c50:	91003c00 	add	x0, x0, #0xf
   87c54:	39400001 	ldrb	w1, [x0]
   87c58:	90000440 	adrp	x0, 10f000 <EcoVirtualMemory1Lab_623E1838_MemoryMap+0x7d610>
   87c5c:	91395c00 	add	x0, x0, #0xe57
   87c60:	39400000 	ldrb	w0, [x0]
   87c64:	6b00003f 	cmp	w1, w0
   87c68:	54000341 	b.ne	87cd0 <CEcoVFB1_AF252188_QueryInterface+0x29c>  // b.any
   87c6c:	f94013e0 	ldr	x0, [sp, #32]
   87c70:	91004000 	add	x0, x0, #0x10
   87c74:	39400001 	ldrb	w1, [x0]
   87c78:	90000440 	adrp	x0, 10f000 <EcoVirtualMemory1Lab_623E1838_MemoryMap+0x7d610>
   87c7c:	91396000 	add	x0, x0, #0xe58
   87c80:	39400000 	ldrb	w0, [x0]
   87c84:	6b00003f 	cmp	w1, w0
   87c88:	54000241 	b.ne	87cd0 <CEcoVFB1_AF252188_QueryInterface+0x29c>  // b.any
   87c8c:	f94013e0 	ldr	x0, [sp, #32]
   87c90:	91004400 	add	x0, x0, #0x11
   87c94:	39400001 	ldrb	w1, [x0]
   87c98:	90000440 	adrp	x0, 10f000 <EcoVirtualMemory1Lab_623E1838_MemoryMap+0x7d610>
   87c9c:	91396400 	add	x0, x0, #0xe59
   87ca0:	39400000 	ldrb	w0, [x0]
   87ca4:	6b00003f 	cmp	w1, w0
   87ca8:	54000141 	b.ne	87cd0 <CEcoVFB1_AF252188_QueryInterface+0x29c>  // b.any
   87cac:	f9401fe1 	ldr	x1, [sp, #56]
   87cb0:	f9400fe0 	ldr	x0, [sp, #24]
   87cb4:	f9000001 	str	x1, [x0]
   87cb8:	f9401fe0 	ldr	x0, [sp, #56]
   87cbc:	f9400000 	ldr	x0, [x0]
   87cc0:	f9400401 	ldr	x1, [x0, #8]
   87cc4:	f9401fe0 	ldr	x0, [sp, #56]
   87cc8:	d63f0020 	blr	x1
   87ccc:	14000268 	b	8866c <CEcoVFB1_AF252188_QueryInterface+0xc38>
   87cd0:	f94013e0 	ldr	x0, [sp, #32]
   87cd4:	39400001 	ldrb	w1, [x0]
   87cd8:	90000440 	adrp	x0, 10f000 <EcoVirtualMemory1Lab_623E1838_MemoryMap+0x7d610>
   87cdc:	9138c000 	add	x0, x0, #0xe30
   87ce0:	39400000 	ldrb	w0, [x0]
   87ce4:	6b00003f 	cmp	w1, w0
   87ce8:	54001261 	b.ne	87f34 <CEcoVFB1_AF252188_QueryInterface+0x500>  // b.any
   87cec:	f94013e0 	ldr	x0, [sp, #32]
   87cf0:	91000400 	add	x0, x0, #0x1
   87cf4:	39400001 	ldrb	w1, [x0]
   87cf8:	90000440 	adrp	x0, 10f000 <EcoVirtualMemory1Lab_623E1838_MemoryMap+0x7d610>
   87cfc:	9138c400 	add	x0, x0, #0xe31
   87d00:	39400000 	ldrb	w0, [x0]
   87d04:	6b00003f 	cmp	w1, w0
   87d08:	54001161 	b.ne	87f34 <CEcoVFB1_AF252188_QueryInterface+0x500>  // b.any
   87d0c:	f94013e0 	ldr	x0, [sp, #32]
   87d10:	91000800 	add	x0, x0, #0x2
   87d14:	39400001 	ldrb	w1, [x0]
   87d18:	90000440 	adrp	x0, 10f000 <EcoVirtualMemory1Lab_623E1838_MemoryMap+0x7d610>
   87d1c:	9138c800 	add	x0, x0, #0xe32
   87d20:	39400000 	ldrb	w0, [x0]
   87d24:	6b00003f 	cmp	w1, w0
   87d28:	54001061 	b.ne	87f34 <CEcoVFB1_AF252188_QueryInterface+0x500>  // b.any
   87d2c:	f94013e0 	ldr	x0, [sp, #32]
   87d30:	91000c00 	add	x0, x0, #0x3
   87d34:	39400001 	ldrb	w1, [x0]
   87d38:	90000440 	adrp	x0, 10f000 <EcoVirtualMemory1Lab_623E1838_MemoryMap+0x7d610>
   87d3c:	9138cc00 	add	x0, x0, #0xe33
   87d40:	39400000 	ldrb	w0, [x0]
   87d44:	6b00003f 	cmp	w1, w0
   87d48:	54000f61 	b.ne	87f34 <CEcoVFB1_AF252188_QueryInterface+0x500>  // b.any
   87d4c:	f94013e0 	ldr	x0, [sp, #32]
   87d50:	91001000 	add	x0, x0, #0x4
   87d54:	39400001 	ldrb	w1, [x0]
   87d58:	90000440 	adrp	x0, 10f000 <EcoVirtualMemory1Lab_623E1838_MemoryMap+0x7d610>
   87d5c:	9138d000 	add	x0, x0, #0xe34
   87d60:	39400000 	ldrb	w0, [x0]
   87d64:	6b00003f 	cmp	w1, w0
   87d68:	54000e61 	b.ne	87f34 <CEcoVFB1_AF252188_QueryInterface+0x500>  // b.any
   87d6c:	f94013e0 	ldr	x0, [sp, #32]
   87d70:	91001400 	add	x0, x0, #0x5
   87d74:	39400001 	ldrb	w1, [x0]
   87d78:	90000440 	adrp	x0, 10f000 <EcoVirtualMemory1Lab_623E1838_MemoryMap+0x7d610>
   87d7c:	9138d400 	add	x0, x0, #0xe35
   87d80:	39400000 	ldrb	w0, [x0]
   87d84:	6b00003f 	cmp	w1, w0
   87d88:	54000d61 	b.ne	87f34 <CEcoVFB1_AF252188_QueryInterface+0x500>  // b.any
   87d8c:	f94013e0 	ldr	x0, [sp, #32]
   87d90:	91001800 	add	x0, x0, #0x6
   87d94:	39400001 	ldrb	w1, [x0]
   87d98:	90000440 	adrp	x0, 10f000 <EcoVirtualMemory1Lab_623E1838_MemoryMap+0x7d610>
   87d9c:	9138d800 	add	x0, x0, #0xe36
   87da0:	39400000 	ldrb	w0, [x0]
   87da4:	6b00003f 	cmp	w1, w0
   87da8:	54000c61 	b.ne	87f34 <CEcoVFB1_AF252188_QueryInterface+0x500>  // b.any
   87dac:	f94013e0 	ldr	x0, [sp, #32]
   87db0:	91001c00 	add	x0, x0, #0x7
   87db4:	39400001 	ldrb	w1, [x0]
   87db8:	90000440 	adrp	x0, 10f000 <EcoVirtualMemory1Lab_623E1838_MemoryMap+0x7d610>
   87dbc:	9138dc00 	add	x0, x0, #0xe37
   87dc0:	39400000 	ldrb	w0, [x0]
   87dc4:	6b00003f 	cmp	w1, w0
   87dc8:	54000b61 	b.ne	87f34 <CEcoVFB1_AF252188_QueryInterface+0x500>  // b.any
   87dcc:	f94013e0 	ldr	x0, [sp, #32]
   87dd0:	91002000 	add	x0, x0, #0x8
   87dd4:	39400001 	ldrb	w1, [x0]
   87dd8:	90000440 	adrp	x0, 10f000 <EcoVirtualMemory1Lab_623E1838_MemoryMap+0x7d610>
   87ddc:	9138e000 	add	x0, x0, #0xe38
   87de0:	39400000 	ldrb	w0, [x0]
   87de4:	6b00003f 	cmp	w1, w0
   87de8:	54000a61 	b.ne	87f34 <CEcoVFB1_AF252188_QueryInterface+0x500>  // b.any
   87dec:	f94013e0 	ldr	x0, [sp, #32]
   87df0:	91002400 	add	x0, x0, #0x9
   87df4:	39400001 	ldrb	w1, [x0]
   87df8:	90000440 	adrp	x0, 10f000 <EcoVirtualMemory1Lab_623E1838_MemoryMap+0x7d610>
   87dfc:	9138e400 	add	x0, x0, #0xe39
   87e00:	39400000 	ldrb	w0, [x0]
   87e04:	6b00003f 	cmp	w1, w0
   87e08:	54000961 	b.ne	87f34 <CEcoVFB1_AF252188_QueryInterface+0x500>  // b.any
   87e0c:	f94013e0 	ldr	x0, [sp, #32]
   87e10:	91002800 	add	x0, x0, #0xa
   87e14:	39400001 	ldrb	w1, [x0]
   87e18:	90000440 	adrp	x0, 10f000 <EcoVirtualMemory1Lab_623E1838_MemoryMap+0x7d610>
   87e1c:	9138e800 	add	x0, x0, #0xe3a
   87e20:	39400000 	ldrb	w0, [x0]
   87e24:	6b00003f 	cmp	w1, w0
   87e28:	54000861 	b.ne	87f34 <CEcoVFB1_AF252188_QueryInterface+0x500>  // b.any
   87e2c:	f94013e0 	ldr	x0, [sp, #32]
   87e30:	91002c00 	add	x0, x0, #0xb
   87e34:	39400001 	ldrb	w1, [x0]
   87e38:	90000440 	adrp	x0, 10f000 <EcoVirtualMemory1Lab_623E1838_MemoryMap+0x7d610>
   87e3c:	9138ec00 	add	x0, x0, #0xe3b
   87e40:	39400000 	ldrb	w0, [x0]
   87e44:	6b00003f 	cmp	w1, w0
   87e48:	54000761 	b.ne	87f34 <CEcoVFB1_AF252188_QueryInterface+0x500>  // b.any
   87e4c:	f94013e0 	ldr	x0, [sp, #32]
   87e50:	91003000 	add	x0, x0, #0xc
   87e54:	39400001 	ldrb	w1, [x0]
   87e58:	90000440 	adrp	x0, 10f000 <EcoVirtualMemory1Lab_623E1838_MemoryMap+0x7d610>
   87e5c:	9138f000 	add	x0, x0, #0xe3c
   87e60:	39400000 	ldrb	w0, [x0]
   87e64:	6b00003f 	cmp	w1, w0
   87e68:	54000661 	b.ne	87f34 <CEcoVFB1_AF252188_QueryInterface+0x500>  // b.any
   87e6c:	f94013e0 	ldr	x0, [sp, #32]
   87e70:	91003400 	add	x0, x0, #0xd
   87e74:	39400001 	ldrb	w1, [x0]
   87e78:	90000440 	adrp	x0, 10f000 <EcoVirtualMemory1Lab_623E1838_MemoryMap+0x7d610>
   87e7c:	9138f400 	add	x0, x0, #0xe3d
   87e80:	39400000 	ldrb	w0, [x0]
   87e84:	6b00003f 	cmp	w1, w0
   87e88:	54000561 	b.ne	87f34 <CEcoVFB1_AF252188_QueryInterface+0x500>  // b.any
   87e8c:	f94013e0 	ldr	x0, [sp, #32]
   87e90:	91003800 	add	x0, x0, #0xe
   87e94:	39400001 	ldrb	w1, [x0]
   87e98:	90000440 	adrp	x0, 10f000 <EcoVirtualMemory1Lab_623E1838_MemoryMap+0x7d610>
   87e9c:	9138f800 	add	x0, x0, #0xe3e
   87ea0:	39400000 	ldrb	w0, [x0]
   87ea4:	6b00003f 	cmp	w1, w0
   87ea8:	54000461 	b.ne	87f34 <CEcoVFB1_AF252188_QueryInterface+0x500>  // b.any
   87eac:	f94013e0 	ldr	x0, [sp, #32]
   87eb0:	91003c00 	add	x0, x0, #0xf
   87eb4:	39400001 	ldrb	w1, [x0]
   87eb8:	90000440 	adrp	x0, 10f000 <EcoVirtualMemory1Lab_623E1838_MemoryMap+0x7d610>
   87ebc:	9138fc00 	add	x0, x0, #0xe3f
   87ec0:	39400000 	ldrb	w0, [x0]
   87ec4:	6b00003f 	cmp	w1, w0
   87ec8:	54000361 	b.ne	87f34 <CEcoVFB1_AF252188_QueryInterface+0x500>  // b.any
   87ecc:	f94013e0 	ldr	x0, [sp, #32]
   87ed0:	91004000 	add	x0, x0, #0x10
   87ed4:	39400001 	ldrb	w1, [x0]
   87ed8:	90000440 	adrp	x0, 10f000 <EcoVirtualMemory1Lab_623E1838_MemoryMap+0x7d610>
   87edc:	91390000 	add	x0, x0, #0xe40
   87ee0:	39400000 	ldrb	w0, [x0]
   87ee4:	6b00003f 	cmp	w1, w0
   87ee8:	54000261 	b.ne	87f34 <CEcoVFB1_AF252188_QueryInterface+0x500>  // b.any
   87eec:	f94013e0 	ldr	x0, [sp, #32]
   87ef0:	91004400 	add	x0, x0, #0x11
   87ef4:	39400001 	ldrb	w1, [x0]
   87ef8:	90000440 	adrp	x0, 10f000 <EcoVirtualMemory1Lab_623E1838_MemoryMap+0x7d610>
   87efc:	91390400 	add	x0, x0, #0xe41
   87f00:	39400000 	ldrb	w0, [x0]
   87f04:	6b00003f 	cmp	w1, w0
   87f08:	54000161 	b.ne	87f34 <CEcoVFB1_AF252188_QueryInterface+0x500>  // b.any
   87f0c:	f9401fe0 	ldr	x0, [sp, #56]
   87f10:	91002001 	add	x1, x0, #0x8
   87f14:	f9400fe0 	ldr	x0, [sp, #24]
   87f18:	f9000001 	str	x1, [x0]
   87f1c:	f9401fe0 	ldr	x0, [sp, #56]
   87f20:	f9400000 	ldr	x0, [x0]
   87f24:	f9400401 	ldr	x1, [x0, #8]
   87f28:	f9401fe0 	ldr	x0, [sp, #56]
   87f2c:	d63f0020 	blr	x1
   87f30:	140001cf 	b	8866c <CEcoVFB1_AF252188_QueryInterface+0xc38>
   87f34:	f94013e0 	ldr	x0, [sp, #32]
   87f38:	39400001 	ldrb	w1, [x0]
   87f3c:	90000440 	adrp	x0, 10f000 <EcoVirtualMemory1Lab_623E1838_MemoryMap+0x7d610>
   87f40:	91386000 	add	x0, x0, #0xe18
   87f44:	39400000 	ldrb	w0, [x0]
   87f48:	6b00003f 	cmp	w1, w0
   87f4c:	54001261 	b.ne	88198 <CEcoVFB1_AF252188_QueryInterface+0x764>  // b.any
   87f50:	f94013e0 	ldr	x0, [sp, #32]
   87f54:	91000400 	add	x0, x0, #0x1
   87f58:	39400001 	ldrb	w1, [x0]
   87f5c:	90000440 	adrp	x0, 10f000 <EcoVirtualMemory1Lab_623E1838_MemoryMap+0x7d610>
   87f60:	91386400 	add	x0, x0, #0xe19
   87f64:	39400000 	ldrb	w0, [x0]
   87f68:	6b00003f 	cmp	w1, w0
   87f6c:	54001161 	b.ne	88198 <CEcoVFB1_AF252188_QueryInterface+0x764>  // b.any
   87f70:	f94013e0 	ldr	x0, [sp, #32]
   87f74:	91000800 	add	x0, x0, #0x2
   87f78:	39400001 	ldrb	w1, [x0]
   87f7c:	90000440 	adrp	x0, 10f000 <EcoVirtualMemory1Lab_623E1838_MemoryMap+0x7d610>
   87f80:	91386800 	add	x0, x0, #0xe1a
   87f84:	39400000 	ldrb	w0, [x0]
   87f88:	6b00003f 	cmp	w1, w0
   87f8c:	54001061 	b.ne	88198 <CEcoVFB1_AF252188_QueryInterface+0x764>  // b.any
   87f90:	f94013e0 	ldr	x0, [sp, #32]
   87f94:	91000c00 	add	x0, x0, #0x3
   87f98:	39400001 	ldrb	w1, [x0]
   87f9c:	90000440 	adrp	x0, 10f000 <EcoVirtualMemory1Lab_623E1838_MemoryMap+0x7d610>
   87fa0:	91386c00 	add	x0, x0, #0xe1b
   87fa4:	39400000 	ldrb	w0, [x0]
   87fa8:	6b00003f 	cmp	w1, w0
   87fac:	54000f61 	b.ne	88198 <CEcoVFB1_AF252188_QueryInterface+0x764>  // b.any
   87fb0:	f94013e0 	ldr	x0, [sp, #32]
   87fb4:	91001000 	add	x0, x0, #0x4
   87fb8:	39400001 	ldrb	w1, [x0]
   87fbc:	90000440 	adrp	x0, 10f000 <EcoVirtualMemory1Lab_623E1838_MemoryMap+0x7d610>
   87fc0:	91387000 	add	x0, x0, #0xe1c
   87fc4:	39400000 	ldrb	w0, [x0]
   87fc8:	6b00003f 	cmp	w1, w0
   87fcc:	54000e61 	b.ne	88198 <CEcoVFB1_AF252188_QueryInterface+0x764>  // b.any
   87fd0:	f94013e0 	ldr	x0, [sp, #32]
   87fd4:	91001400 	add	x0, x0, #0x5
   87fd8:	39400001 	ldrb	w1, [x0]
   87fdc:	90000440 	adrp	x0, 10f000 <EcoVirtualMemory1Lab_623E1838_MemoryMap+0x7d610>
   87fe0:	91387400 	add	x0, x0, #0xe1d
   87fe4:	39400000 	ldrb	w0, [x0]
   87fe8:	6b00003f 	cmp	w1, w0
   87fec:	54000d61 	b.ne	88198 <CEcoVFB1_AF252188_QueryInterface+0x764>  // b.any
   87ff0:	f94013e0 	ldr	x0, [sp, #32]
   87ff4:	91001800 	add	x0, x0, #0x6
   87ff8:	39400001 	ldrb	w1, [x0]
   87ffc:	90000440 	adrp	x0, 10f000 <EcoVirtualMemory1Lab_623E1838_MemoryMap+0x7d610>
   88000:	91387800 	add	x0, x0, #0xe1e
   88004:	39400000 	ldrb	w0, [x0]
   88008:	6b00003f 	cmp	w1, w0
   8800c:	54000c61 	b.ne	88198 <CEcoVFB1_AF252188_QueryInterface+0x764>  // b.any
   88010:	f94013e0 	ldr	x0, [sp, #32]
   88014:	91001c00 	add	x0, x0, #0x7
   88018:	39400001 	ldrb	w1, [x0]
   8801c:	f0000420 	adrp	x0, 10f000 <EcoVirtualMemory1Lab_623E1838_MemoryMap+0x7d610>
   88020:	91387c00 	add	x0, x0, #0xe1f
   88024:	39400000 	ldrb	w0, [x0]
   88028:	6b00003f 	cmp	w1, w0
   8802c:	54000b61 	b.ne	88198 <CEcoVFB1_AF252188_QueryInterface+0x764>  // b.any
   88030:	f94013e0 	ldr	x0, [sp, #32]
   88034:	91002000 	add	x0, x0, #0x8
   88038:	39400001 	ldrb	w1, [x0]
   8803c:	f0000420 	adrp	x0, 10f000 <EcoVirtualMemory1Lab_623E1838_MemoryMap+0x7d610>
   88040:	91388000 	add	x0, x0, #0xe20
   88044:	39400000 	ldrb	w0, [x0]
   88048:	6b00003f 	cmp	w1, w0
   8804c:	54000a61 	b.ne	88198 <CEcoVFB1_AF252188_QueryInterface+0x764>  // b.any
   88050:	f94013e0 	ldr	x0, [sp, #32]
   88054:	91002400 	add	x0, x0, #0x9
   88058:	39400001 	ldrb	w1, [x0]
   8805c:	f0000420 	adrp	x0, 10f000 <EcoVirtualMemory1Lab_623E1838_MemoryMap+0x7d610>
   88060:	91388400 	add	x0, x0, #0xe21
   88064:	39400000 	ldrb	w0, [x0]
   88068:	6b00003f 	cmp	w1, w0
   8806c:	54000961 	b.ne	88198 <CEcoVFB1_AF252188_QueryInterface+0x764>  // b.any
   88070:	f94013e0 	ldr	x0, [sp, #32]
   88074:	91002800 	add	x0, x0, #0xa
   88078:	39400001 	ldrb	w1, [x0]
   8807c:	f0000420 	adrp	x0, 10f000 <EcoVirtualMemory1Lab_623E1838_MemoryMap+0x7d610>
   88080:	91388800 	add	x0, x0, #0xe22
   88084:	39400000 	ldrb	w0, [x0]
   88088:	6b00003f 	cmp	w1, w0
   8808c:	54000861 	b.ne	88198 <CEcoVFB1_AF252188_QueryInterface+0x764>  // b.any
   88090:	f94013e0 	ldr	x0, [sp, #32]
   88094:	91002c00 	add	x0, x0, #0xb
   88098:	39400001 	ldrb	w1, [x0]
   8809c:	f0000420 	adrp	x0, 10f000 <EcoVirtualMemory1Lab_623E1838_MemoryMap+0x7d610>
   880a0:	91388c00 	add	x0, x0, #0xe23
   880a4:	39400000 	ldrb	w0, [x0]
   880a8:	6b00003f 	cmp	w1, w0
   880ac:	54000761 	b.ne	88198 <CEcoVFB1_AF252188_QueryInterface+0x764>  // b.any
   880b0:	f94013e0 	ldr	x0, [sp, #32]
   880b4:	91003000 	add	x0, x0, #0xc
   880b8:	39400001 	ldrb	w1, [x0]
   880bc:	f0000420 	adrp	x0, 10f000 <EcoVirtualMemory1Lab_623E1838_MemoryMap+0x7d610>
   880c0:	91389000 	add	x0, x0, #0xe24
   880c4:	39400000 	ldrb	w0, [x0]
   880c8:	6b00003f 	cmp	w1, w0
   880cc:	54000661 	b.ne	88198 <CEcoVFB1_AF252188_QueryInterface+0x764>  // b.any
   880d0:	f94013e0 	ldr	x0, [sp, #32]
   880d4:	91003400 	add	x0, x0, #0xd
   880d8:	39400001 	ldrb	w1, [x0]
   880dc:	f0000420 	adrp	x0, 10f000 <EcoVirtualMemory1Lab_623E1838_MemoryMap+0x7d610>
   880e0:	91389400 	add	x0, x0, #0xe25
   880e4:	39400000 	ldrb	w0, [x0]
   880e8:	6b00003f 	cmp	w1, w0
   880ec:	54000561 	b.ne	88198 <CEcoVFB1_AF252188_QueryInterface+0x764>  // b.any
   880f0:	f94013e0 	ldr	x0, [sp, #32]
   880f4:	91003800 	add	x0, x0, #0xe
   880f8:	39400001 	ldrb	w1, [x0]
   880fc:	f0000420 	adrp	x0, 10f000 <EcoVirtualMemory1Lab_623E1838_MemoryMap+0x7d610>
   88100:	91389800 	add	x0, x0, #0xe26
   88104:	39400000 	ldrb	w0, [x0]
   88108:	6b00003f 	cmp	w1, w0
   8810c:	54000461 	b.ne	88198 <CEcoVFB1_AF252188_QueryInterface+0x764>  // b.any
   88110:	f94013e0 	ldr	x0, [sp, #32]
   88114:	91003c00 	add	x0, x0, #0xf
   88118:	39400001 	ldrb	w1, [x0]
   8811c:	f0000420 	adrp	x0, 10f000 <EcoVirtualMemory1Lab_623E1838_MemoryMap+0x7d610>
   88120:	91389c00 	add	x0, x0, #0xe27
   88124:	39400000 	ldrb	w0, [x0]
   88128:	6b00003f 	cmp	w1, w0
   8812c:	54000361 	b.ne	88198 <CEcoVFB1_AF252188_QueryInterface+0x764>  // b.any
   88130:	f94013e0 	ldr	x0, [sp, #32]
   88134:	91004000 	add	x0, x0, #0x10
   88138:	39400001 	ldrb	w1, [x0]
   8813c:	f0000420 	adrp	x0, 10f000 <EcoVirtualMemory1Lab_623E1838_MemoryMap+0x7d610>
   88140:	9138a000 	add	x0, x0, #0xe28
   88144:	39400000 	ldrb	w0, [x0]
   88148:	6b00003f 	cmp	w1, w0
   8814c:	54000261 	b.ne	88198 <CEcoVFB1_AF252188_QueryInterface+0x764>  // b.any
   88150:	f94013e0 	ldr	x0, [sp, #32]
   88154:	91004400 	add	x0, x0, #0x11
   88158:	39400001 	ldrb	w1, [x0]
   8815c:	f0000420 	adrp	x0, 10f000 <EcoVirtualMemory1Lab_623E1838_MemoryMap+0x7d610>
   88160:	9138a400 	add	x0, x0, #0xe29
   88164:	39400000 	ldrb	w0, [x0]
   88168:	6b00003f 	cmp	w1, w0
   8816c:	54000161 	b.ne	88198 <CEcoVFB1_AF252188_QueryInterface+0x764>  // b.any
   88170:	f9401fe0 	ldr	x0, [sp, #56]
   88174:	91004001 	add	x1, x0, #0x10
   88178:	f9400fe0 	ldr	x0, [sp, #24]
   8817c:	f9000001 	str	x1, [x0]
   88180:	f9401fe0 	ldr	x0, [sp, #56]
   88184:	f9400000 	ldr	x0, [x0]
   88188:	f9400401 	ldr	x1, [x0, #8]
   8818c:	f9401fe0 	ldr	x0, [sp, #56]
   88190:	d63f0020 	blr	x1
   88194:	14000136 	b	8866c <CEcoVFB1_AF252188_QueryInterface+0xc38>
   88198:	f94013e0 	ldr	x0, [sp, #32]
   8819c:	39400001 	ldrb	w1, [x0]
   881a0:	f0000420 	adrp	x0, 10f000 <EcoVirtualMemory1Lab_623E1838_MemoryMap+0x7d610>
   881a4:	913aa000 	add	x0, x0, #0xea8
   881a8:	39400000 	ldrb	w0, [x0]
   881ac:	6b00003f 	cmp	w1, w0
   881b0:	54001261 	b.ne	883fc <CEcoVFB1_AF252188_QueryInterface+0x9c8>  // b.any
   881b4:	f94013e0 	ldr	x0, [sp, #32]
   881b8:	91000400 	add	x0, x0, #0x1
   881bc:	39400001 	ldrb	w1, [x0]
   881c0:	f0000420 	adrp	x0, 10f000 <EcoVirtualMemory1Lab_623E1838_MemoryMap+0x7d610>
   881c4:	913aa400 	add	x0, x0, #0xea9
   881c8:	39400000 	ldrb	w0, [x0]
   881cc:	6b00003f 	cmp	w1, w0
   881d0:	54001161 	b.ne	883fc <CEcoVFB1_AF252188_QueryInterface+0x9c8>  // b.any
   881d4:	f94013e0 	ldr	x0, [sp, #32]
   881d8:	91000800 	add	x0, x0, #0x2
   881dc:	39400001 	ldrb	w1, [x0]
   881e0:	f0000420 	adrp	x0, 10f000 <EcoVirtualMemory1Lab_623E1838_MemoryMap+0x7d610>
   881e4:	913aa800 	add	x0, x0, #0xeaa
   881e8:	39400000 	ldrb	w0, [x0]
   881ec:	6b00003f 	cmp	w1, w0
   881f0:	54001061 	b.ne	883fc <CEcoVFB1_AF252188_QueryInterface+0x9c8>  // b.any
   881f4:	f94013e0 	ldr	x0, [sp, #32]
   881f8:	91000c00 	add	x0, x0, #0x3
   881fc:	39400001 	ldrb	w1, [x0]
   88200:	f0000420 	adrp	x0, 10f000 <EcoVirtualMemory1Lab_623E1838_MemoryMap+0x7d610>
   88204:	913aac00 	add	x0, x0, #0xeab
   88208:	39400000 	ldrb	w0, [x0]
   8820c:	6b00003f 	cmp	w1, w0
   88210:	54000f61 	b.ne	883fc <CEcoVFB1_AF252188_QueryInterface+0x9c8>  // b.any
   88214:	f94013e0 	ldr	x0, [sp, #32]
   88218:	91001000 	add	x0, x0, #0x4
   8821c:	39400001 	ldrb	w1, [x0]
   88220:	f0000420 	adrp	x0, 10f000 <EcoVirtualMemory1Lab_623E1838_MemoryMap+0x7d610>
   88224:	913ab000 	add	x0, x0, #0xeac
   88228:	39400000 	ldrb	w0, [x0]
   8822c:	6b00003f 	cmp	w1, w0
   88230:	54000e61 	b.ne	883fc <CEcoVFB1_AF252188_QueryInterface+0x9c8>  // b.any
   88234:	f94013e0 	ldr	x0, [sp, #32]
   88238:	91001400 	add	x0, x0, #0x5
   8823c:	39400001 	ldrb	w1, [x0]
   88240:	f0000420 	adrp	x0, 10f000 <EcoVirtualMemory1Lab_623E1838_MemoryMap+0x7d610>
   88244:	913ab400 	add	x0, x0, #0xead
   88248:	39400000 	ldrb	w0, [x0]
   8824c:	6b00003f 	cmp	w1, w0
   88250:	54000d61 	b.ne	883fc <CEcoVFB1_AF252188_QueryInterface+0x9c8>  // b.any
   88254:	f94013e0 	ldr	x0, [sp, #32]
   88258:	91001800 	add	x0, x0, #0x6
   8825c:	39400001 	ldrb	w1, [x0]
   88260:	f0000420 	adrp	x0, 10f000 <EcoVirtualMemory1Lab_623E1838_MemoryMap+0x7d610>
   88264:	913ab800 	add	x0, x0, #0xeae
   88268:	39400000 	ldrb	w0, [x0]
   8826c:	6b00003f 	cmp	w1, w0
   88270:	54000c61 	b.ne	883fc <CEcoVFB1_AF252188_QueryInterface+0x9c8>  // b.any
   88274:	f94013e0 	ldr	x0, [sp, #32]
   88278:	91001c00 	add	x0, x0, #0x7
   8827c:	39400001 	ldrb	w1, [x0]
   88280:	f0000420 	adrp	x0, 10f000 <EcoVirtualMemory1Lab_623E1838_MemoryMap+0x7d610>
   88284:	913abc00 	add	x0, x0, #0xeaf
   88288:	39400000 	ldrb	w0, [x0]
   8828c:	6b00003f 	cmp	w1, w0
   88290:	54000b61 	b.ne	883fc <CEcoVFB1_AF252188_QueryInterface+0x9c8>  // b.any
   88294:	f94013e0 	ldr	x0, [sp, #32]
   88298:	91002000 	add	x0, x0, #0x8
   8829c:	39400001 	ldrb	w1, [x0]
   882a0:	f0000420 	adrp	x0, 10f000 <EcoVirtualMemory1Lab_623E1838_MemoryMap+0x7d610>
   882a4:	913ac000 	add	x0, x0, #0xeb0
   882a8:	39400000 	ldrb	w0, [x0]
   882ac:	6b00003f 	cmp	w1, w0
   882b0:	54000a61 	b.ne	883fc <CEcoVFB1_AF252188_QueryInterface+0x9c8>  // b.any
   882b4:	f94013e0 	ldr	x0, [sp, #32]
   882b8:	91002400 	add	x0, x0, #0x9
   882bc:	39400001 	ldrb	w1, [x0]
   882c0:	f0000420 	adrp	x0, 10f000 <EcoVirtualMemory1Lab_623E1838_MemoryMap+0x7d610>
   882c4:	913ac400 	add	x0, x0, #0xeb1
   882c8:	39400000 	ldrb	w0, [x0]
   882cc:	6b00003f 	cmp	w1, w0
   882d0:	54000961 	b.ne	883fc <CEcoVFB1_AF252188_QueryInterface+0x9c8>  // b.any
   882d4:	f94013e0 	ldr	x0, [sp, #32]
   882d8:	91002800 	add	x0, x0, #0xa
   882dc:	39400001 	ldrb	w1, [x0]
   882e0:	f0000420 	adrp	x0, 10f000 <EcoVirtualMemory1Lab_623E1838_MemoryMap+0x7d610>
   882e4:	913ac800 	add	x0, x0, #0xeb2
   882e8:	39400000 	ldrb	w0, [x0]
   882ec:	6b00003f 	cmp	w1, w0
   882f0:	54000861 	b.ne	883fc <CEcoVFB1_AF252188_QueryInterface+0x9c8>  // b.any
   882f4:	f94013e0 	ldr	x0, [sp, #32]
   882f8:	91002c00 	add	x0, x0, #0xb
   882fc:	39400001 	ldrb	w1, [x0]
   88300:	f0000420 	adrp	x0, 10f000 <EcoVirtualMemory1Lab_623E1838_MemoryMap+0x7d610>
   88304:	913acc00 	add	x0, x0, #0xeb3
   88308:	39400000 	ldrb	w0, [x0]
   8830c:	6b00003f 	cmp	w1, w0
   88310:	54000761 	b.ne	883fc <CEcoVFB1_AF252188_QueryInterface+0x9c8>  // b.any
   88314:	f94013e0 	ldr	x0, [sp, #32]
   88318:	91003000 	add	x0, x0, #0xc
   8831c:	39400001 	ldrb	w1, [x0]
   88320:	f0000420 	adrp	x0, 10f000 <EcoVirtualMemory1Lab_623E1838_MemoryMap+0x7d610>
   88324:	913ad000 	add	x0, x0, #0xeb4
   88328:	39400000 	ldrb	w0, [x0]
   8832c:	6b00003f 	cmp	w1, w0
   88330:	54000661 	b.ne	883fc <CEcoVFB1_AF252188_QueryInterface+0x9c8>  // b.any
   88334:	f94013e0 	ldr	x0, [sp, #32]
   88338:	91003400 	add	x0, x0, #0xd
   8833c:	39400001 	ldrb	w1, [x0]
   88340:	f0000420 	adrp	x0, 10f000 <EcoVirtualMemory1Lab_623E1838_MemoryMap+0x7d610>
   88344:	913ad400 	add	x0, x0, #0xeb5
   88348:	39400000 	ldrb	w0, [x0]
   8834c:	6b00003f 	cmp	w1, w0
   88350:	54000561 	b.ne	883fc <CEcoVFB1_AF252188_QueryInterface+0x9c8>  // b.any
   88354:	f94013e0 	ldr	x0, [sp, #32]
   88358:	91003800 	add	x0, x0, #0xe
   8835c:	39400001 	ldrb	w1, [x0]
   88360:	f0000420 	adrp	x0, 10f000 <EcoVirtualMemory1Lab_623E1838_MemoryMap+0x7d610>
   88364:	913ad800 	add	x0, x0, #0xeb6
   88368:	39400000 	ldrb	w0, [x0]
   8836c:	6b00003f 	cmp	w1, w0
   88370:	54000461 	b.ne	883fc <CEcoVFB1_AF252188_QueryInterface+0x9c8>  // b.any
   88374:	f94013e0 	ldr	x0, [sp, #32]
   88378:	91003c00 	add	x0, x0, #0xf
   8837c:	39400001 	ldrb	w1, [x0]
   88380:	f0000420 	adrp	x0, 10f000 <EcoVirtualMemory1Lab_623E1838_MemoryMap+0x7d610>
   88384:	913adc00 	add	x0, x0, #0xeb7
   88388:	39400000 	ldrb	w0, [x0]
   8838c:	6b00003f 	cmp	w1, w0
   88390:	54000361 	b.ne	883fc <CEcoVFB1_AF252188_QueryInterface+0x9c8>  // b.any
   88394:	f94013e0 	ldr	x0, [sp, #32]
   88398:	91004000 	add	x0, x0, #0x10
   8839c:	39400001 	ldrb	w1, [x0]
   883a0:	f0000420 	adrp	x0, 10f000 <EcoVirtualMemory1Lab_623E1838_MemoryMap+0x7d610>
   883a4:	913ae000 	add	x0, x0, #0xeb8
   883a8:	39400000 	ldrb	w0, [x0]
   883ac:	6b00003f 	cmp	w1, w0
   883b0:	54000261 	b.ne	883fc <CEcoVFB1_AF252188_QueryInterface+0x9c8>  // b.any
   883b4:	f94013e0 	ldr	x0, [sp, #32]
   883b8:	91004400 	add	x0, x0, #0x11
   883bc:	39400001 	ldrb	w1, [x0]
   883c0:	f0000420 	adrp	x0, 10f000 <EcoVirtualMemory1Lab_623E1838_MemoryMap+0x7d610>
   883c4:	913ae400 	add	x0, x0, #0xeb9
   883c8:	39400000 	ldrb	w0, [x0]
   883cc:	6b00003f 	cmp	w1, w0
   883d0:	54000161 	b.ne	883fc <CEcoVFB1_AF252188_QueryInterface+0x9c8>  // b.any
   883d4:	f9401fe0 	ldr	x0, [sp, #56]
   883d8:	91006001 	add	x1, x0, #0x18
   883dc:	f9400fe0 	ldr	x0, [sp, #24]
   883e0:	f9000001 	str	x1, [x0]
   883e4:	f9401fe0 	ldr	x0, [sp, #56]
   883e8:	f9400000 	ldr	x0, [x0]
   883ec:	f9400401 	ldr	x1, [x0, #8]
   883f0:	f9401fe0 	ldr	x0, [sp, #56]
   883f4:	d63f0020 	blr	x1
   883f8:	1400009d 	b	8866c <CEcoVFB1_AF252188_QueryInterface+0xc38>
   883fc:	f94013e0 	ldr	x0, [sp, #32]
   88400:	39400001 	ldrb	w1, [x0]
   88404:	f0000420 	adrp	x0, 10f000 <EcoVirtualMemory1Lab_623E1838_MemoryMap+0x7d610>
   88408:	91320000 	add	x0, x0, #0xc80
   8840c:	39400000 	ldrb	w0, [x0]
   88410:	6b00003f 	cmp	w1, w0
   88414:	54001241 	b.ne	8865c <CEcoVFB1_AF252188_QueryInterface+0xc28>  // b.any
   88418:	f94013e0 	ldr	x0, [sp, #32]
   8841c:	91000400 	add	x0, x0, #0x1
   88420:	39400001 	ldrb	w1, [x0]
   88424:	f0000420 	adrp	x0, 10f000 <EcoVirtualMemory1Lab_623E1838_MemoryMap+0x7d610>
   88428:	91320400 	add	x0, x0, #0xc81
   8842c:	39400000 	ldrb	w0, [x0]
   88430:	6b00003f 	cmp	w1, w0
   88434:	54001141 	b.ne	8865c <CEcoVFB1_AF252188_QueryInterface+0xc28>  // b.any
   88438:	f94013e0 	ldr	x0, [sp, #32]
   8843c:	91000800 	add	x0, x0, #0x2
   88440:	39400001 	ldrb	w1, [x0]
   88444:	f0000420 	adrp	x0, 10f000 <EcoVirtualMemory1Lab_623E1838_MemoryMap+0x7d610>
   88448:	91320800 	add	x0, x0, #0xc82
   8844c:	39400000 	ldrb	w0, [x0]
   88450:	6b00003f 	cmp	w1, w0
   88454:	54001041 	b.ne	8865c <CEcoVFB1_AF252188_QueryInterface+0xc28>  // b.any
   88458:	f94013e0 	ldr	x0, [sp, #32]
   8845c:	91000c00 	add	x0, x0, #0x3
   88460:	39400001 	ldrb	w1, [x0]
   88464:	f0000420 	adrp	x0, 10f000 <EcoVirtualMemory1Lab_623E1838_MemoryMap+0x7d610>
   88468:	91320c00 	add	x0, x0, #0xc83
   8846c:	39400000 	ldrb	w0, [x0]
   88470:	6b00003f 	cmp	w1, w0
   88474:	54000f41 	b.ne	8865c <CEcoVFB1_AF252188_QueryInterface+0xc28>  // b.any
   88478:	f94013e0 	ldr	x0, [sp, #32]
   8847c:	91001000 	add	x0, x0, #0x4
   88480:	39400001 	ldrb	w1, [x0]
   88484:	f0000420 	adrp	x0, 10f000 <EcoVirtualMemory1Lab_623E1838_MemoryMap+0x7d610>
   88488:	91321000 	add	x0, x0, #0xc84
   8848c:	39400000 	ldrb	w0, [x0]
   88490:	6b00003f 	cmp	w1, w0
   88494:	54000e41 	b.ne	8865c <CEcoVFB1_AF252188_QueryInterface+0xc28>  // b.any
   88498:	f94013e0 	ldr	x0, [sp, #32]
   8849c:	91001400 	add	x0, x0, #0x5
   884a0:	39400001 	ldrb	w1, [x0]
   884a4:	f0000420 	adrp	x0, 10f000 <EcoVirtualMemory1Lab_623E1838_MemoryMap+0x7d610>
   884a8:	91321400 	add	x0, x0, #0xc85
   884ac:	39400000 	ldrb	w0, [x0]
   884b0:	6b00003f 	cmp	w1, w0
   884b4:	54000d41 	b.ne	8865c <CEcoVFB1_AF252188_QueryInterface+0xc28>  // b.any
   884b8:	f94013e0 	ldr	x0, [sp, #32]
   884bc:	91001800 	add	x0, x0, #0x6
   884c0:	39400001 	ldrb	w1, [x0]
   884c4:	f0000420 	adrp	x0, 10f000 <EcoVirtualMemory1Lab_623E1838_MemoryMap+0x7d610>
   884c8:	91321800 	add	x0, x0, #0xc86
   884cc:	39400000 	ldrb	w0, [x0]
   884d0:	6b00003f 	cmp	w1, w0
   884d4:	54000c41 	b.ne	8865c <CEcoVFB1_AF252188_QueryInterface+0xc28>  // b.any
   884d8:	f94013e0 	ldr	x0, [sp, #32]
   884dc:	91001c00 	add	x0, x0, #0x7
   884e0:	39400001 	ldrb	w1, [x0]
   884e4:	f0000420 	adrp	x0, 10f000 <EcoVirtualMemory1Lab_623E1838_MemoryMap+0x7d610>
   884e8:	91321c00 	add	x0, x0, #0xc87
   884ec:	39400000 	ldrb	w0, [x0]
   884f0:	6b00003f 	cmp	w1, w0
   884f4:	54000b41 	b.ne	8865c <CEcoVFB1_AF252188_QueryInterface+0xc28>  // b.any
   884f8:	f94013e0 	ldr	x0, [sp, #32]
   884fc:	91002000 	add	x0, x0, #0x8
   88500:	39400001 	ldrb	w1, [x0]
   88504:	f0000420 	adrp	x0, 10f000 <EcoVirtualMemory1Lab_623E1838_MemoryMap+0x7d610>
   88508:	91322000 	add	x0, x0, #0xc88
   8850c:	39400000 	ldrb	w0, [x0]
   88510:	6b00003f 	cmp	w1, w0
   88514:	54000a41 	b.ne	8865c <CEcoVFB1_AF252188_QueryInterface+0xc28>  // b.any
   88518:	f94013e0 	ldr	x0, [sp, #32]
   8851c:	91002400 	add	x0, x0, #0x9
   88520:	39400001 	ldrb	w1, [x0]
   88524:	f0000420 	adrp	x0, 10f000 <EcoVirtualMemory1Lab_623E1838_MemoryMap+0x7d610>
   88528:	91322400 	add	x0, x0, #0xc89
   8852c:	39400000 	ldrb	w0, [x0]
   88530:	6b00003f 	cmp	w1, w0
   88534:	54000941 	b.ne	8865c <CEcoVFB1_AF252188_QueryInterface+0xc28>  // b.any
   88538:	f94013e0 	ldr	x0, [sp, #32]
   8853c:	91002800 	add	x0, x0, #0xa
   88540:	39400001 	ldrb	w1, [x0]
   88544:	f0000420 	adrp	x0, 10f000 <EcoVirtualMemory1Lab_623E1838_MemoryMap+0x7d610>
   88548:	91322800 	add	x0, x0, #0xc8a
   8854c:	39400000 	ldrb	w0, [x0]
   88550:	6b00003f 	cmp	w1, w0
   88554:	54000841 	b.ne	8865c <CEcoVFB1_AF252188_QueryInterface+0xc28>  // b.any
   88558:	f94013e0 	ldr	x0, [sp, #32]
   8855c:	91002c00 	add	x0, x0, #0xb
   88560:	39400001 	ldrb	w1, [x0]
   88564:	f0000420 	adrp	x0, 10f000 <EcoVirtualMemory1Lab_623E1838_MemoryMap+0x7d610>
   88568:	91322c00 	add	x0, x0, #0xc8b
   8856c:	39400000 	ldrb	w0, [x0]
   88570:	6b00003f 	cmp	w1, w0
   88574:	54000741 	b.ne	8865c <CEcoVFB1_AF252188_QueryInterface+0xc28>  // b.any
   88578:	f94013e0 	ldr	x0, [sp, #32]
   8857c:	91003000 	add	x0, x0, #0xc
   88580:	39400001 	ldrb	w1, [x0]
   88584:	f0000420 	adrp	x0, 10f000 <EcoVirtualMemory1Lab_623E1838_MemoryMap+0x7d610>
   88588:	91323000 	add	x0, x0, #0xc8c
   8858c:	39400000 	ldrb	w0, [x0]
   88590:	6b00003f 	cmp	w1, w0
   88594:	54000641 	b.ne	8865c <CEcoVFB1_AF252188_QueryInterface+0xc28>  // b.any
   88598:	f94013e0 	ldr	x0, [sp, #32]
   8859c:	91003400 	add	x0, x0, #0xd
   885a0:	39400001 	ldrb	w1, [x0]
   885a4:	f0000420 	adrp	x0, 10f000 <EcoVirtualMemory1Lab_623E1838_MemoryMap+0x7d610>
   885a8:	91323400 	add	x0, x0, #0xc8d
   885ac:	39400000 	ldrb	w0, [x0]
   885b0:	6b00003f 	cmp	w1, w0
   885b4:	54000541 	b.ne	8865c <CEcoVFB1_AF252188_QueryInterface+0xc28>  // b.any
   885b8:	f94013e0 	ldr	x0, [sp, #32]
   885bc:	91003800 	add	x0, x0, #0xe
   885c0:	39400001 	ldrb	w1, [x0]
   885c4:	f0000420 	adrp	x0, 10f000 <EcoVirtualMemory1Lab_623E1838_MemoryMap+0x7d610>
   885c8:	91323800 	add	x0, x0, #0xc8e
   885cc:	39400000 	ldrb	w0, [x0]
   885d0:	6b00003f 	cmp	w1, w0
   885d4:	54000441 	b.ne	8865c <CEcoVFB1_AF252188_QueryInterface+0xc28>  // b.any
   885d8:	f94013e0 	ldr	x0, [sp, #32]
   885dc:	91003c00 	add	x0, x0, #0xf
   885e0:	39400001 	ldrb	w1, [x0]
   885e4:	f0000420 	adrp	x0, 10f000 <EcoVirtualMemory1Lab_623E1838_MemoryMap+0x7d610>
   885e8:	91323c00 	add	x0, x0, #0xc8f
   885ec:	39400000 	ldrb	w0, [x0]
   885f0:	6b00003f 	cmp	w1, w0
   885f4:	54000341 	b.ne	8865c <CEcoVFB1_AF252188_QueryInterface+0xc28>  // b.any
   885f8:	f94013e0 	ldr	x0, [sp, #32]
   885fc:	91004000 	add	x0, x0, #0x10
   88600:	39400001 	ldrb	w1, [x0]
   88604:	f0000420 	adrp	x0, 10f000 <EcoVirtualMemory1Lab_623E1838_MemoryMap+0x7d610>
   88608:	91324000 	add	x0, x0, #0xc90
   8860c:	39400000 	ldrb	w0, [x0]
   88610:	6b00003f 	cmp	w1, w0
   88614:	54000241 	b.ne	8865c <CEcoVFB1_AF252188_QueryInterface+0xc28>  // b.any
   88618:	f94013e0 	ldr	x0, [sp, #32]
   8861c:	91004400 	add	x0, x0, #0x11
   88620:	39400001 	ldrb	w1, [x0]
   88624:	f0000420 	adrp	x0, 10f000 <EcoVirtualMemory1Lab_623E1838_MemoryMap+0x7d610>
   88628:	91324400 	add	x0, x0, #0xc91
   8862c:	39400000 	ldrb	w0, [x0]
   88630:	6b00003f 	cmp	w1, w0
   88634:	54000141 	b.ne	8865c <CEcoVFB1_AF252188_QueryInterface+0xc28>  // b.any
   88638:	f9401fe1 	ldr	x1, [sp, #56]
   8863c:	f9400fe0 	ldr	x0, [sp, #24]
   88640:	f9000001 	str	x1, [x0]
   88644:	f9401fe0 	ldr	x0, [sp, #56]
   88648:	f9400000 	ldr	x0, [x0]
   8864c:	f9400401 	ldr	x1, [x0, #8]
   88650:	f9401fe0 	ldr	x0, [sp, #56]
   88654:	d63f0020 	blr	x1
   88658:	14000005 	b	8866c <CEcoVFB1_AF252188_QueryInterface+0xc38>
   8865c:	f9400fe0 	ldr	x0, [sp, #24]
   88660:	f900001f 	str	xzr, [x0]
   88664:	12800240 	mov	w0, #0xffffffed            	// #-19
   88668:	14000002 	b	88670 <CEcoVFB1_AF252188_QueryInterface+0xc3c>
   8866c:	52800000 	mov	w0, #0x0                   	// #0
   88670:	a8c47bfd 	ldp	x29, x30, [sp], #64
   88674:	d65f03c0 	ret

0000000000088678 <CEcoVFB1_AF252188_AddRef>:
   88678:	d10083ff 	sub	sp, sp, #0x20
   8867c:	f90007e0 	str	x0, [sp, #8]
   88680:	f94007e0 	ldr	x0, [sp, #8]
   88684:	f9000fe0 	str	x0, [sp, #24]
   88688:	f94007e0 	ldr	x0, [sp, #8]
   8868c:	f100001f 	cmp	x0, #0x0
   88690:	54000061 	b.ne	8869c <CEcoVFB1_AF252188_AddRef+0x24>  // b.any
   88694:	12800000 	mov	w0, #0xffffffff            	// #-1
   88698:	14000008 	b	886b8 <CEcoVFB1_AF252188_AddRef+0x40>
   8869c:	f9400fe0 	ldr	x0, [sp, #24]
   886a0:	b9402000 	ldr	w0, [x0, #32]
   886a4:	11000401 	add	w1, w0, #0x1
   886a8:	f9400fe0 	ldr	x0, [sp, #24]
   886ac:	b9002001 	str	w1, [x0, #32]
   886b0:	f9400fe0 	ldr	x0, [sp, #24]
   886b4:	b9402000 	ldr	w0, [x0, #32]
   886b8:	910083ff 	add	sp, sp, #0x20
   886bc:	d65f03c0 	ret

00000000000886c0 <CEcoVFB1_AF252188_Release>:
   886c0:	a9bd7bfd 	stp	x29, x30, [sp, #-48]!
   886c4:	910003fd 	mov	x29, sp
   886c8:	f9000fe0 	str	x0, [sp, #24]
   886cc:	f9400fe0 	ldr	x0, [sp, #24]
   886d0:	f90017e0 	str	x0, [sp, #40]
   886d4:	f9400fe0 	ldr	x0, [sp, #24]
   886d8:	f100001f 	cmp	x0, #0x0
   886dc:	54000061 	b.ne	886e8 <CEcoVFB1_AF252188_Release+0x28>  // b.any
   886e0:	12800000 	mov	w0, #0xffffffff            	// #-1
   886e4:	14000010 	b	88724 <CEcoVFB1_AF252188_Release+0x64>
   886e8:	f94017e0 	ldr	x0, [sp, #40]
   886ec:	b9402000 	ldr	w0, [x0, #32]
   886f0:	51000401 	sub	w1, w0, #0x1
   886f4:	f94017e0 	ldr	x0, [sp, #40]
   886f8:	b9002001 	str	w1, [x0, #32]
   886fc:	f94017e0 	ldr	x0, [sp, #40]
   88700:	b9402000 	ldr	w0, [x0, #32]
   88704:	7100001f 	cmp	w0, #0x0
   88708:	540000a1 	b.ne	8871c <CEcoVFB1_AF252188_Release+0x5c>  // b.any
   8870c:	f94017e0 	ldr	x0, [sp, #40]
   88710:	94000e20 	bl	8bf90 <deleteCEcoVFB1_AF252188>
   88714:	52800000 	mov	w0, #0x0                   	// #0
   88718:	14000003 	b	88724 <CEcoVFB1_AF252188_Release+0x64>
   8871c:	f94017e0 	ldr	x0, [sp, #40]
   88720:	b9402000 	ldr	w0, [x0, #32]
   88724:	a8c37bfd 	ldp	x29, x30, [sp], #48
   88728:	d65f03c0 	ret

000000000008872c <CEcoVFB1_AF252188_Create>:
   8872c:	d100c3ff 	sub	sp, sp, #0x30
   88730:	f9000fe0 	str	x0, [sp, #24]
   88734:	b90017e1 	str	w1, [sp, #20]
   88738:	b90013e2 	str	w2, [sp, #16]
   8873c:	b9000fe3 	str	w3, [sp, #12]
   88740:	b9000be4 	str	w4, [sp, #8]
   88744:	f9400fe0 	ldr	x0, [sp, #24]
   88748:	f90017e0 	str	x0, [sp, #40]
   8874c:	79004fff 	strh	wzr, [sp, #38]
   88750:	f9400fe0 	ldr	x0, [sp, #24]
   88754:	f100001f 	cmp	x0, #0x0
   88758:	54000061 	b.ne	88764 <CEcoVFB1_AF252188_Create+0x38>  // b.any
   8875c:	12800220 	mov	w0, #0xffffffee            	// #-18
   88760:	14000002 	b	88768 <CEcoVFB1_AF252188_Create+0x3c>
   88764:	52800000 	mov	w0, #0x0                   	// #0
   88768:	9100c3ff 	add	sp, sp, #0x30
   8876c:	d65f03c0 	ret

0000000000088770 <CEcoVFB1_AF252188_Read>:
   88770:	d100c3ff 	sub	sp, sp, #0x30
   88774:	f9000fe0 	str	x0, [sp, #24]
   88778:	f9000be1 	str	x1, [sp, #16]
   8877c:	f90007e2 	str	x2, [sp, #8]
   88780:	f9400fe0 	ldr	x0, [sp, #24]
   88784:	f90017e0 	str	x0, [sp, #40]
   88788:	f9400fe0 	ldr	x0, [sp, #24]
   8878c:	f100001f 	cmp	x0, #0x0
   88790:	54000061 	b.ne	8879c <CEcoVFB1_AF252188_Read+0x2c>  // b.any
   88794:	12800220 	mov	w0, #0xffffffee            	// #-18
   88798:	14000002 	b	887a0 <CEcoVFB1_AF252188_Read+0x30>
   8879c:	52800000 	mov	w0, #0x0                   	// #0
   887a0:	9100c3ff 	add	sp, sp, #0x30
   887a4:	d65f03c0 	ret

00000000000887a8 <CEcoVFB1_AF252188_Update>:
   887a8:	d10183ff 	sub	sp, sp, #0x60
   887ac:	f9000fe0 	str	x0, [sp, #24]
   887b0:	f9000be1 	str	x1, [sp, #16]
   887b4:	b9000fe2 	str	w2, [sp, #12]
   887b8:	f9400fe0 	ldr	x0, [sp, #24]
   887bc:	f90023e0 	str	x0, [sp, #64]
   887c0:	3900ffff 	strb	wzr, [sp, #63]
   887c4:	f9001bff 	str	xzr, [sp, #48]
   887c8:	f9002fff 	str	xzr, [sp, #88]
   887cc:	b9400fe0 	ldr	w0, [sp, #12]
   887d0:	b9002fe0 	str	w0, [sp, #44]
   887d4:	f9002bff 	str	xzr, [sp, #80]
   887d8:	f9400fe0 	ldr	x0, [sp, #24]
   887dc:	f100001f 	cmp	x0, #0x0
   887e0:	54000061 	b.ne	887ec <CEcoVFB1_AF252188_Update+0x44>  // b.any
   887e4:	52800080 	mov	w0, #0x4                   	// #4
   887e8:	1400003a 	b	888d0 <CEcoVFB1_AF252188_Update+0x128>
   887ec:	f94023e0 	ldr	x0, [sp, #64]
   887f0:	39414000 	ldrb	w0, [x0, #80]
   887f4:	7100001f 	cmp	w0, #0x0
   887f8:	54000060 	b.eq	88804 <CEcoVFB1_AF252188_Update+0x5c>  // b.none
   887fc:	52800060 	mov	w0, #0x3                   	// #3
   88800:	14000034 	b	888d0 <CEcoVFB1_AF252188_Update+0x128>
   88804:	f9400be0 	ldr	x0, [sp, #16]
   88808:	f100001f 	cmp	x0, #0x0
   8880c:	54000061 	b.ne	88818 <CEcoVFB1_AF252188_Update+0x70>  // b.any
   88810:	528000a0 	mov	w0, #0x5                   	// #5
   88814:	1400002f 	b	888d0 <CEcoVFB1_AF252188_Update+0x128>
   88818:	f9400be0 	ldr	x0, [sp, #16]
   8881c:	f9002fe0 	str	x0, [sp, #88]
   88820:	f94023e0 	ldr	x0, [sp, #64]
   88824:	f9403400 	ldr	x0, [x0, #104]
   88828:	f9002be0 	str	x0, [sp, #80]
   8882c:	b9004fff 	str	wzr, [sp, #76]
   88830:	14000020 	b	888b0 <CEcoVFB1_AF252188_Update+0x108>
   88834:	b9004bff 	str	wzr, [sp, #72]
   88838:	1400000e 	b	88870 <CEcoVFB1_AF252188_Update+0xc8>
   8883c:	f9402fe0 	ldr	x0, [sp, #88]
   88840:	91000801 	add	x1, x0, #0x2
   88844:	f9002fe1 	str	x1, [sp, #88]
   88848:	b9404be1 	ldr	w1, [sp, #72]
   8884c:	8b010021 	add	x1, x1, x1
   88850:	aa0103e2 	mov	x2, x1
   88854:	f9402be1 	ldr	x1, [sp, #80]
   88858:	8b020021 	add	x1, x1, x2
   8885c:	79400000 	ldrh	w0, [x0]
   88860:	79000020 	strh	w0, [x1]
   88864:	b9404be0 	ldr	w0, [sp, #72]
   88868:	11000400 	add	w0, w0, #0x1
   8886c:	b9004be0 	str	w0, [sp, #72]
   88870:	f94023e0 	ldr	x0, [sp, #64]
   88874:	b9405400 	ldr	w0, [x0, #84]
   88878:	b9404be1 	ldr	w1, [sp, #72]
   8887c:	6b00003f 	cmp	w1, w0
   88880:	54fffde3 	b.cc	8883c <CEcoVFB1_AF252188_Update+0x94>  // b.lo, b.ul, b.last
   88884:	f94023e0 	ldr	x0, [sp, #64]
   88888:	b9405400 	ldr	w0, [x0, #84]
   8888c:	2a0003e0 	mov	w0, w0
   88890:	8b000000 	add	x0, x0, x0
   88894:	aa0003e1 	mov	x1, x0
   88898:	f9402be0 	ldr	x0, [sp, #80]
   8889c:	8b010000 	add	x0, x0, x1
   888a0:	f9002be0 	str	x0, [sp, #80]
   888a4:	b9404fe0 	ldr	w0, [sp, #76]
   888a8:	11000400 	add	w0, w0, #0x1
   888ac:	b9004fe0 	str	w0, [sp, #76]
   888b0:	f94023e0 	ldr	x0, [sp, #64]
   888b4:	b9405800 	ldr	w0, [x0, #88]
   888b8:	b9404fe1 	ldr	w1, [sp, #76]
   888bc:	6b00003f 	cmp	w1, w0
   888c0:	54fffba3 	b.cc	88834 <CEcoVFB1_AF252188_Update+0x8c>  // b.lo, b.ul, b.last
   888c4:	d5033f9f 	dsb	sy
   888c8:	d5033fdf 	isb
   888cc:	52800000 	mov	w0, #0x0                   	// #0
   888d0:	910183ff 	add	sp, sp, #0x60
   888d4:	d65f03c0 	ret

00000000000888d8 <CEcoVFB1_AF252188_Delete>:
   888d8:	d10083ff 	sub	sp, sp, #0x20
   888dc:	f90007e0 	str	x0, [sp, #8]
   888e0:	f94007e0 	ldr	x0, [sp, #8]
   888e4:	f9000fe0 	str	x0, [sp, #24]
   888e8:	f94007e0 	ldr	x0, [sp, #8]
   888ec:	f100001f 	cmp	x0, #0x0
   888f0:	54000061 	b.ne	888fc <CEcoVFB1_AF252188_Delete+0x24>  // b.any
   888f4:	12800220 	mov	w0, #0xffffffee            	// #-18
   888f8:	14000002 	b	88900 <CEcoVFB1_AF252188_Delete+0x28>
   888fc:	52800020 	mov	w0, #0x1                   	// #1
   88900:	910083ff 	add	sp, sp, #0x20
   88904:	d65f03c0 	ret

0000000000088908 <CEcoVFB1_AF252188_get_Mode>:
   88908:	d10083ff 	sub	sp, sp, #0x20
   8890c:	f90007e0 	str	x0, [sp, #8]
   88910:	f90003e1 	str	x1, [sp]
   88914:	f94007e0 	ldr	x0, [sp, #8]
   88918:	f9000fe0 	str	x0, [sp, #24]
   8891c:	f94007e0 	ldr	x0, [sp, #8]
   88920:	f100001f 	cmp	x0, #0x0
   88924:	54000061 	b.ne	88930 <CEcoVFB1_AF252188_get_Mode+0x28>  // b.any
   88928:	12800220 	mov	w0, #0xffffffee            	// #-18
   8892c:	14000002 	b	88934 <CEcoVFB1_AF252188_get_Mode+0x2c>
   88930:	52800000 	mov	w0, #0x0                   	// #0
   88934:	910083ff 	add	sp, sp, #0x20
   88938:	d65f03c0 	ret

000000000008893c <CEcoVFB1ScreenInfo_AF252188_QueryInterface>:
   8893c:	a9bc7bfd 	stp	x29, x30, [sp, #-64]!
   88940:	910003fd 	mov	x29, sp
   88944:	f90017e0 	str	x0, [sp, #40]
   88948:	f90013e1 	str	x1, [sp, #32]
   8894c:	f9000fe2 	str	x2, [sp, #24]
   88950:	f94017e0 	ldr	x0, [sp, #40]
   88954:	d1002000 	sub	x0, x0, #0x8
   88958:	f9001fe0 	str	x0, [sp, #56]
   8895c:	f94017e0 	ldr	x0, [sp, #40]
   88960:	f100001f 	cmp	x0, #0x0
   88964:	54000080 	b.eq	88974 <CEcoVFB1ScreenInfo_AF252188_QueryInterface+0x38>  // b.none
   88968:	f9400fe0 	ldr	x0, [sp, #24]
   8896c:	f100001f 	cmp	x0, #0x0
   88970:	54000061 	b.ne	8897c <CEcoVFB1ScreenInfo_AF252188_QueryInterface+0x40>  // b.any
   88974:	12800220 	mov	w0, #0xffffffee            	// #-18
   88978:	14000301 	b	8957c <CEcoVFB1ScreenInfo_AF252188_QueryInterface+0xc40>
   8897c:	f94013e0 	ldr	x0, [sp, #32]
   88980:	39400001 	ldrb	w1, [x0]
   88984:	f0000420 	adrp	x0, 10f000 <EcoVirtualMemory1Lab_623E1838_MemoryMap+0x7d610>
   88988:	91392000 	add	x0, x0, #0xe48
   8898c:	39400000 	ldrb	w0, [x0]
   88990:	6b00003f 	cmp	w1, w0
   88994:	54001241 	b.ne	88bdc <CEcoVFB1ScreenInfo_AF252188_QueryInterface+0x2a0>  // b.any
   88998:	f94013e0 	ldr	x0, [sp, #32]
   8899c:	91000400 	add	x0, x0, #0x1
   889a0:	39400001 	ldrb	w1, [x0]
   889a4:	f0000420 	adrp	x0, 10f000 <EcoVirtualMemory1Lab_623E1838_MemoryMap+0x7d610>
   889a8:	91392400 	add	x0, x0, #0xe49
   889ac:	39400000 	ldrb	w0, [x0]
   889b0:	6b00003f 	cmp	w1, w0
   889b4:	54001141 	b.ne	88bdc <CEcoVFB1ScreenInfo_AF252188_QueryInterface+0x2a0>  // b.any
   889b8:	f94013e0 	ldr	x0, [sp, #32]
   889bc:	91000800 	add	x0, x0, #0x2
   889c0:	39400001 	ldrb	w1, [x0]
   889c4:	f0000420 	adrp	x0, 10f000 <EcoVirtualMemory1Lab_623E1838_MemoryMap+0x7d610>
   889c8:	91392800 	add	x0, x0, #0xe4a
   889cc:	39400000 	ldrb	w0, [x0]
   889d0:	6b00003f 	cmp	w1, w0
   889d4:	54001041 	b.ne	88bdc <CEcoVFB1ScreenInfo_AF252188_QueryInterface+0x2a0>  // b.any
   889d8:	f94013e0 	ldr	x0, [sp, #32]
   889dc:	91000c00 	add	x0, x0, #0x3
   889e0:	39400001 	ldrb	w1, [x0]
   889e4:	f0000420 	adrp	x0, 10f000 <EcoVirtualMemory1Lab_623E1838_MemoryMap+0x7d610>
   889e8:	91392c00 	add	x0, x0, #0xe4b
   889ec:	39400000 	ldrb	w0, [x0]
   889f0:	6b00003f 	cmp	w1, w0
   889f4:	54000f41 	b.ne	88bdc <CEcoVFB1ScreenInfo_AF252188_QueryInterface+0x2a0>  // b.any
   889f8:	f94013e0 	ldr	x0, [sp, #32]
   889fc:	91001000 	add	x0, x0, #0x4
   88a00:	39400001 	ldrb	w1, [x0]
   88a04:	f0000420 	adrp	x0, 10f000 <EcoVirtualMemory1Lab_623E1838_MemoryMap+0x7d610>
   88a08:	91393000 	add	x0, x0, #0xe4c
   88a0c:	39400000 	ldrb	w0, [x0]
   88a10:	6b00003f 	cmp	w1, w0
   88a14:	54000e41 	b.ne	88bdc <CEcoVFB1ScreenInfo_AF252188_QueryInterface+0x2a0>  // b.any
   88a18:	f94013e0 	ldr	x0, [sp, #32]
   88a1c:	91001400 	add	x0, x0, #0x5
   88a20:	39400001 	ldrb	w1, [x0]
   88a24:	f0000420 	adrp	x0, 10f000 <EcoVirtualMemory1Lab_623E1838_MemoryMap+0x7d610>
   88a28:	91393400 	add	x0, x0, #0xe4d
   88a2c:	39400000 	ldrb	w0, [x0]
   88a30:	6b00003f 	cmp	w1, w0
   88a34:	54000d41 	b.ne	88bdc <CEcoVFB1ScreenInfo_AF252188_QueryInterface+0x2a0>  // b.any
   88a38:	f94013e0 	ldr	x0, [sp, #32]
   88a3c:	91001800 	add	x0, x0, #0x6
   88a40:	39400001 	ldrb	w1, [x0]
   88a44:	f0000420 	adrp	x0, 10f000 <EcoVirtualMemory1Lab_623E1838_MemoryMap+0x7d610>
   88a48:	91393800 	add	x0, x0, #0xe4e
   88a4c:	39400000 	ldrb	w0, [x0]
   88a50:	6b00003f 	cmp	w1, w0
   88a54:	54000c41 	b.ne	88bdc <CEcoVFB1ScreenInfo_AF252188_QueryInterface+0x2a0>  // b.any
   88a58:	f94013e0 	ldr	x0, [sp, #32]
   88a5c:	91001c00 	add	x0, x0, #0x7
   88a60:	39400001 	ldrb	w1, [x0]
   88a64:	f0000420 	adrp	x0, 10f000 <EcoVirtualMemory1Lab_623E1838_MemoryMap+0x7d610>
   88a68:	91393c00 	add	x0, x0, #0xe4f
   88a6c:	39400000 	ldrb	w0, [x0]
   88a70:	6b00003f 	cmp	w1, w0
   88a74:	54000b41 	b.ne	88bdc <CEcoVFB1ScreenInfo_AF252188_QueryInterface+0x2a0>  // b.any
   88a78:	f94013e0 	ldr	x0, [sp, #32]
   88a7c:	91002000 	add	x0, x0, #0x8
   88a80:	39400001 	ldrb	w1, [x0]
   88a84:	f0000420 	adrp	x0, 10f000 <EcoVirtualMemory1Lab_623E1838_MemoryMap+0x7d610>
   88a88:	91394000 	add	x0, x0, #0xe50
   88a8c:	39400000 	ldrb	w0, [x0]
   88a90:	6b00003f 	cmp	w1, w0
   88a94:	54000a41 	b.ne	88bdc <CEcoVFB1ScreenInfo_AF252188_QueryInterface+0x2a0>  // b.any
   88a98:	f94013e0 	ldr	x0, [sp, #32]
   88a9c:	91002400 	add	x0, x0, #0x9
   88aa0:	39400001 	ldrb	w1, [x0]
   88aa4:	f0000420 	adrp	x0, 10f000 <EcoVirtualMemory1Lab_623E1838_MemoryMap+0x7d610>
   88aa8:	91394400 	add	x0, x0, #0xe51
   88aac:	39400000 	ldrb	w0, [x0]
   88ab0:	6b00003f 	cmp	w1, w0
   88ab4:	54000941 	b.ne	88bdc <CEcoVFB1ScreenInfo_AF252188_QueryInterface+0x2a0>  // b.any
   88ab8:	f94013e0 	ldr	x0, [sp, #32]
   88abc:	91002800 	add	x0, x0, #0xa
   88ac0:	39400001 	ldrb	w1, [x0]
   88ac4:	f0000420 	adrp	x0, 10f000 <EcoVirtualMemory1Lab_623E1838_MemoryMap+0x7d610>
   88ac8:	91394800 	add	x0, x0, #0xe52
   88acc:	39400000 	ldrb	w0, [x0]
   88ad0:	6b00003f 	cmp	w1, w0
   88ad4:	54000841 	b.ne	88bdc <CEcoVFB1ScreenInfo_AF252188_QueryInterface+0x2a0>  // b.any
   88ad8:	f94013e0 	ldr	x0, [sp, #32]
   88adc:	91002c00 	add	x0, x0, #0xb
   88ae0:	39400001 	ldrb	w1, [x0]
   88ae4:	f0000420 	adrp	x0, 10f000 <EcoVirtualMemory1Lab_623E1838_MemoryMap+0x7d610>
   88ae8:	91394c00 	add	x0, x0, #0xe53
   88aec:	39400000 	ldrb	w0, [x0]
   88af0:	6b00003f 	cmp	w1, w0
   88af4:	54000741 	b.ne	88bdc <CEcoVFB1ScreenInfo_AF252188_QueryInterface+0x2a0>  // b.any
   88af8:	f94013e0 	ldr	x0, [sp, #32]
   88afc:	91003000 	add	x0, x0, #0xc
   88b00:	39400001 	ldrb	w1, [x0]
   88b04:	f0000420 	adrp	x0, 10f000 <EcoVirtualMemory1Lab_623E1838_MemoryMap+0x7d610>
   88b08:	91395000 	add	x0, x0, #0xe54
   88b0c:	39400000 	ldrb	w0, [x0]
   88b10:	6b00003f 	cmp	w1, w0
   88b14:	54000641 	b.ne	88bdc <CEcoVFB1ScreenInfo_AF252188_QueryInterface+0x2a0>  // b.any
   88b18:	f94013e0 	ldr	x0, [sp, #32]
   88b1c:	91003400 	add	x0, x0, #0xd
   88b20:	39400001 	ldrb	w1, [x0]
   88b24:	f0000420 	adrp	x0, 10f000 <EcoVirtualMemory1Lab_623E1838_MemoryMap+0x7d610>
   88b28:	91395400 	add	x0, x0, #0xe55
   88b2c:	39400000 	ldrb	w0, [x0]
   88b30:	6b00003f 	cmp	w1, w0
   88b34:	54000541 	b.ne	88bdc <CEcoVFB1ScreenInfo_AF252188_QueryInterface+0x2a0>  // b.any
   88b38:	f94013e0 	ldr	x0, [sp, #32]
   88b3c:	91003800 	add	x0, x0, #0xe
   88b40:	39400001 	ldrb	w1, [x0]
   88b44:	f0000420 	adrp	x0, 10f000 <EcoVirtualMemory1Lab_623E1838_MemoryMap+0x7d610>
   88b48:	91395800 	add	x0, x0, #0xe56
   88b4c:	39400000 	ldrb	w0, [x0]
   88b50:	6b00003f 	cmp	w1, w0
   88b54:	54000441 	b.ne	88bdc <CEcoVFB1ScreenInfo_AF252188_QueryInterface+0x2a0>  // b.any
   88b58:	f94013e0 	ldr	x0, [sp, #32]
   88b5c:	91003c00 	add	x0, x0, #0xf
   88b60:	39400001 	ldrb	w1, [x0]
   88b64:	f0000420 	adrp	x0, 10f000 <EcoVirtualMemory1Lab_623E1838_MemoryMap+0x7d610>
   88b68:	91395c00 	add	x0, x0, #0xe57
   88b6c:	39400000 	ldrb	w0, [x0]
   88b70:	6b00003f 	cmp	w1, w0
   88b74:	54000341 	b.ne	88bdc <CEcoVFB1ScreenInfo_AF252188_QueryInterface+0x2a0>  // b.any
   88b78:	f94013e0 	ldr	x0, [sp, #32]
   88b7c:	91004000 	add	x0, x0, #0x10
   88b80:	39400001 	ldrb	w1, [x0]
   88b84:	f0000420 	adrp	x0, 10f000 <EcoVirtualMemory1Lab_623E1838_MemoryMap+0x7d610>
   88b88:	91396000 	add	x0, x0, #0xe58
   88b8c:	39400000 	ldrb	w0, [x0]
   88b90:	6b00003f 	cmp	w1, w0
   88b94:	54000241 	b.ne	88bdc <CEcoVFB1ScreenInfo_AF252188_QueryInterface+0x2a0>  // b.any
   88b98:	f94013e0 	ldr	x0, [sp, #32]
   88b9c:	91004400 	add	x0, x0, #0x11
   88ba0:	39400001 	ldrb	w1, [x0]
   88ba4:	f0000420 	adrp	x0, 10f000 <EcoVirtualMemory1Lab_623E1838_MemoryMap+0x7d610>
   88ba8:	91396400 	add	x0, x0, #0xe59
   88bac:	39400000 	ldrb	w0, [x0]
   88bb0:	6b00003f 	cmp	w1, w0
   88bb4:	54000141 	b.ne	88bdc <CEcoVFB1ScreenInfo_AF252188_QueryInterface+0x2a0>  // b.any
   88bb8:	f9401fe1 	ldr	x1, [sp, #56]
   88bbc:	f9400fe0 	ldr	x0, [sp, #24]
   88bc0:	f9000001 	str	x1, [x0]
   88bc4:	f9401fe0 	ldr	x0, [sp, #56]
   88bc8:	f9400000 	ldr	x0, [x0]
   88bcc:	f9400401 	ldr	x1, [x0, #8]
   88bd0:	f9401fe0 	ldr	x0, [sp, #56]
   88bd4:	d63f0020 	blr	x1
   88bd8:	14000268 	b	89578 <CEcoVFB1ScreenInfo_AF252188_QueryInterface+0xc3c>
   88bdc:	f94013e0 	ldr	x0, [sp, #32]
   88be0:	39400001 	ldrb	w1, [x0]
   88be4:	f0000420 	adrp	x0, 10f000 <EcoVirtualMemory1Lab_623E1838_MemoryMap+0x7d610>
   88be8:	9138c000 	add	x0, x0, #0xe30
   88bec:	39400000 	ldrb	w0, [x0]
   88bf0:	6b00003f 	cmp	w1, w0
   88bf4:	54001261 	b.ne	88e40 <CEcoVFB1ScreenInfo_AF252188_QueryInterface+0x504>  // b.any
   88bf8:	f94013e0 	ldr	x0, [sp, #32]
   88bfc:	91000400 	add	x0, x0, #0x1
   88c00:	39400001 	ldrb	w1, [x0]
   88c04:	f0000420 	adrp	x0, 10f000 <EcoVirtualMemory1Lab_623E1838_MemoryMap+0x7d610>
   88c08:	9138c400 	add	x0, x0, #0xe31
   88c0c:	39400000 	ldrb	w0, [x0]
   88c10:	6b00003f 	cmp	w1, w0
   88c14:	54001161 	b.ne	88e40 <CEcoVFB1ScreenInfo_AF252188_QueryInterface+0x504>  // b.any
   88c18:	f94013e0 	ldr	x0, [sp, #32]
   88c1c:	91000800 	add	x0, x0, #0x2
   88c20:	39400001 	ldrb	w1, [x0]
   88c24:	f0000420 	adrp	x0, 10f000 <EcoVirtualMemory1Lab_623E1838_MemoryMap+0x7d610>
   88c28:	9138c800 	add	x0, x0, #0xe32
   88c2c:	39400000 	ldrb	w0, [x0]
   88c30:	6b00003f 	cmp	w1, w0
   88c34:	54001061 	b.ne	88e40 <CEcoVFB1ScreenInfo_AF252188_QueryInterface+0x504>  // b.any
   88c38:	f94013e0 	ldr	x0, [sp, #32]
   88c3c:	91000c00 	add	x0, x0, #0x3
   88c40:	39400001 	ldrb	w1, [x0]
   88c44:	f0000420 	adrp	x0, 10f000 <EcoVirtualMemory1Lab_623E1838_MemoryMap+0x7d610>
   88c48:	9138cc00 	add	x0, x0, #0xe33
   88c4c:	39400000 	ldrb	w0, [x0]
   88c50:	6b00003f 	cmp	w1, w0
   88c54:	54000f61 	b.ne	88e40 <CEcoVFB1ScreenInfo_AF252188_QueryInterface+0x504>  // b.any
   88c58:	f94013e0 	ldr	x0, [sp, #32]
   88c5c:	91001000 	add	x0, x0, #0x4
   88c60:	39400001 	ldrb	w1, [x0]
   88c64:	f0000420 	adrp	x0, 10f000 <EcoVirtualMemory1Lab_623E1838_MemoryMap+0x7d610>
   88c68:	9138d000 	add	x0, x0, #0xe34
   88c6c:	39400000 	ldrb	w0, [x0]
   88c70:	6b00003f 	cmp	w1, w0
   88c74:	54000e61 	b.ne	88e40 <CEcoVFB1ScreenInfo_AF252188_QueryInterface+0x504>  // b.any
   88c78:	f94013e0 	ldr	x0, [sp, #32]
   88c7c:	91001400 	add	x0, x0, #0x5
   88c80:	39400001 	ldrb	w1, [x0]
   88c84:	f0000420 	adrp	x0, 10f000 <EcoVirtualMemory1Lab_623E1838_MemoryMap+0x7d610>
   88c88:	9138d400 	add	x0, x0, #0xe35
   88c8c:	39400000 	ldrb	w0, [x0]
   88c90:	6b00003f 	cmp	w1, w0
   88c94:	54000d61 	b.ne	88e40 <CEcoVFB1ScreenInfo_AF252188_QueryInterface+0x504>  // b.any
   88c98:	f94013e0 	ldr	x0, [sp, #32]
   88c9c:	91001800 	add	x0, x0, #0x6
   88ca0:	39400001 	ldrb	w1, [x0]
   88ca4:	f0000420 	adrp	x0, 10f000 <EcoVirtualMemory1Lab_623E1838_MemoryMap+0x7d610>
   88ca8:	9138d800 	add	x0, x0, #0xe36
   88cac:	39400000 	ldrb	w0, [x0]
   88cb0:	6b00003f 	cmp	w1, w0
   88cb4:	54000c61 	b.ne	88e40 <CEcoVFB1ScreenInfo_AF252188_QueryInterface+0x504>  // b.any
   88cb8:	f94013e0 	ldr	x0, [sp, #32]
   88cbc:	91001c00 	add	x0, x0, #0x7
   88cc0:	39400001 	ldrb	w1, [x0]
   88cc4:	f0000420 	adrp	x0, 10f000 <EcoVirtualMemory1Lab_623E1838_MemoryMap+0x7d610>
   88cc8:	9138dc00 	add	x0, x0, #0xe37
   88ccc:	39400000 	ldrb	w0, [x0]
   88cd0:	6b00003f 	cmp	w1, w0
   88cd4:	54000b61 	b.ne	88e40 <CEcoVFB1ScreenInfo_AF252188_QueryInterface+0x504>  // b.any
   88cd8:	f94013e0 	ldr	x0, [sp, #32]
   88cdc:	91002000 	add	x0, x0, #0x8
   88ce0:	39400001 	ldrb	w1, [x0]
   88ce4:	f0000420 	adrp	x0, 10f000 <EcoVirtualMemory1Lab_623E1838_MemoryMap+0x7d610>
   88ce8:	9138e000 	add	x0, x0, #0xe38
   88cec:	39400000 	ldrb	w0, [x0]
   88cf0:	6b00003f 	cmp	w1, w0
   88cf4:	54000a61 	b.ne	88e40 <CEcoVFB1ScreenInfo_AF252188_QueryInterface+0x504>  // b.any
   88cf8:	f94013e0 	ldr	x0, [sp, #32]
   88cfc:	91002400 	add	x0, x0, #0x9
   88d00:	39400001 	ldrb	w1, [x0]
   88d04:	f0000420 	adrp	x0, 10f000 <EcoVirtualMemory1Lab_623E1838_MemoryMap+0x7d610>
   88d08:	9138e400 	add	x0, x0, #0xe39
   88d0c:	39400000 	ldrb	w0, [x0]
   88d10:	6b00003f 	cmp	w1, w0
   88d14:	54000961 	b.ne	88e40 <CEcoVFB1ScreenInfo_AF252188_QueryInterface+0x504>  // b.any
   88d18:	f94013e0 	ldr	x0, [sp, #32]
   88d1c:	91002800 	add	x0, x0, #0xa
   88d20:	39400001 	ldrb	w1, [x0]
   88d24:	f0000420 	adrp	x0, 10f000 <EcoVirtualMemory1Lab_623E1838_MemoryMap+0x7d610>
   88d28:	9138e800 	add	x0, x0, #0xe3a
   88d2c:	39400000 	ldrb	w0, [x0]
   88d30:	6b00003f 	cmp	w1, w0
   88d34:	54000861 	b.ne	88e40 <CEcoVFB1ScreenInfo_AF252188_QueryInterface+0x504>  // b.any
   88d38:	f94013e0 	ldr	x0, [sp, #32]
   88d3c:	91002c00 	add	x0, x0, #0xb
   88d40:	39400001 	ldrb	w1, [x0]
   88d44:	f0000420 	adrp	x0, 10f000 <EcoVirtualMemory1Lab_623E1838_MemoryMap+0x7d610>
   88d48:	9138ec00 	add	x0, x0, #0xe3b
   88d4c:	39400000 	ldrb	w0, [x0]
   88d50:	6b00003f 	cmp	w1, w0
   88d54:	54000761 	b.ne	88e40 <CEcoVFB1ScreenInfo_AF252188_QueryInterface+0x504>  // b.any
   88d58:	f94013e0 	ldr	x0, [sp, #32]
   88d5c:	91003000 	add	x0, x0, #0xc
   88d60:	39400001 	ldrb	w1, [x0]
   88d64:	f0000420 	adrp	x0, 10f000 <EcoVirtualMemory1Lab_623E1838_MemoryMap+0x7d610>
   88d68:	9138f000 	add	x0, x0, #0xe3c
   88d6c:	39400000 	ldrb	w0, [x0]
   88d70:	6b00003f 	cmp	w1, w0
   88d74:	54000661 	b.ne	88e40 <CEcoVFB1ScreenInfo_AF252188_QueryInterface+0x504>  // b.any
   88d78:	f94013e0 	ldr	x0, [sp, #32]
   88d7c:	91003400 	add	x0, x0, #0xd
   88d80:	39400001 	ldrb	w1, [x0]
   88d84:	f0000420 	adrp	x0, 10f000 <EcoVirtualMemory1Lab_623E1838_MemoryMap+0x7d610>
   88d88:	9138f400 	add	x0, x0, #0xe3d
   88d8c:	39400000 	ldrb	w0, [x0]
   88d90:	6b00003f 	cmp	w1, w0
   88d94:	54000561 	b.ne	88e40 <CEcoVFB1ScreenInfo_AF252188_QueryInterface+0x504>  // b.any
   88d98:	f94013e0 	ldr	x0, [sp, #32]
   88d9c:	91003800 	add	x0, x0, #0xe
   88da0:	39400001 	ldrb	w1, [x0]
   88da4:	f0000420 	adrp	x0, 10f000 <EcoVirtualMemory1Lab_623E1838_MemoryMap+0x7d610>
   88da8:	9138f800 	add	x0, x0, #0xe3e
   88dac:	39400000 	ldrb	w0, [x0]
   88db0:	6b00003f 	cmp	w1, w0
   88db4:	54000461 	b.ne	88e40 <CEcoVFB1ScreenInfo_AF252188_QueryInterface+0x504>  // b.any
   88db8:	f94013e0 	ldr	x0, [sp, #32]
   88dbc:	91003c00 	add	x0, x0, #0xf
   88dc0:	39400001 	ldrb	w1, [x0]
   88dc4:	f0000420 	adrp	x0, 10f000 <EcoVirtualMemory1Lab_623E1838_MemoryMap+0x7d610>
   88dc8:	9138fc00 	add	x0, x0, #0xe3f
   88dcc:	39400000 	ldrb	w0, [x0]
   88dd0:	6b00003f 	cmp	w1, w0
   88dd4:	54000361 	b.ne	88e40 <CEcoVFB1ScreenInfo_AF252188_QueryInterface+0x504>  // b.any
   88dd8:	f94013e0 	ldr	x0, [sp, #32]
   88ddc:	91004000 	add	x0, x0, #0x10
   88de0:	39400001 	ldrb	w1, [x0]
   88de4:	f0000420 	adrp	x0, 10f000 <EcoVirtualMemory1Lab_623E1838_MemoryMap+0x7d610>
   88de8:	91390000 	add	x0, x0, #0xe40
   88dec:	39400000 	ldrb	w0, [x0]
   88df0:	6b00003f 	cmp	w1, w0
   88df4:	54000261 	b.ne	88e40 <CEcoVFB1ScreenInfo_AF252188_QueryInterface+0x504>  // b.any
   88df8:	f94013e0 	ldr	x0, [sp, #32]
   88dfc:	91004400 	add	x0, x0, #0x11
   88e00:	39400001 	ldrb	w1, [x0]
   88e04:	f0000420 	adrp	x0, 10f000 <EcoVirtualMemory1Lab_623E1838_MemoryMap+0x7d610>
   88e08:	91390400 	add	x0, x0, #0xe41
   88e0c:	39400000 	ldrb	w0, [x0]
   88e10:	6b00003f 	cmp	w1, w0
   88e14:	54000161 	b.ne	88e40 <CEcoVFB1ScreenInfo_AF252188_QueryInterface+0x504>  // b.any
   88e18:	f9401fe0 	ldr	x0, [sp, #56]
   88e1c:	91002001 	add	x1, x0, #0x8
   88e20:	f9400fe0 	ldr	x0, [sp, #24]
   88e24:	f9000001 	str	x1, [x0]
   88e28:	f9401fe0 	ldr	x0, [sp, #56]
   88e2c:	f9400000 	ldr	x0, [x0]
   88e30:	f9400401 	ldr	x1, [x0, #8]
   88e34:	f9401fe0 	ldr	x0, [sp, #56]
   88e38:	d63f0020 	blr	x1
   88e3c:	140001cf 	b	89578 <CEcoVFB1ScreenInfo_AF252188_QueryInterface+0xc3c>
   88e40:	f94013e0 	ldr	x0, [sp, #32]
   88e44:	39400001 	ldrb	w1, [x0]
   88e48:	f0000420 	adrp	x0, 10f000 <EcoVirtualMemory1Lab_623E1838_MemoryMap+0x7d610>
   88e4c:	91386000 	add	x0, x0, #0xe18
   88e50:	39400000 	ldrb	w0, [x0]
   88e54:	6b00003f 	cmp	w1, w0
   88e58:	54001261 	b.ne	890a4 <CEcoVFB1ScreenInfo_AF252188_QueryInterface+0x768>  // b.any
   88e5c:	f94013e0 	ldr	x0, [sp, #32]
   88e60:	91000400 	add	x0, x0, #0x1
   88e64:	39400001 	ldrb	w1, [x0]
   88e68:	f0000420 	adrp	x0, 10f000 <EcoVirtualMemory1Lab_623E1838_MemoryMap+0x7d610>
   88e6c:	91386400 	add	x0, x0, #0xe19
   88e70:	39400000 	ldrb	w0, [x0]
   88e74:	6b00003f 	cmp	w1, w0
   88e78:	54001161 	b.ne	890a4 <CEcoVFB1ScreenInfo_AF252188_QueryInterface+0x768>  // b.any
   88e7c:	f94013e0 	ldr	x0, [sp, #32]
   88e80:	91000800 	add	x0, x0, #0x2
   88e84:	39400001 	ldrb	w1, [x0]
   88e88:	f0000420 	adrp	x0, 10f000 <EcoVirtualMemory1Lab_623E1838_MemoryMap+0x7d610>
   88e8c:	91386800 	add	x0, x0, #0xe1a
   88e90:	39400000 	ldrb	w0, [x0]
   88e94:	6b00003f 	cmp	w1, w0
   88e98:	54001061 	b.ne	890a4 <CEcoVFB1ScreenInfo_AF252188_QueryInterface+0x768>  // b.any
   88e9c:	f94013e0 	ldr	x0, [sp, #32]
   88ea0:	91000c00 	add	x0, x0, #0x3
   88ea4:	39400001 	ldrb	w1, [x0]
   88ea8:	f0000420 	adrp	x0, 10f000 <EcoVirtualMemory1Lab_623E1838_MemoryMap+0x7d610>
   88eac:	91386c00 	add	x0, x0, #0xe1b
   88eb0:	39400000 	ldrb	w0, [x0]
   88eb4:	6b00003f 	cmp	w1, w0
   88eb8:	54000f61 	b.ne	890a4 <CEcoVFB1ScreenInfo_AF252188_QueryInterface+0x768>  // b.any
   88ebc:	f94013e0 	ldr	x0, [sp, #32]
   88ec0:	91001000 	add	x0, x0, #0x4
   88ec4:	39400001 	ldrb	w1, [x0]
   88ec8:	f0000420 	adrp	x0, 10f000 <EcoVirtualMemory1Lab_623E1838_MemoryMap+0x7d610>
   88ecc:	91387000 	add	x0, x0, #0xe1c
   88ed0:	39400000 	ldrb	w0, [x0]
   88ed4:	6b00003f 	cmp	w1, w0
   88ed8:	54000e61 	b.ne	890a4 <CEcoVFB1ScreenInfo_AF252188_QueryInterface+0x768>  // b.any
   88edc:	f94013e0 	ldr	x0, [sp, #32]
   88ee0:	91001400 	add	x0, x0, #0x5
   88ee4:	39400001 	ldrb	w1, [x0]
   88ee8:	f0000420 	adrp	x0, 10f000 <EcoVirtualMemory1Lab_623E1838_MemoryMap+0x7d610>
   88eec:	91387400 	add	x0, x0, #0xe1d
   88ef0:	39400000 	ldrb	w0, [x0]
   88ef4:	6b00003f 	cmp	w1, w0
   88ef8:	54000d61 	b.ne	890a4 <CEcoVFB1ScreenInfo_AF252188_QueryInterface+0x768>  // b.any
   88efc:	f94013e0 	ldr	x0, [sp, #32]
   88f00:	91001800 	add	x0, x0, #0x6
   88f04:	39400001 	ldrb	w1, [x0]
   88f08:	f0000420 	adrp	x0, 10f000 <EcoVirtualMemory1Lab_623E1838_MemoryMap+0x7d610>
   88f0c:	91387800 	add	x0, x0, #0xe1e
   88f10:	39400000 	ldrb	w0, [x0]
   88f14:	6b00003f 	cmp	w1, w0
   88f18:	54000c61 	b.ne	890a4 <CEcoVFB1ScreenInfo_AF252188_QueryInterface+0x768>  // b.any
   88f1c:	f94013e0 	ldr	x0, [sp, #32]
   88f20:	91001c00 	add	x0, x0, #0x7
   88f24:	39400001 	ldrb	w1, [x0]
   88f28:	f0000420 	adrp	x0, 10f000 <EcoVirtualMemory1Lab_623E1838_MemoryMap+0x7d610>
   88f2c:	91387c00 	add	x0, x0, #0xe1f
   88f30:	39400000 	ldrb	w0, [x0]
   88f34:	6b00003f 	cmp	w1, w0
   88f38:	54000b61 	b.ne	890a4 <CEcoVFB1ScreenInfo_AF252188_QueryInterface+0x768>  // b.any
   88f3c:	f94013e0 	ldr	x0, [sp, #32]
   88f40:	91002000 	add	x0, x0, #0x8
   88f44:	39400001 	ldrb	w1, [x0]
   88f48:	f0000420 	adrp	x0, 10f000 <EcoVirtualMemory1Lab_623E1838_MemoryMap+0x7d610>
   88f4c:	91388000 	add	x0, x0, #0xe20
   88f50:	39400000 	ldrb	w0, [x0]
   88f54:	6b00003f 	cmp	w1, w0
   88f58:	54000a61 	b.ne	890a4 <CEcoVFB1ScreenInfo_AF252188_QueryInterface+0x768>  // b.any
   88f5c:	f94013e0 	ldr	x0, [sp, #32]
   88f60:	91002400 	add	x0, x0, #0x9
   88f64:	39400001 	ldrb	w1, [x0]
   88f68:	f0000420 	adrp	x0, 10f000 <EcoVirtualMemory1Lab_623E1838_MemoryMap+0x7d610>
   88f6c:	91388400 	add	x0, x0, #0xe21
   88f70:	39400000 	ldrb	w0, [x0]
   88f74:	6b00003f 	cmp	w1, w0
   88f78:	54000961 	b.ne	890a4 <CEcoVFB1ScreenInfo_AF252188_QueryInterface+0x768>  // b.any
   88f7c:	f94013e0 	ldr	x0, [sp, #32]
   88f80:	91002800 	add	x0, x0, #0xa
   88f84:	39400001 	ldrb	w1, [x0]
   88f88:	f0000420 	adrp	x0, 10f000 <EcoVirtualMemory1Lab_623E1838_MemoryMap+0x7d610>
   88f8c:	91388800 	add	x0, x0, #0xe22
   88f90:	39400000 	ldrb	w0, [x0]
   88f94:	6b00003f 	cmp	w1, w0
   88f98:	54000861 	b.ne	890a4 <CEcoVFB1ScreenInfo_AF252188_QueryInterface+0x768>  // b.any
   88f9c:	f94013e0 	ldr	x0, [sp, #32]
   88fa0:	91002c00 	add	x0, x0, #0xb
   88fa4:	39400001 	ldrb	w1, [x0]
   88fa8:	f0000420 	adrp	x0, 10f000 <EcoVirtualMemory1Lab_623E1838_MemoryMap+0x7d610>
   88fac:	91388c00 	add	x0, x0, #0xe23
   88fb0:	39400000 	ldrb	w0, [x0]
   88fb4:	6b00003f 	cmp	w1, w0
   88fb8:	54000761 	b.ne	890a4 <CEcoVFB1ScreenInfo_AF252188_QueryInterface+0x768>  // b.any
   88fbc:	f94013e0 	ldr	x0, [sp, #32]
   88fc0:	91003000 	add	x0, x0, #0xc
   88fc4:	39400001 	ldrb	w1, [x0]
   88fc8:	f0000420 	adrp	x0, 10f000 <EcoVirtualMemory1Lab_623E1838_MemoryMap+0x7d610>
   88fcc:	91389000 	add	x0, x0, #0xe24
   88fd0:	39400000 	ldrb	w0, [x0]
   88fd4:	6b00003f 	cmp	w1, w0
   88fd8:	54000661 	b.ne	890a4 <CEcoVFB1ScreenInfo_AF252188_QueryInterface+0x768>  // b.any
   88fdc:	f94013e0 	ldr	x0, [sp, #32]
   88fe0:	91003400 	add	x0, x0, #0xd
   88fe4:	39400001 	ldrb	w1, [x0]
   88fe8:	f0000420 	adrp	x0, 10f000 <EcoVirtualMemory1Lab_623E1838_MemoryMap+0x7d610>
   88fec:	91389400 	add	x0, x0, #0xe25
   88ff0:	39400000 	ldrb	w0, [x0]
   88ff4:	6b00003f 	cmp	w1, w0
   88ff8:	54000561 	b.ne	890a4 <CEcoVFB1ScreenInfo_AF252188_QueryInterface+0x768>  // b.any
   88ffc:	f94013e0 	ldr	x0, [sp, #32]
   89000:	91003800 	add	x0, x0, #0xe
   89004:	39400001 	ldrb	w1, [x0]
   89008:	d0000420 	adrp	x0, 10f000 <EcoVirtualMemory1Lab_623E1838_MemoryMap+0x7d610>
   8900c:	91389800 	add	x0, x0, #0xe26
   89010:	39400000 	ldrb	w0, [x0]
   89014:	6b00003f 	cmp	w1, w0
   89018:	54000461 	b.ne	890a4 <CEcoVFB1ScreenInfo_AF252188_QueryInterface+0x768>  // b.any
   8901c:	f94013e0 	ldr	x0, [sp, #32]
   89020:	91003c00 	add	x0, x0, #0xf
   89024:	39400001 	ldrb	w1, [x0]
   89028:	d0000420 	adrp	x0, 10f000 <EcoVirtualMemory1Lab_623E1838_MemoryMap+0x7d610>
   8902c:	91389c00 	add	x0, x0, #0xe27
   89030:	39400000 	ldrb	w0, [x0]
   89034:	6b00003f 	cmp	w1, w0
   89038:	54000361 	b.ne	890a4 <CEcoVFB1ScreenInfo_AF252188_QueryInterface+0x768>  // b.any
   8903c:	f94013e0 	ldr	x0, [sp, #32]
   89040:	91004000 	add	x0, x0, #0x10
   89044:	39400001 	ldrb	w1, [x0]
   89048:	d0000420 	adrp	x0, 10f000 <EcoVirtualMemory1Lab_623E1838_MemoryMap+0x7d610>
   8904c:	9138a000 	add	x0, x0, #0xe28
   89050:	39400000 	ldrb	w0, [x0]
   89054:	6b00003f 	cmp	w1, w0
   89058:	54000261 	b.ne	890a4 <CEcoVFB1ScreenInfo_AF252188_QueryInterface+0x768>  // b.any
   8905c:	f94013e0 	ldr	x0, [sp, #32]
   89060:	91004400 	add	x0, x0, #0x11
   89064:	39400001 	ldrb	w1, [x0]
   89068:	d0000420 	adrp	x0, 10f000 <EcoVirtualMemory1Lab_623E1838_MemoryMap+0x7d610>
   8906c:	9138a400 	add	x0, x0, #0xe29
   89070:	39400000 	ldrb	w0, [x0]
   89074:	6b00003f 	cmp	w1, w0
   89078:	54000161 	b.ne	890a4 <CEcoVFB1ScreenInfo_AF252188_QueryInterface+0x768>  // b.any
   8907c:	f9401fe0 	ldr	x0, [sp, #56]
   89080:	91004001 	add	x1, x0, #0x10
   89084:	f9400fe0 	ldr	x0, [sp, #24]
   89088:	f9000001 	str	x1, [x0]
   8908c:	f9401fe0 	ldr	x0, [sp, #56]
   89090:	f9400000 	ldr	x0, [x0]
   89094:	f9400401 	ldr	x1, [x0, #8]
   89098:	f9401fe0 	ldr	x0, [sp, #56]
   8909c:	d63f0020 	blr	x1
   890a0:	14000136 	b	89578 <CEcoVFB1ScreenInfo_AF252188_QueryInterface+0xc3c>
   890a4:	f94013e0 	ldr	x0, [sp, #32]
   890a8:	39400001 	ldrb	w1, [x0]
   890ac:	d0000420 	adrp	x0, 10f000 <EcoVirtualMemory1Lab_623E1838_MemoryMap+0x7d610>
   890b0:	913aa000 	add	x0, x0, #0xea8
   890b4:	39400000 	ldrb	w0, [x0]
   890b8:	6b00003f 	cmp	w1, w0
   890bc:	54001261 	b.ne	89308 <CEcoVFB1ScreenInfo_AF252188_QueryInterface+0x9cc>  // b.any
   890c0:	f94013e0 	ldr	x0, [sp, #32]
   890c4:	91000400 	add	x0, x0, #0x1
   890c8:	39400001 	ldrb	w1, [x0]
   890cc:	d0000420 	adrp	x0, 10f000 <EcoVirtualMemory1Lab_623E1838_MemoryMap+0x7d610>
   890d0:	913aa400 	add	x0, x0, #0xea9
   890d4:	39400000 	ldrb	w0, [x0]
   890d8:	6b00003f 	cmp	w1, w0
   890dc:	54001161 	b.ne	89308 <CEcoVFB1ScreenInfo_AF252188_QueryInterface+0x9cc>  // b.any
   890e0:	f94013e0 	ldr	x0, [sp, #32]
   890e4:	91000800 	add	x0, x0, #0x2
   890e8:	39400001 	ldrb	w1, [x0]
   890ec:	d0000420 	adrp	x0, 10f000 <EcoVirtualMemory1Lab_623E1838_MemoryMap+0x7d610>
   890f0:	913aa800 	add	x0, x0, #0xeaa
   890f4:	39400000 	ldrb	w0, [x0]
   890f8:	6b00003f 	cmp	w1, w0
   890fc:	54001061 	b.ne	89308 <CEcoVFB1ScreenInfo_AF252188_QueryInterface+0x9cc>  // b.any
   89100:	f94013e0 	ldr	x0, [sp, #32]
   89104:	91000c00 	add	x0, x0, #0x3
   89108:	39400001 	ldrb	w1, [x0]
   8910c:	d0000420 	adrp	x0, 10f000 <EcoVirtualMemory1Lab_623E1838_MemoryMap+0x7d610>
   89110:	913aac00 	add	x0, x0, #0xeab
   89114:	39400000 	ldrb	w0, [x0]
   89118:	6b00003f 	cmp	w1, w0
   8911c:	54000f61 	b.ne	89308 <CEcoVFB1ScreenInfo_AF252188_QueryInterface+0x9cc>  // b.any
   89120:	f94013e0 	ldr	x0, [sp, #32]
   89124:	91001000 	add	x0, x0, #0x4
   89128:	39400001 	ldrb	w1, [x0]
   8912c:	d0000420 	adrp	x0, 10f000 <EcoVirtualMemory1Lab_623E1838_MemoryMap+0x7d610>
   89130:	913ab000 	add	x0, x0, #0xeac
   89134:	39400000 	ldrb	w0, [x0]
   89138:	6b00003f 	cmp	w1, w0
   8913c:	54000e61 	b.ne	89308 <CEcoVFB1ScreenInfo_AF252188_QueryInterface+0x9cc>  // b.any
   89140:	f94013e0 	ldr	x0, [sp, #32]
   89144:	91001400 	add	x0, x0, #0x5
   89148:	39400001 	ldrb	w1, [x0]
   8914c:	d0000420 	adrp	x0, 10f000 <EcoVirtualMemory1Lab_623E1838_MemoryMap+0x7d610>
   89150:	913ab400 	add	x0, x0, #0xead
   89154:	39400000 	ldrb	w0, [x0]
   89158:	6b00003f 	cmp	w1, w0
   8915c:	54000d61 	b.ne	89308 <CEcoVFB1ScreenInfo_AF252188_QueryInterface+0x9cc>  // b.any
   89160:	f94013e0 	ldr	x0, [sp, #32]
   89164:	91001800 	add	x0, x0, #0x6
   89168:	39400001 	ldrb	w1, [x0]
   8916c:	d0000420 	adrp	x0, 10f000 <EcoVirtualMemory1Lab_623E1838_MemoryMap+0x7d610>
   89170:	913ab800 	add	x0, x0, #0xeae
   89174:	39400000 	ldrb	w0, [x0]
   89178:	6b00003f 	cmp	w1, w0
   8917c:	54000c61 	b.ne	89308 <CEcoVFB1ScreenInfo_AF252188_QueryInterface+0x9cc>  // b.any
   89180:	f94013e0 	ldr	x0, [sp, #32]
   89184:	91001c00 	add	x0, x0, #0x7
   89188:	39400001 	ldrb	w1, [x0]
   8918c:	d0000420 	adrp	x0, 10f000 <EcoVirtualMemory1Lab_623E1838_MemoryMap+0x7d610>
   89190:	913abc00 	add	x0, x0, #0xeaf
   89194:	39400000 	ldrb	w0, [x0]
   89198:	6b00003f 	cmp	w1, w0
   8919c:	54000b61 	b.ne	89308 <CEcoVFB1ScreenInfo_AF252188_QueryInterface+0x9cc>  // b.any
   891a0:	f94013e0 	ldr	x0, [sp, #32]
   891a4:	91002000 	add	x0, x0, #0x8
   891a8:	39400001 	ldrb	w1, [x0]
   891ac:	d0000420 	adrp	x0, 10f000 <EcoVirtualMemory1Lab_623E1838_MemoryMap+0x7d610>
   891b0:	913ac000 	add	x0, x0, #0xeb0
   891b4:	39400000 	ldrb	w0, [x0]
   891b8:	6b00003f 	cmp	w1, w0
   891bc:	54000a61 	b.ne	89308 <CEcoVFB1ScreenInfo_AF252188_QueryInterface+0x9cc>  // b.any
   891c0:	f94013e0 	ldr	x0, [sp, #32]
   891c4:	91002400 	add	x0, x0, #0x9
   891c8:	39400001 	ldrb	w1, [x0]
   891cc:	d0000420 	adrp	x0, 10f000 <EcoVirtualMemory1Lab_623E1838_MemoryMap+0x7d610>
   891d0:	913ac400 	add	x0, x0, #0xeb1
   891d4:	39400000 	ldrb	w0, [x0]
   891d8:	6b00003f 	cmp	w1, w0
   891dc:	54000961 	b.ne	89308 <CEcoVFB1ScreenInfo_AF252188_QueryInterface+0x9cc>  // b.any
   891e0:	f94013e0 	ldr	x0, [sp, #32]
   891e4:	91002800 	add	x0, x0, #0xa
   891e8:	39400001 	ldrb	w1, [x0]
   891ec:	d0000420 	adrp	x0, 10f000 <EcoVirtualMemory1Lab_623E1838_MemoryMap+0x7d610>
   891f0:	913ac800 	add	x0, x0, #0xeb2
   891f4:	39400000 	ldrb	w0, [x0]
   891f8:	6b00003f 	cmp	w1, w0
   891fc:	54000861 	b.ne	89308 <CEcoVFB1ScreenInfo_AF252188_QueryInterface+0x9cc>  // b.any
   89200:	f94013e0 	ldr	x0, [sp, #32]
   89204:	91002c00 	add	x0, x0, #0xb
   89208:	39400001 	ldrb	w1, [x0]
   8920c:	d0000420 	adrp	x0, 10f000 <EcoVirtualMemory1Lab_623E1838_MemoryMap+0x7d610>
   89210:	913acc00 	add	x0, x0, #0xeb3
   89214:	39400000 	ldrb	w0, [x0]
   89218:	6b00003f 	cmp	w1, w0
   8921c:	54000761 	b.ne	89308 <CEcoVFB1ScreenInfo_AF252188_QueryInterface+0x9cc>  // b.any
   89220:	f94013e0 	ldr	x0, [sp, #32]
   89224:	91003000 	add	x0, x0, #0xc
   89228:	39400001 	ldrb	w1, [x0]
   8922c:	d0000420 	adrp	x0, 10f000 <EcoVirtualMemory1Lab_623E1838_MemoryMap+0x7d610>
   89230:	913ad000 	add	x0, x0, #0xeb4
   89234:	39400000 	ldrb	w0, [x0]
   89238:	6b00003f 	cmp	w1, w0
   8923c:	54000661 	b.ne	89308 <CEcoVFB1ScreenInfo_AF252188_QueryInterface+0x9cc>  // b.any
   89240:	f94013e0 	ldr	x0, [sp, #32]
   89244:	91003400 	add	x0, x0, #0xd
   89248:	39400001 	ldrb	w1, [x0]
   8924c:	d0000420 	adrp	x0, 10f000 <EcoVirtualMemory1Lab_623E1838_MemoryMap+0x7d610>
   89250:	913ad400 	add	x0, x0, #0xeb5
   89254:	39400000 	ldrb	w0, [x0]
   89258:	6b00003f 	cmp	w1, w0
   8925c:	54000561 	b.ne	89308 <CEcoVFB1ScreenInfo_AF252188_QueryInterface+0x9cc>  // b.any
   89260:	f94013e0 	ldr	x0, [sp, #32]
   89264:	91003800 	add	x0, x0, #0xe
   89268:	39400001 	ldrb	w1, [x0]
   8926c:	d0000420 	adrp	x0, 10f000 <EcoVirtualMemory1Lab_623E1838_MemoryMap+0x7d610>
   89270:	913ad800 	add	x0, x0, #0xeb6
   89274:	39400000 	ldrb	w0, [x0]
   89278:	6b00003f 	cmp	w1, w0
   8927c:	54000461 	b.ne	89308 <CEcoVFB1ScreenInfo_AF252188_QueryInterface+0x9cc>  // b.any
   89280:	f94013e0 	ldr	x0, [sp, #32]
   89284:	91003c00 	add	x0, x0, #0xf
   89288:	39400001 	ldrb	w1, [x0]
   8928c:	d0000420 	adrp	x0, 10f000 <EcoVirtualMemory1Lab_623E1838_MemoryMap+0x7d610>
   89290:	913adc00 	add	x0, x0, #0xeb7
   89294:	39400000 	ldrb	w0, [x0]
   89298:	6b00003f 	cmp	w1, w0
   8929c:	54000361 	b.ne	89308 <CEcoVFB1ScreenInfo_AF252188_QueryInterface+0x9cc>  // b.any
   892a0:	f94013e0 	ldr	x0, [sp, #32]
   892a4:	91004000 	add	x0, x0, #0x10
   892a8:	39400001 	ldrb	w1, [x0]
   892ac:	d0000420 	adrp	x0, 10f000 <EcoVirtualMemory1Lab_623E1838_MemoryMap+0x7d610>
   892b0:	913ae000 	add	x0, x0, #0xeb8
   892b4:	39400000 	ldrb	w0, [x0]
   892b8:	6b00003f 	cmp	w1, w0
   892bc:	54000261 	b.ne	89308 <CEcoVFB1ScreenInfo_AF252188_QueryInterface+0x9cc>  // b.any
   892c0:	f94013e0 	ldr	x0, [sp, #32]
   892c4:	91004400 	add	x0, x0, #0x11
   892c8:	39400001 	ldrb	w1, [x0]
   892cc:	d0000420 	adrp	x0, 10f000 <EcoVirtualMemory1Lab_623E1838_MemoryMap+0x7d610>
   892d0:	913ae400 	add	x0, x0, #0xeb9
   892d4:	39400000 	ldrb	w0, [x0]
   892d8:	6b00003f 	cmp	w1, w0
   892dc:	54000161 	b.ne	89308 <CEcoVFB1ScreenInfo_AF252188_QueryInterface+0x9cc>  // b.any
   892e0:	f9401fe0 	ldr	x0, [sp, #56]
   892e4:	91006001 	add	x1, x0, #0x18
   892e8:	f9400fe0 	ldr	x0, [sp, #24]
   892ec:	f9000001 	str	x1, [x0]
   892f0:	f9401fe0 	ldr	x0, [sp, #56]
   892f4:	f9400000 	ldr	x0, [x0]
   892f8:	f9400401 	ldr	x1, [x0, #8]
   892fc:	f9401fe0 	ldr	x0, [sp, #56]
   89300:	d63f0020 	blr	x1
   89304:	1400009d 	b	89578 <CEcoVFB1ScreenInfo_AF252188_QueryInterface+0xc3c>
   89308:	f94013e0 	ldr	x0, [sp, #32]
   8930c:	39400001 	ldrb	w1, [x0]
   89310:	d0000420 	adrp	x0, 10f000 <EcoVirtualMemory1Lab_623E1838_MemoryMap+0x7d610>
   89314:	91320000 	add	x0, x0, #0xc80
   89318:	39400000 	ldrb	w0, [x0]
   8931c:	6b00003f 	cmp	w1, w0
   89320:	54001241 	b.ne	89568 <CEcoVFB1ScreenInfo_AF252188_QueryInterface+0xc2c>  // b.any
   89324:	f94013e0 	ldr	x0, [sp, #32]
   89328:	91000400 	add	x0, x0, #0x1
   8932c:	39400001 	ldrb	w1, [x0]
   89330:	d0000420 	adrp	x0, 10f000 <EcoVirtualMemory1Lab_623E1838_MemoryMap+0x7d610>
   89334:	91320400 	add	x0, x0, #0xc81
   89338:	39400000 	ldrb	w0, [x0]
   8933c:	6b00003f 	cmp	w1, w0
   89340:	54001141 	b.ne	89568 <CEcoVFB1ScreenInfo_AF252188_QueryInterface+0xc2c>  // b.any
   89344:	f94013e0 	ldr	x0, [sp, #32]
   89348:	91000800 	add	x0, x0, #0x2
   8934c:	39400001 	ldrb	w1, [x0]
   89350:	d0000420 	adrp	x0, 10f000 <EcoVirtualMemory1Lab_623E1838_MemoryMap+0x7d610>
   89354:	91320800 	add	x0, x0, #0xc82
   89358:	39400000 	ldrb	w0, [x0]
   8935c:	6b00003f 	cmp	w1, w0
   89360:	54001041 	b.ne	89568 <CEcoVFB1ScreenInfo_AF252188_QueryInterface+0xc2c>  // b.any
   89364:	f94013e0 	ldr	x0, [sp, #32]
   89368:	91000c00 	add	x0, x0, #0x3
   8936c:	39400001 	ldrb	w1, [x0]
   89370:	d0000420 	adrp	x0, 10f000 <EcoVirtualMemory1Lab_623E1838_MemoryMap+0x7d610>
   89374:	91320c00 	add	x0, x0, #0xc83
   89378:	39400000 	ldrb	w0, [x0]
   8937c:	6b00003f 	cmp	w1, w0
   89380:	54000f41 	b.ne	89568 <CEcoVFB1ScreenInfo_AF252188_QueryInterface+0xc2c>  // b.any
   89384:	f94013e0 	ldr	x0, [sp, #32]
   89388:	91001000 	add	x0, x0, #0x4
   8938c:	39400001 	ldrb	w1, [x0]
   89390:	d0000420 	adrp	x0, 10f000 <EcoVirtualMemory1Lab_623E1838_MemoryMap+0x7d610>
   89394:	91321000 	add	x0, x0, #0xc84
   89398:	39400000 	ldrb	w0, [x0]
   8939c:	6b00003f 	cmp	w1, w0
   893a0:	54000e41 	b.ne	89568 <CEcoVFB1ScreenInfo_AF252188_QueryInterface+0xc2c>  // b.any
   893a4:	f94013e0 	ldr	x0, [sp, #32]
   893a8:	91001400 	add	x0, x0, #0x5
   893ac:	39400001 	ldrb	w1, [x0]
   893b0:	d0000420 	adrp	x0, 10f000 <EcoVirtualMemory1Lab_623E1838_MemoryMap+0x7d610>
   893b4:	91321400 	add	x0, x0, #0xc85
   893b8:	39400000 	ldrb	w0, [x0]
   893bc:	6b00003f 	cmp	w1, w0
   893c0:	54000d41 	b.ne	89568 <CEcoVFB1ScreenInfo_AF252188_QueryInterface+0xc2c>  // b.any
   893c4:	f94013e0 	ldr	x0, [sp, #32]
   893c8:	91001800 	add	x0, x0, #0x6
   893cc:	39400001 	ldrb	w1, [x0]
   893d0:	d0000420 	adrp	x0, 10f000 <EcoVirtualMemory1Lab_623E1838_MemoryMap+0x7d610>
   893d4:	91321800 	add	x0, x0, #0xc86
   893d8:	39400000 	ldrb	w0, [x0]
   893dc:	6b00003f 	cmp	w1, w0
   893e0:	54000c41 	b.ne	89568 <CEcoVFB1ScreenInfo_AF252188_QueryInterface+0xc2c>  // b.any
   893e4:	f94013e0 	ldr	x0, [sp, #32]
   893e8:	91001c00 	add	x0, x0, #0x7
   893ec:	39400001 	ldrb	w1, [x0]
   893f0:	d0000420 	adrp	x0, 10f000 <EcoVirtualMemory1Lab_623E1838_MemoryMap+0x7d610>
   893f4:	91321c00 	add	x0, x0, #0xc87
   893f8:	39400000 	ldrb	w0, [x0]
   893fc:	6b00003f 	cmp	w1, w0
   89400:	54000b41 	b.ne	89568 <CEcoVFB1ScreenInfo_AF252188_QueryInterface+0xc2c>  // b.any
   89404:	f94013e0 	ldr	x0, [sp, #32]
   89408:	91002000 	add	x0, x0, #0x8
   8940c:	39400001 	ldrb	w1, [x0]
   89410:	d0000420 	adrp	x0, 10f000 <EcoVirtualMemory1Lab_623E1838_MemoryMap+0x7d610>
   89414:	91322000 	add	x0, x0, #0xc88
   89418:	39400000 	ldrb	w0, [x0]
   8941c:	6b00003f 	cmp	w1, w0
   89420:	54000a41 	b.ne	89568 <CEcoVFB1ScreenInfo_AF252188_QueryInterface+0xc2c>  // b.any
   89424:	f94013e0 	ldr	x0, [sp, #32]
   89428:	91002400 	add	x0, x0, #0x9
   8942c:	39400001 	ldrb	w1, [x0]
   89430:	d0000420 	adrp	x0, 10f000 <EcoVirtualMemory1Lab_623E1838_MemoryMap+0x7d610>
   89434:	91322400 	add	x0, x0, #0xc89
   89438:	39400000 	ldrb	w0, [x0]
   8943c:	6b00003f 	cmp	w1, w0
   89440:	54000941 	b.ne	89568 <CEcoVFB1ScreenInfo_AF252188_QueryInterface+0xc2c>  // b.any
   89444:	f94013e0 	ldr	x0, [sp, #32]
   89448:	91002800 	add	x0, x0, #0xa
   8944c:	39400001 	ldrb	w1, [x0]
   89450:	d0000420 	adrp	x0, 10f000 <EcoVirtualMemory1Lab_623E1838_MemoryMap+0x7d610>
   89454:	91322800 	add	x0, x0, #0xc8a
   89458:	39400000 	ldrb	w0, [x0]
   8945c:	6b00003f 	cmp	w1, w0
   89460:	54000841 	b.ne	89568 <CEcoVFB1ScreenInfo_AF252188_QueryInterface+0xc2c>  // b.any
   89464:	f94013e0 	ldr	x0, [sp, #32]
   89468:	91002c00 	add	x0, x0, #0xb
   8946c:	39400001 	ldrb	w1, [x0]
   89470:	d0000420 	adrp	x0, 10f000 <EcoVirtualMemory1Lab_623E1838_MemoryMap+0x7d610>
   89474:	91322c00 	add	x0, x0, #0xc8b
   89478:	39400000 	ldrb	w0, [x0]
   8947c:	6b00003f 	cmp	w1, w0
   89480:	54000741 	b.ne	89568 <CEcoVFB1ScreenInfo_AF252188_QueryInterface+0xc2c>  // b.any
   89484:	f94013e0 	ldr	x0, [sp, #32]
   89488:	91003000 	add	x0, x0, #0xc
   8948c:	39400001 	ldrb	w1, [x0]
   89490:	d0000420 	adrp	x0, 10f000 <EcoVirtualMemory1Lab_623E1838_MemoryMap+0x7d610>
   89494:	91323000 	add	x0, x0, #0xc8c
   89498:	39400000 	ldrb	w0, [x0]
   8949c:	6b00003f 	cmp	w1, w0
   894a0:	54000641 	b.ne	89568 <CEcoVFB1ScreenInfo_AF252188_QueryInterface+0xc2c>  // b.any
   894a4:	f94013e0 	ldr	x0, [sp, #32]
   894a8:	91003400 	add	x0, x0, #0xd
   894ac:	39400001 	ldrb	w1, [x0]
   894b0:	d0000420 	adrp	x0, 10f000 <EcoVirtualMemory1Lab_623E1838_MemoryMap+0x7d610>
   894b4:	91323400 	add	x0, x0, #0xc8d
   894b8:	39400000 	ldrb	w0, [x0]
   894bc:	6b00003f 	cmp	w1, w0
   894c0:	54000541 	b.ne	89568 <CEcoVFB1ScreenInfo_AF252188_QueryInterface+0xc2c>  // b.any
   894c4:	f94013e0 	ldr	x0, [sp, #32]
   894c8:	91003800 	add	x0, x0, #0xe
   894cc:	39400001 	ldrb	w1, [x0]
   894d0:	d0000420 	adrp	x0, 10f000 <EcoVirtualMemory1Lab_623E1838_MemoryMap+0x7d610>
   894d4:	91323800 	add	x0, x0, #0xc8e
   894d8:	39400000 	ldrb	w0, [x0]
   894dc:	6b00003f 	cmp	w1, w0
   894e0:	54000441 	b.ne	89568 <CEcoVFB1ScreenInfo_AF252188_QueryInterface+0xc2c>  // b.any
   894e4:	f94013e0 	ldr	x0, [sp, #32]
   894e8:	91003c00 	add	x0, x0, #0xf
   894ec:	39400001 	ldrb	w1, [x0]
   894f0:	d0000420 	adrp	x0, 10f000 <EcoVirtualMemory1Lab_623E1838_MemoryMap+0x7d610>
   894f4:	91323c00 	add	x0, x0, #0xc8f
   894f8:	39400000 	ldrb	w0, [x0]
   894fc:	6b00003f 	cmp	w1, w0
   89500:	54000341 	b.ne	89568 <CEcoVFB1ScreenInfo_AF252188_QueryInterface+0xc2c>  // b.any
   89504:	f94013e0 	ldr	x0, [sp, #32]
   89508:	91004000 	add	x0, x0, #0x10
   8950c:	39400001 	ldrb	w1, [x0]
   89510:	d0000420 	adrp	x0, 10f000 <EcoVirtualMemory1Lab_623E1838_MemoryMap+0x7d610>
   89514:	91324000 	add	x0, x0, #0xc90
   89518:	39400000 	ldrb	w0, [x0]
   8951c:	6b00003f 	cmp	w1, w0
   89520:	54000241 	b.ne	89568 <CEcoVFB1ScreenInfo_AF252188_QueryInterface+0xc2c>  // b.any
   89524:	f94013e0 	ldr	x0, [sp, #32]
   89528:	91004400 	add	x0, x0, #0x11
   8952c:	39400001 	ldrb	w1, [x0]
   89530:	d0000420 	adrp	x0, 10f000 <EcoVirtualMemory1Lab_623E1838_MemoryMap+0x7d610>
   89534:	91324400 	add	x0, x0, #0xc91
   89538:	39400000 	ldrb	w0, [x0]
   8953c:	6b00003f 	cmp	w1, w0
   89540:	54000141 	b.ne	89568 <CEcoVFB1ScreenInfo_AF252188_QueryInterface+0xc2c>  // b.any
   89544:	f9401fe1 	ldr	x1, [sp, #56]
   89548:	f9400fe0 	ldr	x0, [sp, #24]
   8954c:	f9000001 	str	x1, [x0]
   89550:	f9401fe0 	ldr	x0, [sp, #56]
   89554:	f9400000 	ldr	x0, [x0]
   89558:	f9400401 	ldr	x1, [x0, #8]
   8955c:	f9401fe0 	ldr	x0, [sp, #56]
   89560:	d63f0020 	blr	x1
   89564:	14000005 	b	89578 <CEcoVFB1ScreenInfo_AF252188_QueryInterface+0xc3c>
   89568:	f9400fe0 	ldr	x0, [sp, #24]
   8956c:	f900001f 	str	xzr, [x0]
   89570:	12800240 	mov	w0, #0xffffffed            	// #-19
   89574:	14000002 	b	8957c <CEcoVFB1ScreenInfo_AF252188_QueryInterface+0xc40>
   89578:	52800000 	mov	w0, #0x0                   	// #0
   8957c:	a8c47bfd 	ldp	x29, x30, [sp], #64
   89580:	d65f03c0 	ret

0000000000089584 <CEcoVFB1ScreenInfo_AF252188_AddRef>:
   89584:	d10083ff 	sub	sp, sp, #0x20
   89588:	f90007e0 	str	x0, [sp, #8]
   8958c:	f94007e0 	ldr	x0, [sp, #8]
   89590:	d1002000 	sub	x0, x0, #0x8
   89594:	f9000fe0 	str	x0, [sp, #24]
   89598:	f94007e0 	ldr	x0, [sp, #8]
   8959c:	f100001f 	cmp	x0, #0x0
   895a0:	54000061 	b.ne	895ac <CEcoVFB1ScreenInfo_AF252188_AddRef+0x28>  // b.any
   895a4:	12800000 	mov	w0, #0xffffffff            	// #-1
   895a8:	14000008 	b	895c8 <CEcoVFB1ScreenInfo_AF252188_AddRef+0x44>
   895ac:	f9400fe0 	ldr	x0, [sp, #24]
   895b0:	b9402000 	ldr	w0, [x0, #32]
   895b4:	11000401 	add	w1, w0, #0x1
   895b8:	f9400fe0 	ldr	x0, [sp, #24]
   895bc:	b9002001 	str	w1, [x0, #32]
   895c0:	f9400fe0 	ldr	x0, [sp, #24]
   895c4:	b9402000 	ldr	w0, [x0, #32]
   895c8:	910083ff 	add	sp, sp, #0x20
   895cc:	d65f03c0 	ret

00000000000895d0 <CEcoVFB1ScreenInfo_AF252188_Release>:
   895d0:	a9bd7bfd 	stp	x29, x30, [sp, #-48]!
   895d4:	910003fd 	mov	x29, sp
   895d8:	f9000fe0 	str	x0, [sp, #24]
   895dc:	f9400fe0 	ldr	x0, [sp, #24]
   895e0:	d1002000 	sub	x0, x0, #0x8
   895e4:	f90017e0 	str	x0, [sp, #40]
   895e8:	f9400fe0 	ldr	x0, [sp, #24]
   895ec:	f100001f 	cmp	x0, #0x0
   895f0:	54000061 	b.ne	895fc <CEcoVFB1ScreenInfo_AF252188_Release+0x2c>  // b.any
   895f4:	12800000 	mov	w0, #0xffffffff            	// #-1
   895f8:	14000010 	b	89638 <CEcoVFB1ScreenInfo_AF252188_Release+0x68>
   895fc:	f94017e0 	ldr	x0, [sp, #40]
   89600:	b9402000 	ldr	w0, [x0, #32]
   89604:	51000401 	sub	w1, w0, #0x1
   89608:	f94017e0 	ldr	x0, [sp, #40]
   8960c:	b9002001 	str	w1, [x0, #32]
   89610:	f94017e0 	ldr	x0, [sp, #40]
   89614:	b9402000 	ldr	w0, [x0, #32]
   89618:	7100001f 	cmp	w0, #0x0
   8961c:	540000a1 	b.ne	89630 <CEcoVFB1ScreenInfo_AF252188_Release+0x60>  // b.any
   89620:	f94017e0 	ldr	x0, [sp, #40]
   89624:	94000a5b 	bl	8bf90 <deleteCEcoVFB1_AF252188>
   89628:	52800000 	mov	w0, #0x0                   	// #0
   8962c:	14000003 	b	89638 <CEcoVFB1ScreenInfo_AF252188_Release+0x68>
   89630:	f94017e0 	ldr	x0, [sp, #40]
   89634:	b9402000 	ldr	w0, [x0, #32]
   89638:	a8c37bfd 	ldp	x29, x30, [sp], #48
   8963c:	d65f03c0 	ret

0000000000089640 <CEcoVFB1ScreenInfo_AF252188_EnumSettings>:
   89640:	d100c3ff 	sub	sp, sp, #0x30
   89644:	f9000fe0 	str	x0, [sp, #24]
   89648:	79002fe1 	strh	w1, [sp, #22]
   8964c:	f90007e2 	str	x2, [sp, #8]
   89650:	f9400fe0 	ldr	x0, [sp, #24]
   89654:	d1002000 	sub	x0, x0, #0x8
   89658:	f90017e0 	str	x0, [sp, #40]
   8965c:	12800000 	mov	w0, #0xffffffff            	// #-1
   89660:	79004fe0 	strh	w0, [sp, #38]
   89664:	f9400fe0 	ldr	x0, [sp, #24]
   89668:	f100001f 	cmp	x0, #0x0
   8966c:	54000080 	b.eq	8967c <CEcoVFB1ScreenInfo_AF252188_EnumSettings+0x3c>  // b.none
   89670:	f94007e0 	ldr	x0, [sp, #8]
   89674:	f100001f 	cmp	x0, #0x0
   89678:	54000061 	b.ne	89684 <CEcoVFB1ScreenInfo_AF252188_EnumSettings+0x44>  // b.any
   8967c:	12800220 	mov	w0, #0xffffffee            	// #-18
   89680:	14000016 	b	896d8 <CEcoVFB1ScreenInfo_AF252188_EnumSettings+0x98>
   89684:	79402fe0 	ldrh	w0, [sp, #22]
   89688:	7100001f 	cmp	w0, #0x0
   8968c:	54000241 	b.ne	896d4 <CEcoVFB1ScreenInfo_AF252188_EnumSettings+0x94>  // b.any
   89690:	f94017e0 	ldr	x0, [sp, #40]
   89694:	b9405401 	ldr	w1, [x0, #84]
   89698:	f94007e0 	ldr	x0, [sp, #8]
   8969c:	b9000001 	str	w1, [x0]
   896a0:	f94017e0 	ldr	x0, [sp, #40]
   896a4:	b9405801 	ldr	w1, [x0, #88]
   896a8:	f94007e0 	ldr	x0, [sp, #8]
   896ac:	b9000401 	str	w1, [x0, #4]
   896b0:	f94017e0 	ldr	x0, [sp, #40]
   896b4:	b9405c01 	ldr	w1, [x0, #92]
   896b8:	f94007e0 	ldr	x0, [sp, #8]
   896bc:	b9000801 	str	w1, [x0, #8]
   896c0:	f94007e0 	ldr	x0, [sp, #8]
   896c4:	52800781 	mov	w1, #0x3c                  	// #60
   896c8:	b9000c01 	str	w1, [x0, #12]
   896cc:	79c04fe0 	ldrsh	w0, [sp, #38]
   896d0:	14000002 	b	896d8 <CEcoVFB1ScreenInfo_AF252188_EnumSettings+0x98>
   896d4:	12800000 	mov	w0, #0xffffffff            	// #-1
   896d8:	9100c3ff 	add	sp, sp, #0x30
   896dc:	d65f03c0 	ret

00000000000896e0 <CEcoVFB1ScreenInfo_AF252188_get_Mode>:
   896e0:	a9bc7bfd 	stp	x29, x30, [sp, #-64]!
   896e4:	910003fd 	mov	x29, sp
   896e8:	f90017e0 	str	x0, [sp, #40]
   896ec:	f90013e1 	str	x1, [sp, #32]
   896f0:	f9000fe2 	str	x2, [sp, #24]
   896f4:	f94017e0 	ldr	x0, [sp, #40]
   896f8:	d1002000 	sub	x0, x0, #0x8
   896fc:	f9001fe0 	str	x0, [sp, #56]
   89700:	12800220 	mov	w0, #0xffffffee            	// #-18
   89704:	79006fe0 	strh	w0, [sp, #54]
   89708:	f94017e0 	ldr	x0, [sp, #40]
   8970c:	f100001f 	cmp	x0, #0x0
   89710:	54000061 	b.ne	8971c <CEcoVFB1ScreenInfo_AF252188_get_Mode+0x3c>  // b.any
   89714:	79c06fe0 	ldrsh	w0, [sp, #54]
   89718:	1400000d 	b	8974c <CEcoVFB1ScreenInfo_AF252188_get_Mode+0x6c>
   8971c:	f94013e2 	ldr	x2, [sp, #32]
   89720:	12800001 	mov	w1, #0xffffffff            	// #-1
   89724:	f94017e0 	ldr	x0, [sp, #40]
   89728:	97ffffc6 	bl	89640 <CEcoVFB1ScreenInfo_AF252188_EnumSettings>
   8972c:	79006fe0 	strh	w0, [sp, #54]
   89730:	f9400fe0 	ldr	x0, [sp, #24]
   89734:	f100001f 	cmp	x0, #0x0
   89738:	54000080 	b.eq	89748 <CEcoVFB1ScreenInfo_AF252188_get_Mode+0x68>  // b.none
   8973c:	f9400fe0 	ldr	x0, [sp, #24]
   89740:	52800021 	mov	w1, #0x1                   	// #1
   89744:	39000001 	strb	w1, [x0]
   89748:	52800000 	mov	w0, #0x0                   	// #0
   8974c:	a8c47bfd 	ldp	x29, x30, [sp], #64
   89750:	d65f03c0 	ret

0000000000089754 <CEcoVFB1ScreenInfo_AF252188_set_Mode>:
   89754:	d100c3ff 	sub	sp, sp, #0x30
   89758:	f9000fe0 	str	x0, [sp, #24]
   8975c:	f9000be1 	str	x1, [sp, #16]
   89760:	39003fe2 	strb	w2, [sp, #15]
   89764:	f9400fe0 	ldr	x0, [sp, #24]
   89768:	d1002000 	sub	x0, x0, #0x8
   8976c:	f90017e0 	str	x0, [sp, #40]
   89770:	f9400fe0 	ldr	x0, [sp, #24]
   89774:	f100001f 	cmp	x0, #0x0
   89778:	54000061 	b.ne	89784 <CEcoVFB1ScreenInfo_AF252188_set_Mode+0x30>  // b.any
   8977c:	12800220 	mov	w0, #0xffffffee            	// #-18
   89780:	14000002 	b	89788 <CEcoVFB1ScreenInfo_AF252188_set_Mode+0x34>
   89784:	52800000 	mov	w0, #0x0                   	// #0
   89788:	9100c3ff 	add	sp, sp, #0x30
   8978c:	d65f03c0 	ret

0000000000089790 <CEcoVBIOS1Video_AF252188_QueryInterface>:
   89790:	a9bc7bfd 	stp	x29, x30, [sp, #-64]!
   89794:	910003fd 	mov	x29, sp
   89798:	f90017e0 	str	x0, [sp, #40]
   8979c:	f90013e1 	str	x1, [sp, #32]
   897a0:	f9000fe2 	str	x2, [sp, #24]
   897a4:	f94017e0 	ldr	x0, [sp, #40]
   897a8:	d1004000 	sub	x0, x0, #0x10
   897ac:	f9001fe0 	str	x0, [sp, #56]
   897b0:	f94017e0 	ldr	x0, [sp, #40]
   897b4:	f100001f 	cmp	x0, #0x0
   897b8:	54000080 	b.eq	897c8 <CEcoVBIOS1Video_AF252188_QueryInterface+0x38>  // b.none
   897bc:	f9400fe0 	ldr	x0, [sp, #24]
   897c0:	f100001f 	cmp	x0, #0x0
   897c4:	54000061 	b.ne	897d0 <CEcoVBIOS1Video_AF252188_QueryInterface+0x40>  // b.any
   897c8:	12800220 	mov	w0, #0xffffffee            	// #-18
   897cc:	14000301 	b	8a3d0 <CEcoVBIOS1Video_AF252188_QueryInterface+0xc40>
   897d0:	f94013e0 	ldr	x0, [sp, #32]
   897d4:	39400001 	ldrb	w1, [x0]
   897d8:	d0000420 	adrp	x0, 10f000 <EcoVirtualMemory1Lab_623E1838_MemoryMap+0x7d610>
   897dc:	91392000 	add	x0, x0, #0xe48
   897e0:	39400000 	ldrb	w0, [x0]
   897e4:	6b00003f 	cmp	w1, w0
   897e8:	54001241 	b.ne	89a30 <CEcoVBIOS1Video_AF252188_QueryInterface+0x2a0>  // b.any
   897ec:	f94013e0 	ldr	x0, [sp, #32]
   897f0:	91000400 	add	x0, x0, #0x1
   897f4:	39400001 	ldrb	w1, [x0]
   897f8:	d0000420 	adrp	x0, 10f000 <EcoVirtualMemory1Lab_623E1838_MemoryMap+0x7d610>
   897fc:	91392400 	add	x0, x0, #0xe49
   89800:	39400000 	ldrb	w0, [x0]
   89804:	6b00003f 	cmp	w1, w0
   89808:	54001141 	b.ne	89a30 <CEcoVBIOS1Video_AF252188_QueryInterface+0x2a0>  // b.any
   8980c:	f94013e0 	ldr	x0, [sp, #32]
   89810:	91000800 	add	x0, x0, #0x2
   89814:	39400001 	ldrb	w1, [x0]
   89818:	d0000420 	adrp	x0, 10f000 <EcoVirtualMemory1Lab_623E1838_MemoryMap+0x7d610>
   8981c:	91392800 	add	x0, x0, #0xe4a
   89820:	39400000 	ldrb	w0, [x0]
   89824:	6b00003f 	cmp	w1, w0
   89828:	54001041 	b.ne	89a30 <CEcoVBIOS1Video_AF252188_QueryInterface+0x2a0>  // b.any
   8982c:	f94013e0 	ldr	x0, [sp, #32]
   89830:	91000c00 	add	x0, x0, #0x3
   89834:	39400001 	ldrb	w1, [x0]
   89838:	d0000420 	adrp	x0, 10f000 <EcoVirtualMemory1Lab_623E1838_MemoryMap+0x7d610>
   8983c:	91392c00 	add	x0, x0, #0xe4b
   89840:	39400000 	ldrb	w0, [x0]
   89844:	6b00003f 	cmp	w1, w0
   89848:	54000f41 	b.ne	89a30 <CEcoVBIOS1Video_AF252188_QueryInterface+0x2a0>  // b.any
   8984c:	f94013e0 	ldr	x0, [sp, #32]
   89850:	91001000 	add	x0, x0, #0x4
   89854:	39400001 	ldrb	w1, [x0]
   89858:	d0000420 	adrp	x0, 10f000 <EcoVirtualMemory1Lab_623E1838_MemoryMap+0x7d610>
   8985c:	91393000 	add	x0, x0, #0xe4c
   89860:	39400000 	ldrb	w0, [x0]
   89864:	6b00003f 	cmp	w1, w0
   89868:	54000e41 	b.ne	89a30 <CEcoVBIOS1Video_AF252188_QueryInterface+0x2a0>  // b.any
   8986c:	f94013e0 	ldr	x0, [sp, #32]
   89870:	91001400 	add	x0, x0, #0x5
   89874:	39400001 	ldrb	w1, [x0]
   89878:	d0000420 	adrp	x0, 10f000 <EcoVirtualMemory1Lab_623E1838_MemoryMap+0x7d610>
   8987c:	91393400 	add	x0, x0, #0xe4d
   89880:	39400000 	ldrb	w0, [x0]
   89884:	6b00003f 	cmp	w1, w0
   89888:	54000d41 	b.ne	89a30 <CEcoVBIOS1Video_AF252188_QueryInterface+0x2a0>  // b.any
   8988c:	f94013e0 	ldr	x0, [sp, #32]
   89890:	91001800 	add	x0, x0, #0x6
   89894:	39400001 	ldrb	w1, [x0]
   89898:	d0000420 	adrp	x0, 10f000 <EcoVirtualMemory1Lab_623E1838_MemoryMap+0x7d610>
   8989c:	91393800 	add	x0, x0, #0xe4e
   898a0:	39400000 	ldrb	w0, [x0]
   898a4:	6b00003f 	cmp	w1, w0
   898a8:	54000c41 	b.ne	89a30 <CEcoVBIOS1Video_AF252188_QueryInterface+0x2a0>  // b.any
   898ac:	f94013e0 	ldr	x0, [sp, #32]
   898b0:	91001c00 	add	x0, x0, #0x7
   898b4:	39400001 	ldrb	w1, [x0]
   898b8:	d0000420 	adrp	x0, 10f000 <EcoVirtualMemory1Lab_623E1838_MemoryMap+0x7d610>
   898bc:	91393c00 	add	x0, x0, #0xe4f
   898c0:	39400000 	ldrb	w0, [x0]
   898c4:	6b00003f 	cmp	w1, w0
   898c8:	54000b41 	b.ne	89a30 <CEcoVBIOS1Video_AF252188_QueryInterface+0x2a0>  // b.any
   898cc:	f94013e0 	ldr	x0, [sp, #32]
   898d0:	91002000 	add	x0, x0, #0x8
   898d4:	39400001 	ldrb	w1, [x0]
   898d8:	d0000420 	adrp	x0, 10f000 <EcoVirtualMemory1Lab_623E1838_MemoryMap+0x7d610>
   898dc:	91394000 	add	x0, x0, #0xe50
   898e0:	39400000 	ldrb	w0, [x0]
   898e4:	6b00003f 	cmp	w1, w0
   898e8:	54000a41 	b.ne	89a30 <CEcoVBIOS1Video_AF252188_QueryInterface+0x2a0>  // b.any
   898ec:	f94013e0 	ldr	x0, [sp, #32]
   898f0:	91002400 	add	x0, x0, #0x9
   898f4:	39400001 	ldrb	w1, [x0]
   898f8:	d0000420 	adrp	x0, 10f000 <EcoVirtualMemory1Lab_623E1838_MemoryMap+0x7d610>
   898fc:	91394400 	add	x0, x0, #0xe51
   89900:	39400000 	ldrb	w0, [x0]
   89904:	6b00003f 	cmp	w1, w0
   89908:	54000941 	b.ne	89a30 <CEcoVBIOS1Video_AF252188_QueryInterface+0x2a0>  // b.any
   8990c:	f94013e0 	ldr	x0, [sp, #32]
   89910:	91002800 	add	x0, x0, #0xa
   89914:	39400001 	ldrb	w1, [x0]
   89918:	d0000420 	adrp	x0, 10f000 <EcoVirtualMemory1Lab_623E1838_MemoryMap+0x7d610>
   8991c:	91394800 	add	x0, x0, #0xe52
   89920:	39400000 	ldrb	w0, [x0]
   89924:	6b00003f 	cmp	w1, w0
   89928:	54000841 	b.ne	89a30 <CEcoVBIOS1Video_AF252188_QueryInterface+0x2a0>  // b.any
   8992c:	f94013e0 	ldr	x0, [sp, #32]
   89930:	91002c00 	add	x0, x0, #0xb
   89934:	39400001 	ldrb	w1, [x0]
   89938:	d0000420 	adrp	x0, 10f000 <EcoVirtualMemory1Lab_623E1838_MemoryMap+0x7d610>
   8993c:	91394c00 	add	x0, x0, #0xe53
   89940:	39400000 	ldrb	w0, [x0]
   89944:	6b00003f 	cmp	w1, w0
   89948:	54000741 	b.ne	89a30 <CEcoVBIOS1Video_AF252188_QueryInterface+0x2a0>  // b.any
   8994c:	f94013e0 	ldr	x0, [sp, #32]
   89950:	91003000 	add	x0, x0, #0xc
   89954:	39400001 	ldrb	w1, [x0]
   89958:	d0000420 	adrp	x0, 10f000 <EcoVirtualMemory1Lab_623E1838_MemoryMap+0x7d610>
   8995c:	91395000 	add	x0, x0, #0xe54
   89960:	39400000 	ldrb	w0, [x0]
   89964:	6b00003f 	cmp	w1, w0
   89968:	54000641 	b.ne	89a30 <CEcoVBIOS1Video_AF252188_QueryInterface+0x2a0>  // b.any
   8996c:	f94013e0 	ldr	x0, [sp, #32]
   89970:	91003400 	add	x0, x0, #0xd
   89974:	39400001 	ldrb	w1, [x0]
   89978:	d0000420 	adrp	x0, 10f000 <EcoVirtualMemory1Lab_623E1838_MemoryMap+0x7d610>
   8997c:	91395400 	add	x0, x0, #0xe55
   89980:	39400000 	ldrb	w0, [x0]
   89984:	6b00003f 	cmp	w1, w0
   89988:	54000541 	b.ne	89a30 <CEcoVBIOS1Video_AF252188_QueryInterface+0x2a0>  // b.any
   8998c:	f94013e0 	ldr	x0, [sp, #32]
   89990:	91003800 	add	x0, x0, #0xe
   89994:	39400001 	ldrb	w1, [x0]
   89998:	d0000420 	adrp	x0, 10f000 <EcoVirtualMemory1Lab_623E1838_MemoryMap+0x7d610>
   8999c:	91395800 	add	x0, x0, #0xe56
   899a0:	39400000 	ldrb	w0, [x0]
   899a4:	6b00003f 	cmp	w1, w0
   899a8:	54000441 	b.ne	89a30 <CEcoVBIOS1Video_AF252188_QueryInterface+0x2a0>  // b.any
   899ac:	f94013e0 	ldr	x0, [sp, #32]
   899b0:	91003c00 	add	x0, x0, #0xf
   899b4:	39400001 	ldrb	w1, [x0]
   899b8:	d0000420 	adrp	x0, 10f000 <EcoVirtualMemory1Lab_623E1838_MemoryMap+0x7d610>
   899bc:	91395c00 	add	x0, x0, #0xe57
   899c0:	39400000 	ldrb	w0, [x0]
   899c4:	6b00003f 	cmp	w1, w0
   899c8:	54000341 	b.ne	89a30 <CEcoVBIOS1Video_AF252188_QueryInterface+0x2a0>  // b.any
   899cc:	f94013e0 	ldr	x0, [sp, #32]
   899d0:	91004000 	add	x0, x0, #0x10
   899d4:	39400001 	ldrb	w1, [x0]
   899d8:	d0000420 	adrp	x0, 10f000 <EcoVirtualMemory1Lab_623E1838_MemoryMap+0x7d610>
   899dc:	91396000 	add	x0, x0, #0xe58
   899e0:	39400000 	ldrb	w0, [x0]
   899e4:	6b00003f 	cmp	w1, w0
   899e8:	54000241 	b.ne	89a30 <CEcoVBIOS1Video_AF252188_QueryInterface+0x2a0>  // b.any
   899ec:	f94013e0 	ldr	x0, [sp, #32]
   899f0:	91004400 	add	x0, x0, #0x11
   899f4:	39400001 	ldrb	w1, [x0]
   899f8:	d0000420 	adrp	x0, 10f000 <EcoVirtualMemory1Lab_623E1838_MemoryMap+0x7d610>
   899fc:	91396400 	add	x0, x0, #0xe59
   89a00:	39400000 	ldrb	w0, [x0]
   89a04:	6b00003f 	cmp	w1, w0
   89a08:	54000141 	b.ne	89a30 <CEcoVBIOS1Video_AF252188_QueryInterface+0x2a0>  // b.any
   89a0c:	f9401fe1 	ldr	x1, [sp, #56]
   89a10:	f9400fe0 	ldr	x0, [sp, #24]
   89a14:	f9000001 	str	x1, [x0]
   89a18:	f9401fe0 	ldr	x0, [sp, #56]
   89a1c:	f9400000 	ldr	x0, [x0]
   89a20:	f9400401 	ldr	x1, [x0, #8]
   89a24:	f9401fe0 	ldr	x0, [sp, #56]
   89a28:	d63f0020 	blr	x1
   89a2c:	14000268 	b	8a3cc <CEcoVBIOS1Video_AF252188_QueryInterface+0xc3c>
   89a30:	f94013e0 	ldr	x0, [sp, #32]
   89a34:	39400001 	ldrb	w1, [x0]
   89a38:	d0000420 	adrp	x0, 10f000 <EcoVirtualMemory1Lab_623E1838_MemoryMap+0x7d610>
   89a3c:	9138c000 	add	x0, x0, #0xe30
   89a40:	39400000 	ldrb	w0, [x0]
   89a44:	6b00003f 	cmp	w1, w0
   89a48:	54001261 	b.ne	89c94 <CEcoVBIOS1Video_AF252188_QueryInterface+0x504>  // b.any
   89a4c:	f94013e0 	ldr	x0, [sp, #32]
   89a50:	91000400 	add	x0, x0, #0x1
   89a54:	39400001 	ldrb	w1, [x0]
   89a58:	d0000420 	adrp	x0, 10f000 <EcoVirtualMemory1Lab_623E1838_MemoryMap+0x7d610>
   89a5c:	9138c400 	add	x0, x0, #0xe31
   89a60:	39400000 	ldrb	w0, [x0]
   89a64:	6b00003f 	cmp	w1, w0
   89a68:	54001161 	b.ne	89c94 <CEcoVBIOS1Video_AF252188_QueryInterface+0x504>  // b.any
   89a6c:	f94013e0 	ldr	x0, [sp, #32]
   89a70:	91000800 	add	x0, x0, #0x2
   89a74:	39400001 	ldrb	w1, [x0]
   89a78:	d0000420 	adrp	x0, 10f000 <EcoVirtualMemory1Lab_623E1838_MemoryMap+0x7d610>
   89a7c:	9138c800 	add	x0, x0, #0xe32
   89a80:	39400000 	ldrb	w0, [x0]
   89a84:	6b00003f 	cmp	w1, w0
   89a88:	54001061 	b.ne	89c94 <CEcoVBIOS1Video_AF252188_QueryInterface+0x504>  // b.any
   89a8c:	f94013e0 	ldr	x0, [sp, #32]
   89a90:	91000c00 	add	x0, x0, #0x3
   89a94:	39400001 	ldrb	w1, [x0]
   89a98:	d0000420 	adrp	x0, 10f000 <EcoVirtualMemory1Lab_623E1838_MemoryMap+0x7d610>
   89a9c:	9138cc00 	add	x0, x0, #0xe33
   89aa0:	39400000 	ldrb	w0, [x0]
   89aa4:	6b00003f 	cmp	w1, w0
   89aa8:	54000f61 	b.ne	89c94 <CEcoVBIOS1Video_AF252188_QueryInterface+0x504>  // b.any
   89aac:	f94013e0 	ldr	x0, [sp, #32]
   89ab0:	91001000 	add	x0, x0, #0x4
   89ab4:	39400001 	ldrb	w1, [x0]
   89ab8:	d0000420 	adrp	x0, 10f000 <EcoVirtualMemory1Lab_623E1838_MemoryMap+0x7d610>
   89abc:	9138d000 	add	x0, x0, #0xe34
   89ac0:	39400000 	ldrb	w0, [x0]
   89ac4:	6b00003f 	cmp	w1, w0
   89ac8:	54000e61 	b.ne	89c94 <CEcoVBIOS1Video_AF252188_QueryInterface+0x504>  // b.any
   89acc:	f94013e0 	ldr	x0, [sp, #32]
   89ad0:	91001400 	add	x0, x0, #0x5
   89ad4:	39400001 	ldrb	w1, [x0]
   89ad8:	d0000420 	adrp	x0, 10f000 <EcoVirtualMemory1Lab_623E1838_MemoryMap+0x7d610>
   89adc:	9138d400 	add	x0, x0, #0xe35
   89ae0:	39400000 	ldrb	w0, [x0]
   89ae4:	6b00003f 	cmp	w1, w0
   89ae8:	54000d61 	b.ne	89c94 <CEcoVBIOS1Video_AF252188_QueryInterface+0x504>  // b.any
   89aec:	f94013e0 	ldr	x0, [sp, #32]
   89af0:	91001800 	add	x0, x0, #0x6
   89af4:	39400001 	ldrb	w1, [x0]
   89af8:	d0000420 	adrp	x0, 10f000 <EcoVirtualMemory1Lab_623E1838_MemoryMap+0x7d610>
   89afc:	9138d800 	add	x0, x0, #0xe36
   89b00:	39400000 	ldrb	w0, [x0]
   89b04:	6b00003f 	cmp	w1, w0
   89b08:	54000c61 	b.ne	89c94 <CEcoVBIOS1Video_AF252188_QueryInterface+0x504>  // b.any
   89b0c:	f94013e0 	ldr	x0, [sp, #32]
   89b10:	91001c00 	add	x0, x0, #0x7
   89b14:	39400001 	ldrb	w1, [x0]
   89b18:	d0000420 	adrp	x0, 10f000 <EcoVirtualMemory1Lab_623E1838_MemoryMap+0x7d610>
   89b1c:	9138dc00 	add	x0, x0, #0xe37
   89b20:	39400000 	ldrb	w0, [x0]
   89b24:	6b00003f 	cmp	w1, w0
   89b28:	54000b61 	b.ne	89c94 <CEcoVBIOS1Video_AF252188_QueryInterface+0x504>  // b.any
   89b2c:	f94013e0 	ldr	x0, [sp, #32]
   89b30:	91002000 	add	x0, x0, #0x8
   89b34:	39400001 	ldrb	w1, [x0]
   89b38:	d0000420 	adrp	x0, 10f000 <EcoVirtualMemory1Lab_623E1838_MemoryMap+0x7d610>
   89b3c:	9138e000 	add	x0, x0, #0xe38
   89b40:	39400000 	ldrb	w0, [x0]
   89b44:	6b00003f 	cmp	w1, w0
   89b48:	54000a61 	b.ne	89c94 <CEcoVBIOS1Video_AF252188_QueryInterface+0x504>  // b.any
   89b4c:	f94013e0 	ldr	x0, [sp, #32]
   89b50:	91002400 	add	x0, x0, #0x9
   89b54:	39400001 	ldrb	w1, [x0]
   89b58:	d0000420 	adrp	x0, 10f000 <EcoVirtualMemory1Lab_623E1838_MemoryMap+0x7d610>
   89b5c:	9138e400 	add	x0, x0, #0xe39
   89b60:	39400000 	ldrb	w0, [x0]
   89b64:	6b00003f 	cmp	w1, w0
   89b68:	54000961 	b.ne	89c94 <CEcoVBIOS1Video_AF252188_QueryInterface+0x504>  // b.any
   89b6c:	f94013e0 	ldr	x0, [sp, #32]
   89b70:	91002800 	add	x0, x0, #0xa
   89b74:	39400001 	ldrb	w1, [x0]
   89b78:	d0000420 	adrp	x0, 10f000 <EcoVirtualMemory1Lab_623E1838_MemoryMap+0x7d610>
   89b7c:	9138e800 	add	x0, x0, #0xe3a
   89b80:	39400000 	ldrb	w0, [x0]
   89b84:	6b00003f 	cmp	w1, w0
   89b88:	54000861 	b.ne	89c94 <CEcoVBIOS1Video_AF252188_QueryInterface+0x504>  // b.any
   89b8c:	f94013e0 	ldr	x0, [sp, #32]
   89b90:	91002c00 	add	x0, x0, #0xb
   89b94:	39400001 	ldrb	w1, [x0]
   89b98:	d0000420 	adrp	x0, 10f000 <EcoVirtualMemory1Lab_623E1838_MemoryMap+0x7d610>
   89b9c:	9138ec00 	add	x0, x0, #0xe3b
   89ba0:	39400000 	ldrb	w0, [x0]
   89ba4:	6b00003f 	cmp	w1, w0
   89ba8:	54000761 	b.ne	89c94 <CEcoVBIOS1Video_AF252188_QueryInterface+0x504>  // b.any
   89bac:	f94013e0 	ldr	x0, [sp, #32]
   89bb0:	91003000 	add	x0, x0, #0xc
   89bb4:	39400001 	ldrb	w1, [x0]
   89bb8:	d0000420 	adrp	x0, 10f000 <EcoVirtualMemory1Lab_623E1838_MemoryMap+0x7d610>
   89bbc:	9138f000 	add	x0, x0, #0xe3c
   89bc0:	39400000 	ldrb	w0, [x0]
   89bc4:	6b00003f 	cmp	w1, w0
   89bc8:	54000661 	b.ne	89c94 <CEcoVBIOS1Video_AF252188_QueryInterface+0x504>  // b.any
   89bcc:	f94013e0 	ldr	x0, [sp, #32]
   89bd0:	91003400 	add	x0, x0, #0xd
   89bd4:	39400001 	ldrb	w1, [x0]
   89bd8:	d0000420 	adrp	x0, 10f000 <EcoVirtualMemory1Lab_623E1838_MemoryMap+0x7d610>
   89bdc:	9138f400 	add	x0, x0, #0xe3d
   89be0:	39400000 	ldrb	w0, [x0]
   89be4:	6b00003f 	cmp	w1, w0
   89be8:	54000561 	b.ne	89c94 <CEcoVBIOS1Video_AF252188_QueryInterface+0x504>  // b.any
   89bec:	f94013e0 	ldr	x0, [sp, #32]
   89bf0:	91003800 	add	x0, x0, #0xe
   89bf4:	39400001 	ldrb	w1, [x0]
   89bf8:	d0000420 	adrp	x0, 10f000 <EcoVirtualMemory1Lab_623E1838_MemoryMap+0x7d610>
   89bfc:	9138f800 	add	x0, x0, #0xe3e
   89c00:	39400000 	ldrb	w0, [x0]
   89c04:	6b00003f 	cmp	w1, w0
   89c08:	54000461 	b.ne	89c94 <CEcoVBIOS1Video_AF252188_QueryInterface+0x504>  // b.any
   89c0c:	f94013e0 	ldr	x0, [sp, #32]
   89c10:	91003c00 	add	x0, x0, #0xf
   89c14:	39400001 	ldrb	w1, [x0]
   89c18:	d0000420 	adrp	x0, 10f000 <EcoVirtualMemory1Lab_623E1838_MemoryMap+0x7d610>
   89c1c:	9138fc00 	add	x0, x0, #0xe3f
   89c20:	39400000 	ldrb	w0, [x0]
   89c24:	6b00003f 	cmp	w1, w0
   89c28:	54000361 	b.ne	89c94 <CEcoVBIOS1Video_AF252188_QueryInterface+0x504>  // b.any
   89c2c:	f94013e0 	ldr	x0, [sp, #32]
   89c30:	91004000 	add	x0, x0, #0x10
   89c34:	39400001 	ldrb	w1, [x0]
   89c38:	d0000420 	adrp	x0, 10f000 <EcoVirtualMemory1Lab_623E1838_MemoryMap+0x7d610>
   89c3c:	91390000 	add	x0, x0, #0xe40
   89c40:	39400000 	ldrb	w0, [x0]
   89c44:	6b00003f 	cmp	w1, w0
   89c48:	54000261 	b.ne	89c94 <CEcoVBIOS1Video_AF252188_QueryInterface+0x504>  // b.any
   89c4c:	f94013e0 	ldr	x0, [sp, #32]
   89c50:	91004400 	add	x0, x0, #0x11
   89c54:	39400001 	ldrb	w1, [x0]
   89c58:	d0000420 	adrp	x0, 10f000 <EcoVirtualMemory1Lab_623E1838_MemoryMap+0x7d610>
   89c5c:	91390400 	add	x0, x0, #0xe41
   89c60:	39400000 	ldrb	w0, [x0]
   89c64:	6b00003f 	cmp	w1, w0
   89c68:	54000161 	b.ne	89c94 <CEcoVBIOS1Video_AF252188_QueryInterface+0x504>  // b.any
   89c6c:	f9401fe0 	ldr	x0, [sp, #56]
   89c70:	91002001 	add	x1, x0, #0x8
   89c74:	f9400fe0 	ldr	x0, [sp, #24]
   89c78:	f9000001 	str	x1, [x0]
   89c7c:	f9401fe0 	ldr	x0, [sp, #56]
   89c80:	f9400000 	ldr	x0, [x0]
   89c84:	f9400401 	ldr	x1, [x0, #8]
   89c88:	f9401fe0 	ldr	x0, [sp, #56]
   89c8c:	d63f0020 	blr	x1
   89c90:	140001cf 	b	8a3cc <CEcoVBIOS1Video_AF252188_QueryInterface+0xc3c>
   89c94:	f94013e0 	ldr	x0, [sp, #32]
   89c98:	39400001 	ldrb	w1, [x0]
   89c9c:	d0000420 	adrp	x0, 10f000 <EcoVirtualMemory1Lab_623E1838_MemoryMap+0x7d610>
   89ca0:	91386000 	add	x0, x0, #0xe18
   89ca4:	39400000 	ldrb	w0, [x0]
   89ca8:	6b00003f 	cmp	w1, w0
   89cac:	54001261 	b.ne	89ef8 <CEcoVBIOS1Video_AF252188_QueryInterface+0x768>  // b.any
   89cb0:	f94013e0 	ldr	x0, [sp, #32]
   89cb4:	91000400 	add	x0, x0, #0x1
   89cb8:	39400001 	ldrb	w1, [x0]
   89cbc:	d0000420 	adrp	x0, 10f000 <EcoVirtualMemory1Lab_623E1838_MemoryMap+0x7d610>
   89cc0:	91386400 	add	x0, x0, #0xe19
   89cc4:	39400000 	ldrb	w0, [x0]
   89cc8:	6b00003f 	cmp	w1, w0
   89ccc:	54001161 	b.ne	89ef8 <CEcoVBIOS1Video_AF252188_QueryInterface+0x768>  // b.any
   89cd0:	f94013e0 	ldr	x0, [sp, #32]
   89cd4:	91000800 	add	x0, x0, #0x2
   89cd8:	39400001 	ldrb	w1, [x0]
   89cdc:	d0000420 	adrp	x0, 10f000 <EcoVirtualMemory1Lab_623E1838_MemoryMap+0x7d610>
   89ce0:	91386800 	add	x0, x0, #0xe1a
   89ce4:	39400000 	ldrb	w0, [x0]
   89ce8:	6b00003f 	cmp	w1, w0
   89cec:	54001061 	b.ne	89ef8 <CEcoVBIOS1Video_AF252188_QueryInterface+0x768>  // b.any
   89cf0:	f94013e0 	ldr	x0, [sp, #32]
   89cf4:	91000c00 	add	x0, x0, #0x3
   89cf8:	39400001 	ldrb	w1, [x0]
   89cfc:	d0000420 	adrp	x0, 10f000 <EcoVirtualMemory1Lab_623E1838_MemoryMap+0x7d610>
   89d00:	91386c00 	add	x0, x0, #0xe1b
   89d04:	39400000 	ldrb	w0, [x0]
   89d08:	6b00003f 	cmp	w1, w0
   89d0c:	54000f61 	b.ne	89ef8 <CEcoVBIOS1Video_AF252188_QueryInterface+0x768>  // b.any
   89d10:	f94013e0 	ldr	x0, [sp, #32]
   89d14:	91001000 	add	x0, x0, #0x4
   89d18:	39400001 	ldrb	w1, [x0]
   89d1c:	d0000420 	adrp	x0, 10f000 <EcoVirtualMemory1Lab_623E1838_MemoryMap+0x7d610>
   89d20:	91387000 	add	x0, x0, #0xe1c
   89d24:	39400000 	ldrb	w0, [x0]
   89d28:	6b00003f 	cmp	w1, w0
   89d2c:	54000e61 	b.ne	89ef8 <CEcoVBIOS1Video_AF252188_QueryInterface+0x768>  // b.any
   89d30:	f94013e0 	ldr	x0, [sp, #32]
   89d34:	91001400 	add	x0, x0, #0x5
   89d38:	39400001 	ldrb	w1, [x0]
   89d3c:	d0000420 	adrp	x0, 10f000 <EcoVirtualMemory1Lab_623E1838_MemoryMap+0x7d610>
   89d40:	91387400 	add	x0, x0, #0xe1d
   89d44:	39400000 	ldrb	w0, [x0]
   89d48:	6b00003f 	cmp	w1, w0
   89d4c:	54000d61 	b.ne	89ef8 <CEcoVBIOS1Video_AF252188_QueryInterface+0x768>  // b.any
   89d50:	f94013e0 	ldr	x0, [sp, #32]
   89d54:	91001800 	add	x0, x0, #0x6
   89d58:	39400001 	ldrb	w1, [x0]
   89d5c:	d0000420 	adrp	x0, 10f000 <EcoVirtualMemory1Lab_623E1838_MemoryMap+0x7d610>
   89d60:	91387800 	add	x0, x0, #0xe1e
   89d64:	39400000 	ldrb	w0, [x0]
   89d68:	6b00003f 	cmp	w1, w0
   89d6c:	54000c61 	b.ne	89ef8 <CEcoVBIOS1Video_AF252188_QueryInterface+0x768>  // b.any
   89d70:	f94013e0 	ldr	x0, [sp, #32]
   89d74:	91001c00 	add	x0, x0, #0x7
   89d78:	39400001 	ldrb	w1, [x0]
   89d7c:	d0000420 	adrp	x0, 10f000 <EcoVirtualMemory1Lab_623E1838_MemoryMap+0x7d610>
   89d80:	91387c00 	add	x0, x0, #0xe1f
   89d84:	39400000 	ldrb	w0, [x0]
   89d88:	6b00003f 	cmp	w1, w0
   89d8c:	54000b61 	b.ne	89ef8 <CEcoVBIOS1Video_AF252188_QueryInterface+0x768>  // b.any
   89d90:	f94013e0 	ldr	x0, [sp, #32]
   89d94:	91002000 	add	x0, x0, #0x8
   89d98:	39400001 	ldrb	w1, [x0]
   89d9c:	d0000420 	adrp	x0, 10f000 <EcoVirtualMemory1Lab_623E1838_MemoryMap+0x7d610>
   89da0:	91388000 	add	x0, x0, #0xe20
   89da4:	39400000 	ldrb	w0, [x0]
   89da8:	6b00003f 	cmp	w1, w0
   89dac:	54000a61 	b.ne	89ef8 <CEcoVBIOS1Video_AF252188_QueryInterface+0x768>  // b.any
   89db0:	f94013e0 	ldr	x0, [sp, #32]
   89db4:	91002400 	add	x0, x0, #0x9
   89db8:	39400001 	ldrb	w1, [x0]
   89dbc:	d0000420 	adrp	x0, 10f000 <EcoVirtualMemory1Lab_623E1838_MemoryMap+0x7d610>
   89dc0:	91388400 	add	x0, x0, #0xe21
   89dc4:	39400000 	ldrb	w0, [x0]
   89dc8:	6b00003f 	cmp	w1, w0
   89dcc:	54000961 	b.ne	89ef8 <CEcoVBIOS1Video_AF252188_QueryInterface+0x768>  // b.any
   89dd0:	f94013e0 	ldr	x0, [sp, #32]
   89dd4:	91002800 	add	x0, x0, #0xa
   89dd8:	39400001 	ldrb	w1, [x0]
   89ddc:	d0000420 	adrp	x0, 10f000 <EcoVirtualMemory1Lab_623E1838_MemoryMap+0x7d610>
   89de0:	91388800 	add	x0, x0, #0xe22
   89de4:	39400000 	ldrb	w0, [x0]
   89de8:	6b00003f 	cmp	w1, w0
   89dec:	54000861 	b.ne	89ef8 <CEcoVBIOS1Video_AF252188_QueryInterface+0x768>  // b.any
   89df0:	f94013e0 	ldr	x0, [sp, #32]
   89df4:	91002c00 	add	x0, x0, #0xb
   89df8:	39400001 	ldrb	w1, [x0]
   89dfc:	d0000420 	adrp	x0, 10f000 <EcoVirtualMemory1Lab_623E1838_MemoryMap+0x7d610>
   89e00:	91388c00 	add	x0, x0, #0xe23
   89e04:	39400000 	ldrb	w0, [x0]
   89e08:	6b00003f 	cmp	w1, w0
   89e0c:	54000761 	b.ne	89ef8 <CEcoVBIOS1Video_AF252188_QueryInterface+0x768>  // b.any
   89e10:	f94013e0 	ldr	x0, [sp, #32]
   89e14:	91003000 	add	x0, x0, #0xc
   89e18:	39400001 	ldrb	w1, [x0]
   89e1c:	d0000420 	adrp	x0, 10f000 <EcoVirtualMemory1Lab_623E1838_MemoryMap+0x7d610>
   89e20:	91389000 	add	x0, x0, #0xe24
   89e24:	39400000 	ldrb	w0, [x0]
   89e28:	6b00003f 	cmp	w1, w0
   89e2c:	54000661 	b.ne	89ef8 <CEcoVBIOS1Video_AF252188_QueryInterface+0x768>  // b.any
   89e30:	f94013e0 	ldr	x0, [sp, #32]
   89e34:	91003400 	add	x0, x0, #0xd
   89e38:	39400001 	ldrb	w1, [x0]
   89e3c:	d0000420 	adrp	x0, 10f000 <EcoVirtualMemory1Lab_623E1838_MemoryMap+0x7d610>
   89e40:	91389400 	add	x0, x0, #0xe25
   89e44:	39400000 	ldrb	w0, [x0]
   89e48:	6b00003f 	cmp	w1, w0
   89e4c:	54000561 	b.ne	89ef8 <CEcoVBIOS1Video_AF252188_QueryInterface+0x768>  // b.any
   89e50:	f94013e0 	ldr	x0, [sp, #32]
   89e54:	91003800 	add	x0, x0, #0xe
   89e58:	39400001 	ldrb	w1, [x0]
   89e5c:	d0000420 	adrp	x0, 10f000 <EcoVirtualMemory1Lab_623E1838_MemoryMap+0x7d610>
   89e60:	91389800 	add	x0, x0, #0xe26
   89e64:	39400000 	ldrb	w0, [x0]
   89e68:	6b00003f 	cmp	w1, w0
   89e6c:	54000461 	b.ne	89ef8 <CEcoVBIOS1Video_AF252188_QueryInterface+0x768>  // b.any
   89e70:	f94013e0 	ldr	x0, [sp, #32]
   89e74:	91003c00 	add	x0, x0, #0xf
   89e78:	39400001 	ldrb	w1, [x0]
   89e7c:	d0000420 	adrp	x0, 10f000 <EcoVirtualMemory1Lab_623E1838_MemoryMap+0x7d610>
   89e80:	91389c00 	add	x0, x0, #0xe27
   89e84:	39400000 	ldrb	w0, [x0]
   89e88:	6b00003f 	cmp	w1, w0
   89e8c:	54000361 	b.ne	89ef8 <CEcoVBIOS1Video_AF252188_QueryInterface+0x768>  // b.any
   89e90:	f94013e0 	ldr	x0, [sp, #32]
   89e94:	91004000 	add	x0, x0, #0x10
   89e98:	39400001 	ldrb	w1, [x0]
   89e9c:	d0000420 	adrp	x0, 10f000 <EcoVirtualMemory1Lab_623E1838_MemoryMap+0x7d610>
   89ea0:	9138a000 	add	x0, x0, #0xe28
   89ea4:	39400000 	ldrb	w0, [x0]
   89ea8:	6b00003f 	cmp	w1, w0
   89eac:	54000261 	b.ne	89ef8 <CEcoVBIOS1Video_AF252188_QueryInterface+0x768>  // b.any
   89eb0:	f94013e0 	ldr	x0, [sp, #32]
   89eb4:	91004400 	add	x0, x0, #0x11
   89eb8:	39400001 	ldrb	w1, [x0]
   89ebc:	d0000420 	adrp	x0, 10f000 <EcoVirtualMemory1Lab_623E1838_MemoryMap+0x7d610>
   89ec0:	9138a400 	add	x0, x0, #0xe29
   89ec4:	39400000 	ldrb	w0, [x0]
   89ec8:	6b00003f 	cmp	w1, w0
   89ecc:	54000161 	b.ne	89ef8 <CEcoVBIOS1Video_AF252188_QueryInterface+0x768>  // b.any
   89ed0:	f9401fe0 	ldr	x0, [sp, #56]
   89ed4:	91004001 	add	x1, x0, #0x10
   89ed8:	f9400fe0 	ldr	x0, [sp, #24]
   89edc:	f9000001 	str	x1, [x0]
   89ee0:	f9401fe0 	ldr	x0, [sp, #56]
   89ee4:	f9400000 	ldr	x0, [x0]
   89ee8:	f9400401 	ldr	x1, [x0, #8]
   89eec:	f9401fe0 	ldr	x0, [sp, #56]
   89ef0:	d63f0020 	blr	x1
   89ef4:	14000136 	b	8a3cc <CEcoVBIOS1Video_AF252188_QueryInterface+0xc3c>
   89ef8:	f94013e0 	ldr	x0, [sp, #32]
   89efc:	39400001 	ldrb	w1, [x0]
   89f00:	d0000420 	adrp	x0, 10f000 <EcoVirtualMemory1Lab_623E1838_MemoryMap+0x7d610>
   89f04:	913aa000 	add	x0, x0, #0xea8
   89f08:	39400000 	ldrb	w0, [x0]
   89f0c:	6b00003f 	cmp	w1, w0
   89f10:	54001261 	b.ne	8a15c <CEcoVBIOS1Video_AF252188_QueryInterface+0x9cc>  // b.any
   89f14:	f94013e0 	ldr	x0, [sp, #32]
   89f18:	91000400 	add	x0, x0, #0x1
   89f1c:	39400001 	ldrb	w1, [x0]
   89f20:	d0000420 	adrp	x0, 10f000 <EcoVirtualMemory1Lab_623E1838_MemoryMap+0x7d610>
   89f24:	913aa400 	add	x0, x0, #0xea9
   89f28:	39400000 	ldrb	w0, [x0]
   89f2c:	6b00003f 	cmp	w1, w0
   89f30:	54001161 	b.ne	8a15c <CEcoVBIOS1Video_AF252188_QueryInterface+0x9cc>  // b.any
   89f34:	f94013e0 	ldr	x0, [sp, #32]
   89f38:	91000800 	add	x0, x0, #0x2
   89f3c:	39400001 	ldrb	w1, [x0]
   89f40:	d0000420 	adrp	x0, 10f000 <EcoVirtualMemory1Lab_623E1838_MemoryMap+0x7d610>
   89f44:	913aa800 	add	x0, x0, #0xeaa
   89f48:	39400000 	ldrb	w0, [x0]
   89f4c:	6b00003f 	cmp	w1, w0
   89f50:	54001061 	b.ne	8a15c <CEcoVBIOS1Video_AF252188_QueryInterface+0x9cc>  // b.any
   89f54:	f94013e0 	ldr	x0, [sp, #32]
   89f58:	91000c00 	add	x0, x0, #0x3
   89f5c:	39400001 	ldrb	w1, [x0]
   89f60:	d0000420 	adrp	x0, 10f000 <EcoVirtualMemory1Lab_623E1838_MemoryMap+0x7d610>
   89f64:	913aac00 	add	x0, x0, #0xeab
   89f68:	39400000 	ldrb	w0, [x0]
   89f6c:	6b00003f 	cmp	w1, w0
   89f70:	54000f61 	b.ne	8a15c <CEcoVBIOS1Video_AF252188_QueryInterface+0x9cc>  // b.any
   89f74:	f94013e0 	ldr	x0, [sp, #32]
   89f78:	91001000 	add	x0, x0, #0x4
   89f7c:	39400001 	ldrb	w1, [x0]
   89f80:	d0000420 	adrp	x0, 10f000 <EcoVirtualMemory1Lab_623E1838_MemoryMap+0x7d610>
   89f84:	913ab000 	add	x0, x0, #0xeac
   89f88:	39400000 	ldrb	w0, [x0]
   89f8c:	6b00003f 	cmp	w1, w0
   89f90:	54000e61 	b.ne	8a15c <CEcoVBIOS1Video_AF252188_QueryInterface+0x9cc>  // b.any
   89f94:	f94013e0 	ldr	x0, [sp, #32]
   89f98:	91001400 	add	x0, x0, #0x5
   89f9c:	39400001 	ldrb	w1, [x0]
   89fa0:	d0000420 	adrp	x0, 10f000 <EcoVirtualMemory1Lab_623E1838_MemoryMap+0x7d610>
   89fa4:	913ab400 	add	x0, x0, #0xead
   89fa8:	39400000 	ldrb	w0, [x0]
   89fac:	6b00003f 	cmp	w1, w0
   89fb0:	54000d61 	b.ne	8a15c <CEcoVBIOS1Video_AF252188_QueryInterface+0x9cc>  // b.any
   89fb4:	f94013e0 	ldr	x0, [sp, #32]
   89fb8:	91001800 	add	x0, x0, #0x6
   89fbc:	39400001 	ldrb	w1, [x0]
   89fc0:	d0000420 	adrp	x0, 10f000 <EcoVirtualMemory1Lab_623E1838_MemoryMap+0x7d610>
   89fc4:	913ab800 	add	x0, x0, #0xeae
   89fc8:	39400000 	ldrb	w0, [x0]
   89fcc:	6b00003f 	cmp	w1, w0
   89fd0:	54000c61 	b.ne	8a15c <CEcoVBIOS1Video_AF252188_QueryInterface+0x9cc>  // b.any
   89fd4:	f94013e0 	ldr	x0, [sp, #32]
   89fd8:	91001c00 	add	x0, x0, #0x7
   89fdc:	39400001 	ldrb	w1, [x0]
   89fe0:	d0000420 	adrp	x0, 10f000 <EcoVirtualMemory1Lab_623E1838_MemoryMap+0x7d610>
   89fe4:	913abc00 	add	x0, x0, #0xeaf
   89fe8:	39400000 	ldrb	w0, [x0]
   89fec:	6b00003f 	cmp	w1, w0
   89ff0:	54000b61 	b.ne	8a15c <CEcoVBIOS1Video_AF252188_QueryInterface+0x9cc>  // b.any
   89ff4:	f94013e0 	ldr	x0, [sp, #32]
   89ff8:	91002000 	add	x0, x0, #0x8
   89ffc:	39400001 	ldrb	w1, [x0]
   8a000:	b0000420 	adrp	x0, 10f000 <EcoVirtualMemory1Lab_623E1838_MemoryMap+0x7d610>
   8a004:	913ac000 	add	x0, x0, #0xeb0
   8a008:	39400000 	ldrb	w0, [x0]
   8a00c:	6b00003f 	cmp	w1, w0
   8a010:	54000a61 	b.ne	8a15c <CEcoVBIOS1Video_AF252188_QueryInterface+0x9cc>  // b.any
   8a014:	f94013e0 	ldr	x0, [sp, #32]
   8a018:	91002400 	add	x0, x0, #0x9
   8a01c:	39400001 	ldrb	w1, [x0]
   8a020:	b0000420 	adrp	x0, 10f000 <EcoVirtualMemory1Lab_623E1838_MemoryMap+0x7d610>
   8a024:	913ac400 	add	x0, x0, #0xeb1
   8a028:	39400000 	ldrb	w0, [x0]
   8a02c:	6b00003f 	cmp	w1, w0
   8a030:	54000961 	b.ne	8a15c <CEcoVBIOS1Video_AF252188_QueryInterface+0x9cc>  // b.any
   8a034:	f94013e0 	ldr	x0, [sp, #32]
   8a038:	91002800 	add	x0, x0, #0xa
   8a03c:	39400001 	ldrb	w1, [x0]
   8a040:	b0000420 	adrp	x0, 10f000 <EcoVirtualMemory1Lab_623E1838_MemoryMap+0x7d610>
   8a044:	913ac800 	add	x0, x0, #0xeb2
   8a048:	39400000 	ldrb	w0, [x0]
   8a04c:	6b00003f 	cmp	w1, w0
   8a050:	54000861 	b.ne	8a15c <CEcoVBIOS1Video_AF252188_QueryInterface+0x9cc>  // b.any
   8a054:	f94013e0 	ldr	x0, [sp, #32]
   8a058:	91002c00 	add	x0, x0, #0xb
   8a05c:	39400001 	ldrb	w1, [x0]
   8a060:	b0000420 	adrp	x0, 10f000 <EcoVirtualMemory1Lab_623E1838_MemoryMap+0x7d610>
   8a064:	913acc00 	add	x0, x0, #0xeb3
   8a068:	39400000 	ldrb	w0, [x0]
   8a06c:	6b00003f 	cmp	w1, w0
   8a070:	54000761 	b.ne	8a15c <CEcoVBIOS1Video_AF252188_QueryInterface+0x9cc>  // b.any
   8a074:	f94013e0 	ldr	x0, [sp, #32]
   8a078:	91003000 	add	x0, x0, #0xc
   8a07c:	39400001 	ldrb	w1, [x0]
   8a080:	b0000420 	adrp	x0, 10f000 <EcoVirtualMemory1Lab_623E1838_MemoryMap+0x7d610>
   8a084:	913ad000 	add	x0, x0, #0xeb4
   8a088:	39400000 	ldrb	w0, [x0]
   8a08c:	6b00003f 	cmp	w1, w0
   8a090:	54000661 	b.ne	8a15c <CEcoVBIOS1Video_AF252188_QueryInterface+0x9cc>  // b.any
   8a094:	f94013e0 	ldr	x0, [sp, #32]
   8a098:	91003400 	add	x0, x0, #0xd
   8a09c:	39400001 	ldrb	w1, [x0]
   8a0a0:	b0000420 	adrp	x0, 10f000 <EcoVirtualMemory1Lab_623E1838_MemoryMap+0x7d610>
   8a0a4:	913ad400 	add	x0, x0, #0xeb5
   8a0a8:	39400000 	ldrb	w0, [x0]
   8a0ac:	6b00003f 	cmp	w1, w0
   8a0b0:	54000561 	b.ne	8a15c <CEcoVBIOS1Video_AF252188_QueryInterface+0x9cc>  // b.any
   8a0b4:	f94013e0 	ldr	x0, [sp, #32]
   8a0b8:	91003800 	add	x0, x0, #0xe
   8a0bc:	39400001 	ldrb	w1, [x0]
   8a0c0:	b0000420 	adrp	x0, 10f000 <EcoVirtualMemory1Lab_623E1838_MemoryMap+0x7d610>
   8a0c4:	913ad800 	add	x0, x0, #0xeb6
   8a0c8:	39400000 	ldrb	w0, [x0]
   8a0cc:	6b00003f 	cmp	w1, w0
   8a0d0:	54000461 	b.ne	8a15c <CEcoVBIOS1Video_AF252188_QueryInterface+0x9cc>  // b.any
   8a0d4:	f94013e0 	ldr	x0, [sp, #32]
   8a0d8:	91003c00 	add	x0, x0, #0xf
   8a0dc:	39400001 	ldrb	w1, [x0]
   8a0e0:	b0000420 	adrp	x0, 10f000 <EcoVirtualMemory1Lab_623E1838_MemoryMap+0x7d610>
   8a0e4:	913adc00 	add	x0, x0, #0xeb7
   8a0e8:	39400000 	ldrb	w0, [x0]
   8a0ec:	6b00003f 	cmp	w1, w0
   8a0f0:	54000361 	b.ne	8a15c <CEcoVBIOS1Video_AF252188_QueryInterface+0x9cc>  // b.any
   8a0f4:	f94013e0 	ldr	x0, [sp, #32]
   8a0f8:	91004000 	add	x0, x0, #0x10
   8a0fc:	39400001 	ldrb	w1, [x0]
   8a100:	b0000420 	adrp	x0, 10f000 <EcoVirtualMemory1Lab_623E1838_MemoryMap+0x7d610>
   8a104:	913ae000 	add	x0, x0, #0xeb8
   8a108:	39400000 	ldrb	w0, [x0]
   8a10c:	6b00003f 	cmp	w1, w0
   8a110:	54000261 	b.ne	8a15c <CEcoVBIOS1Video_AF252188_QueryInterface+0x9cc>  // b.any
   8a114:	f94013e0 	ldr	x0, [sp, #32]
   8a118:	91004400 	add	x0, x0, #0x11
   8a11c:	39400001 	ldrb	w1, [x0]
   8a120:	b0000420 	adrp	x0, 10f000 <EcoVirtualMemory1Lab_623E1838_MemoryMap+0x7d610>
   8a124:	913ae400 	add	x0, x0, #0xeb9
   8a128:	39400000 	ldrb	w0, [x0]
   8a12c:	6b00003f 	cmp	w1, w0
   8a130:	54000161 	b.ne	8a15c <CEcoVBIOS1Video_AF252188_QueryInterface+0x9cc>  // b.any
   8a134:	f9401fe0 	ldr	x0, [sp, #56]
   8a138:	91006001 	add	x1, x0, #0x18
   8a13c:	f9400fe0 	ldr	x0, [sp, #24]
   8a140:	f9000001 	str	x1, [x0]
   8a144:	f9401fe0 	ldr	x0, [sp, #56]
   8a148:	f9400000 	ldr	x0, [x0]
   8a14c:	f9400401 	ldr	x1, [x0, #8]
   8a150:	f9401fe0 	ldr	x0, [sp, #56]
   8a154:	d63f0020 	blr	x1
   8a158:	1400009d 	b	8a3cc <CEcoVBIOS1Video_AF252188_QueryInterface+0xc3c>
   8a15c:	f94013e0 	ldr	x0, [sp, #32]
   8a160:	39400001 	ldrb	w1, [x0]
   8a164:	b0000420 	adrp	x0, 10f000 <EcoVirtualMemory1Lab_623E1838_MemoryMap+0x7d610>
   8a168:	91320000 	add	x0, x0, #0xc80
   8a16c:	39400000 	ldrb	w0, [x0]
   8a170:	6b00003f 	cmp	w1, w0
   8a174:	54001241 	b.ne	8a3bc <CEcoVBIOS1Video_AF252188_QueryInterface+0xc2c>  // b.any
   8a178:	f94013e0 	ldr	x0, [sp, #32]
   8a17c:	91000400 	add	x0, x0, #0x1
   8a180:	39400001 	ldrb	w1, [x0]
   8a184:	b0000420 	adrp	x0, 10f000 <EcoVirtualMemory1Lab_623E1838_MemoryMap+0x7d610>
   8a188:	91320400 	add	x0, x0, #0xc81
   8a18c:	39400000 	ldrb	w0, [x0]
   8a190:	6b00003f 	cmp	w1, w0
   8a194:	54001141 	b.ne	8a3bc <CEcoVBIOS1Video_AF252188_QueryInterface+0xc2c>  // b.any
   8a198:	f94013e0 	ldr	x0, [sp, #32]
   8a19c:	91000800 	add	x0, x0, #0x2
   8a1a0:	39400001 	ldrb	w1, [x0]
   8a1a4:	b0000420 	adrp	x0, 10f000 <EcoVirtualMemory1Lab_623E1838_MemoryMap+0x7d610>
   8a1a8:	91320800 	add	x0, x0, #0xc82
   8a1ac:	39400000 	ldrb	w0, [x0]
   8a1b0:	6b00003f 	cmp	w1, w0
   8a1b4:	54001041 	b.ne	8a3bc <CEcoVBIOS1Video_AF252188_QueryInterface+0xc2c>  // b.any
   8a1b8:	f94013e0 	ldr	x0, [sp, #32]
   8a1bc:	91000c00 	add	x0, x0, #0x3
   8a1c0:	39400001 	ldrb	w1, [x0]
   8a1c4:	b0000420 	adrp	x0, 10f000 <EcoVirtualMemory1Lab_623E1838_MemoryMap+0x7d610>
   8a1c8:	91320c00 	add	x0, x0, #0xc83
   8a1cc:	39400000 	ldrb	w0, [x0]
   8a1d0:	6b00003f 	cmp	w1, w0
   8a1d4:	54000f41 	b.ne	8a3bc <CEcoVBIOS1Video_AF252188_QueryInterface+0xc2c>  // b.any
   8a1d8:	f94013e0 	ldr	x0, [sp, #32]
   8a1dc:	91001000 	add	x0, x0, #0x4
   8a1e0:	39400001 	ldrb	w1, [x0]
   8a1e4:	b0000420 	adrp	x0, 10f000 <EcoVirtualMemory1Lab_623E1838_MemoryMap+0x7d610>
   8a1e8:	91321000 	add	x0, x0, #0xc84
   8a1ec:	39400000 	ldrb	w0, [x0]
   8a1f0:	6b00003f 	cmp	w1, w0
   8a1f4:	54000e41 	b.ne	8a3bc <CEcoVBIOS1Video_AF252188_QueryInterface+0xc2c>  // b.any
   8a1f8:	f94013e0 	ldr	x0, [sp, #32]
   8a1fc:	91001400 	add	x0, x0, #0x5
   8a200:	39400001 	ldrb	w1, [x0]
   8a204:	b0000420 	adrp	x0, 10f000 <EcoVirtualMemory1Lab_623E1838_MemoryMap+0x7d610>
   8a208:	91321400 	add	x0, x0, #0xc85
   8a20c:	39400000 	ldrb	w0, [x0]
   8a210:	6b00003f 	cmp	w1, w0
   8a214:	54000d41 	b.ne	8a3bc <CEcoVBIOS1Video_AF252188_QueryInterface+0xc2c>  // b.any
   8a218:	f94013e0 	ldr	x0, [sp, #32]
   8a21c:	91001800 	add	x0, x0, #0x6
   8a220:	39400001 	ldrb	w1, [x0]
   8a224:	b0000420 	adrp	x0, 10f000 <EcoVirtualMemory1Lab_623E1838_MemoryMap+0x7d610>
   8a228:	91321800 	add	x0, x0, #0xc86
   8a22c:	39400000 	ldrb	w0, [x0]
   8a230:	6b00003f 	cmp	w1, w0
   8a234:	54000c41 	b.ne	8a3bc <CEcoVBIOS1Video_AF252188_QueryInterface+0xc2c>  // b.any
   8a238:	f94013e0 	ldr	x0, [sp, #32]
   8a23c:	91001c00 	add	x0, x0, #0x7
   8a240:	39400001 	ldrb	w1, [x0]
   8a244:	b0000420 	adrp	x0, 10f000 <EcoVirtualMemory1Lab_623E1838_MemoryMap+0x7d610>
   8a248:	91321c00 	add	x0, x0, #0xc87
   8a24c:	39400000 	ldrb	w0, [x0]
   8a250:	6b00003f 	cmp	w1, w0
   8a254:	54000b41 	b.ne	8a3bc <CEcoVBIOS1Video_AF252188_QueryInterface+0xc2c>  // b.any
   8a258:	f94013e0 	ldr	x0, [sp, #32]
   8a25c:	91002000 	add	x0, x0, #0x8
   8a260:	39400001 	ldrb	w1, [x0]
   8a264:	b0000420 	adrp	x0, 10f000 <EcoVirtualMemory1Lab_623E1838_MemoryMap+0x7d610>
   8a268:	91322000 	add	x0, x0, #0xc88
   8a26c:	39400000 	ldrb	w0, [x0]
   8a270:	6b00003f 	cmp	w1, w0
   8a274:	54000a41 	b.ne	8a3bc <CEcoVBIOS1Video_AF252188_QueryInterface+0xc2c>  // b.any
   8a278:	f94013e0 	ldr	x0, [sp, #32]
   8a27c:	91002400 	add	x0, x0, #0x9
   8a280:	39400001 	ldrb	w1, [x0]
   8a284:	b0000420 	adrp	x0, 10f000 <EcoVirtualMemory1Lab_623E1838_MemoryMap+0x7d610>
   8a288:	91322400 	add	x0, x0, #0xc89
   8a28c:	39400000 	ldrb	w0, [x0]
   8a290:	6b00003f 	cmp	w1, w0
   8a294:	54000941 	b.ne	8a3bc <CEcoVBIOS1Video_AF252188_QueryInterface+0xc2c>  // b.any
   8a298:	f94013e0 	ldr	x0, [sp, #32]
   8a29c:	91002800 	add	x0, x0, #0xa
   8a2a0:	39400001 	ldrb	w1, [x0]
   8a2a4:	b0000420 	adrp	x0, 10f000 <EcoVirtualMemory1Lab_623E1838_MemoryMap+0x7d610>
   8a2a8:	91322800 	add	x0, x0, #0xc8a
   8a2ac:	39400000 	ldrb	w0, [x0]
   8a2b0:	6b00003f 	cmp	w1, w0
   8a2b4:	54000841 	b.ne	8a3bc <CEcoVBIOS1Video_AF252188_QueryInterface+0xc2c>  // b.any
   8a2b8:	f94013e0 	ldr	x0, [sp, #32]
   8a2bc:	91002c00 	add	x0, x0, #0xb
   8a2c0:	39400001 	ldrb	w1, [x0]
   8a2c4:	b0000420 	adrp	x0, 10f000 <EcoVirtualMemory1Lab_623E1838_MemoryMap+0x7d610>
   8a2c8:	91322c00 	add	x0, x0, #0xc8b
   8a2cc:	39400000 	ldrb	w0, [x0]
   8a2d0:	6b00003f 	cmp	w1, w0
   8a2d4:	54000741 	b.ne	8a3bc <CEcoVBIOS1Video_AF252188_QueryInterface+0xc2c>  // b.any
   8a2d8:	f94013e0 	ldr	x0, [sp, #32]
   8a2dc:	91003000 	add	x0, x0, #0xc
   8a2e0:	39400001 	ldrb	w1, [x0]
   8a2e4:	b0000420 	adrp	x0, 10f000 <EcoVirtualMemory1Lab_623E1838_MemoryMap+0x7d610>
   8a2e8:	91323000 	add	x0, x0, #0xc8c
   8a2ec:	39400000 	ldrb	w0, [x0]
   8a2f0:	6b00003f 	cmp	w1, w0
   8a2f4:	54000641 	b.ne	8a3bc <CEcoVBIOS1Video_AF252188_QueryInterface+0xc2c>  // b.any
   8a2f8:	f94013e0 	ldr	x0, [sp, #32]
   8a2fc:	91003400 	add	x0, x0, #0xd
   8a300:	39400001 	ldrb	w1, [x0]
   8a304:	b0000420 	adrp	x0, 10f000 <EcoVirtualMemory1Lab_623E1838_MemoryMap+0x7d610>
   8a308:	91323400 	add	x0, x0, #0xc8d
   8a30c:	39400000 	ldrb	w0, [x0]
   8a310:	6b00003f 	cmp	w1, w0
   8a314:	54000541 	b.ne	8a3bc <CEcoVBIOS1Video_AF252188_QueryInterface+0xc2c>  // b.any
   8a318:	f94013e0 	ldr	x0, [sp, #32]
   8a31c:	91003800 	add	x0, x0, #0xe
   8a320:	39400001 	ldrb	w1, [x0]
   8a324:	b0000420 	adrp	x0, 10f000 <EcoVirtualMemory1Lab_623E1838_MemoryMap+0x7d610>
   8a328:	91323800 	add	x0, x0, #0xc8e
   8a32c:	39400000 	ldrb	w0, [x0]
   8a330:	6b00003f 	cmp	w1, w0
   8a334:	54000441 	b.ne	8a3bc <CEcoVBIOS1Video_AF252188_QueryInterface+0xc2c>  // b.any
   8a338:	f94013e0 	ldr	x0, [sp, #32]
   8a33c:	91003c00 	add	x0, x0, #0xf
   8a340:	39400001 	ldrb	w1, [x0]
   8a344:	b0000420 	adrp	x0, 10f000 <EcoVirtualMemory1Lab_623E1838_MemoryMap+0x7d610>
   8a348:	91323c00 	add	x0, x0, #0xc8f
   8a34c:	39400000 	ldrb	w0, [x0]
   8a350:	6b00003f 	cmp	w1, w0
   8a354:	54000341 	b.ne	8a3bc <CEcoVBIOS1Video_AF252188_QueryInterface+0xc2c>  // b.any
   8a358:	f94013e0 	ldr	x0, [sp, #32]
   8a35c:	91004000 	add	x0, x0, #0x10
   8a360:	39400001 	ldrb	w1, [x0]
   8a364:	b0000420 	adrp	x0, 10f000 <EcoVirtualMemory1Lab_623E1838_MemoryMap+0x7d610>
   8a368:	91324000 	add	x0, x0, #0xc90
   8a36c:	39400000 	ldrb	w0, [x0]
   8a370:	6b00003f 	cmp	w1, w0
   8a374:	54000241 	b.ne	8a3bc <CEcoVBIOS1Video_AF252188_QueryInterface+0xc2c>  // b.any
   8a378:	f94013e0 	ldr	x0, [sp, #32]
   8a37c:	91004400 	add	x0, x0, #0x11
   8a380:	39400001 	ldrb	w1, [x0]
   8a384:	b0000420 	adrp	x0, 10f000 <EcoVirtualMemory1Lab_623E1838_MemoryMap+0x7d610>
   8a388:	91324400 	add	x0, x0, #0xc91
   8a38c:	39400000 	ldrb	w0, [x0]
   8a390:	6b00003f 	cmp	w1, w0
   8a394:	54000141 	b.ne	8a3bc <CEcoVBIOS1Video_AF252188_QueryInterface+0xc2c>  // b.any
   8a398:	f9401fe1 	ldr	x1, [sp, #56]
   8a39c:	f9400fe0 	ldr	x0, [sp, #24]
   8a3a0:	f9000001 	str	x1, [x0]
   8a3a4:	f9401fe0 	ldr	x0, [sp, #56]
   8a3a8:	f9400000 	ldr	x0, [x0]
   8a3ac:	f9400401 	ldr	x1, [x0, #8]
   8a3b0:	f9401fe0 	ldr	x0, [sp, #56]
   8a3b4:	d63f0020 	blr	x1
   8a3b8:	14000005 	b	8a3cc <CEcoVBIOS1Video_AF252188_QueryInterface+0xc3c>
   8a3bc:	f9400fe0 	ldr	x0, [sp, #24]
   8a3c0:	f900001f 	str	xzr, [x0]
   8a3c4:	12800240 	mov	w0, #0xffffffed            	// #-19
   8a3c8:	14000002 	b	8a3d0 <CEcoVBIOS1Video_AF252188_QueryInterface+0xc40>
   8a3cc:	52800000 	mov	w0, #0x0                   	// #0
   8a3d0:	a8c47bfd 	ldp	x29, x30, [sp], #64
   8a3d4:	d65f03c0 	ret

000000000008a3d8 <CEcoVBIOS1Video_AF252188_AddRef>:
   8a3d8:	d10083ff 	sub	sp, sp, #0x20
   8a3dc:	f90007e0 	str	x0, [sp, #8]
   8a3e0:	f94007e0 	ldr	x0, [sp, #8]
   8a3e4:	d1004000 	sub	x0, x0, #0x10
   8a3e8:	f9000fe0 	str	x0, [sp, #24]
   8a3ec:	f94007e0 	ldr	x0, [sp, #8]
   8a3f0:	f100001f 	cmp	x0, #0x0
   8a3f4:	54000061 	b.ne	8a400 <CEcoVBIOS1Video_AF252188_AddRef+0x28>  // b.any
   8a3f8:	12800000 	mov	w0, #0xffffffff            	// #-1
   8a3fc:	14000008 	b	8a41c <CEcoVBIOS1Video_AF252188_AddRef+0x44>
   8a400:	f9400fe0 	ldr	x0, [sp, #24]
   8a404:	b9402000 	ldr	w0, [x0, #32]
   8a408:	11000401 	add	w1, w0, #0x1
   8a40c:	f9400fe0 	ldr	x0, [sp, #24]
   8a410:	b9002001 	str	w1, [x0, #32]
   8a414:	f9400fe0 	ldr	x0, [sp, #24]
   8a418:	b9402000 	ldr	w0, [x0, #32]
   8a41c:	910083ff 	add	sp, sp, #0x20
   8a420:	d65f03c0 	ret

000000000008a424 <CEcoVBIOS1Video_AF252188_Release>:
   8a424:	a9bd7bfd 	stp	x29, x30, [sp, #-48]!
   8a428:	910003fd 	mov	x29, sp
   8a42c:	f9000fe0 	str	x0, [sp, #24]
   8a430:	f9400fe0 	ldr	x0, [sp, #24]
   8a434:	d1004000 	sub	x0, x0, #0x10
   8a438:	f90017e0 	str	x0, [sp, #40]
   8a43c:	f9400fe0 	ldr	x0, [sp, #24]
   8a440:	f100001f 	cmp	x0, #0x0
   8a444:	54000061 	b.ne	8a450 <CEcoVBIOS1Video_AF252188_Release+0x2c>  // b.any
   8a448:	12800000 	mov	w0, #0xffffffff            	// #-1
   8a44c:	14000010 	b	8a48c <CEcoVBIOS1Video_AF252188_Release+0x68>
   8a450:	f94017e0 	ldr	x0, [sp, #40]
   8a454:	b9402000 	ldr	w0, [x0, #32]
   8a458:	51000401 	sub	w1, w0, #0x1
   8a45c:	f94017e0 	ldr	x0, [sp, #40]
   8a460:	b9002001 	str	w1, [x0, #32]
   8a464:	f94017e0 	ldr	x0, [sp, #40]
   8a468:	b9402000 	ldr	w0, [x0, #32]
   8a46c:	7100001f 	cmp	w0, #0x0
   8a470:	540000a1 	b.ne	8a484 <CEcoVBIOS1Video_AF252188_Release+0x60>  // b.any
   8a474:	f94017e0 	ldr	x0, [sp, #40]
   8a478:	940006c6 	bl	8bf90 <deleteCEcoVFB1_AF252188>
   8a47c:	52800000 	mov	w0, #0x0                   	// #0
   8a480:	14000003 	b	8a48c <CEcoVBIOS1Video_AF252188_Release+0x68>
   8a484:	f94017e0 	ldr	x0, [sp, #40]
   8a488:	b9402000 	ldr	w0, [x0, #32]
   8a48c:	a8c37bfd 	ldp	x29, x30, [sp], #48
   8a490:	d65f03c0 	ret

000000000008a494 <CEcoVBIOS1Video_AF252188_SetMode>:
   8a494:	d10083ff 	sub	sp, sp, #0x20
   8a498:	f90007e0 	str	x0, [sp, #8]
   8a49c:	39001fe1 	strb	w1, [sp, #7]
   8a4a0:	f94007e0 	ldr	x0, [sp, #8]
   8a4a4:	d1004000 	sub	x0, x0, #0x10
   8a4a8:	f9000fe0 	str	x0, [sp, #24]
   8a4ac:	f94007e0 	ldr	x0, [sp, #8]
   8a4b0:	f100001f 	cmp	x0, #0x0
   8a4b4:	54000061 	b.ne	8a4c0 <CEcoVBIOS1Video_AF252188_SetMode+0x2c>  // b.any
   8a4b8:	12800220 	mov	w0, #0xffffffee            	// #-18
   8a4bc:	14000002 	b	8a4c4 <CEcoVBIOS1Video_AF252188_SetMode+0x30>
   8a4c0:	52800000 	mov	w0, #0x0                   	// #0
   8a4c4:	910083ff 	add	sp, sp, #0x20
   8a4c8:	d65f03c0 	ret

000000000008a4cc <CEcoVBIOS1Video_AF252188_SetCursorType>:
   8a4cc:	d10083ff 	sub	sp, sp, #0x20
   8a4d0:	f90007e0 	str	x0, [sp, #8]
   8a4d4:	39001fe1 	strb	w1, [sp, #7]
   8a4d8:	39001be2 	strb	w2, [sp, #6]
   8a4dc:	f94007e0 	ldr	x0, [sp, #8]
   8a4e0:	d1004000 	sub	x0, x0, #0x10
   8a4e4:	f9000fe0 	str	x0, [sp, #24]
   8a4e8:	f94007e0 	ldr	x0, [sp, #8]
   8a4ec:	f100001f 	cmp	x0, #0x0
   8a4f0:	54000061 	b.ne	8a4fc <CEcoVBIOS1Video_AF252188_SetCursorType+0x30>  // b.any
   8a4f4:	12800220 	mov	w0, #0xffffffee            	// #-18
   8a4f8:	14000002 	b	8a500 <CEcoVBIOS1Video_AF252188_SetCursorType+0x34>
   8a4fc:	52800000 	mov	w0, #0x0                   	// #0
   8a500:	910083ff 	add	sp, sp, #0x20
   8a504:	d65f03c0 	ret

000000000008a508 <CEcoVBIOS1Video_AF252188_SetCursorPosition>:
   8a508:	d10083ff 	sub	sp, sp, #0x20
   8a50c:	f90007e0 	str	x0, [sp, #8]
   8a510:	39001fe1 	strb	w1, [sp, #7]
   8a514:	39001be2 	strb	w2, [sp, #6]
   8a518:	390017e3 	strb	w3, [sp, #5]
   8a51c:	f94007e0 	ldr	x0, [sp, #8]
   8a520:	d1004000 	sub	x0, x0, #0x10
   8a524:	f9000fe0 	str	x0, [sp, #24]
   8a528:	f94007e0 	ldr	x0, [sp, #8]
   8a52c:	f100001f 	cmp	x0, #0x0
   8a530:	54000061 	b.ne	8a53c <CEcoVBIOS1Video_AF252188_SetCursorPosition+0x34>  // b.any
   8a534:	12800220 	mov	w0, #0xffffffee            	// #-18
   8a538:	14000008 	b	8a558 <CEcoVBIOS1Video_AF252188_SetCursorPosition+0x50>
   8a53c:	39401be1 	ldrb	w1, [sp, #6]
   8a540:	f9400fe0 	ldr	x0, [sp, #24]
   8a544:	b9007801 	str	w1, [x0, #120]
   8a548:	394017e1 	ldrb	w1, [sp, #5]
   8a54c:	f9400fe0 	ldr	x0, [sp, #24]
   8a550:	b9007c01 	str	w1, [x0, #124]
   8a554:	52800000 	mov	w0, #0x0                   	// #0
   8a558:	910083ff 	add	sp, sp, #0x20
   8a55c:	d65f03c0 	ret

000000000008a560 <CEcoVBIOS1Video_AF252188_ReadCursorPosition>:
   8a560:	d10103ff 	sub	sp, sp, #0x40
   8a564:	f90017e0 	str	x0, [sp, #40]
   8a568:	39009fe1 	strb	w1, [sp, #39]
   8a56c:	f9000fe2 	str	x2, [sp, #24]
   8a570:	f9000be3 	str	x3, [sp, #16]
   8a574:	f90007e4 	str	x4, [sp, #8]
   8a578:	f90003e5 	str	x5, [sp]
   8a57c:	f94017e0 	ldr	x0, [sp, #40]
   8a580:	d1004000 	sub	x0, x0, #0x10
   8a584:	f9001fe0 	str	x0, [sp, #56]
   8a588:	f94017e0 	ldr	x0, [sp, #40]
   8a58c:	f100001f 	cmp	x0, #0x0
   8a590:	54000061 	b.ne	8a59c <CEcoVBIOS1Video_AF252188_ReadCursorPosition+0x3c>  // b.any
   8a594:	12800220 	mov	w0, #0xffffffee            	// #-18
   8a598:	14000002 	b	8a5a0 <CEcoVBIOS1Video_AF252188_ReadCursorPosition+0x40>
   8a59c:	52800000 	mov	w0, #0x0                   	// #0
   8a5a0:	910103ff 	add	sp, sp, #0x40
   8a5a4:	d65f03c0 	ret

000000000008a5a8 <CEcoVBIOS1Video_AF252188_ReadLightPenPosition>:
   8a5a8:	d10103ff 	sub	sp, sp, #0x40
   8a5ac:	f90017e0 	str	x0, [sp, #40]
   8a5b0:	f90013e1 	str	x1, [sp, #32]
   8a5b4:	f9000fe2 	str	x2, [sp, #24]
   8a5b8:	f9000be3 	str	x3, [sp, #16]
   8a5bc:	f90007e4 	str	x4, [sp, #8]
   8a5c0:	f90003e5 	str	x5, [sp]
   8a5c4:	f94017e0 	ldr	x0, [sp, #40]
   8a5c8:	d1004000 	sub	x0, x0, #0x10
   8a5cc:	f9001fe0 	str	x0, [sp, #56]
   8a5d0:	f94017e0 	ldr	x0, [sp, #40]
   8a5d4:	f100001f 	cmp	x0, #0x0
   8a5d8:	54000061 	b.ne	8a5e4 <CEcoVBIOS1Video_AF252188_ReadLightPenPosition+0x3c>  // b.any
   8a5dc:	12800220 	mov	w0, #0xffffffee            	// #-18
   8a5e0:	14000002 	b	8a5e8 <CEcoVBIOS1Video_AF252188_ReadLightPenPosition+0x40>
   8a5e4:	52800000 	mov	w0, #0x0                   	// #0
   8a5e8:	910103ff 	add	sp, sp, #0x40
   8a5ec:	d65f03c0 	ret

000000000008a5f0 <CEcoVBIOS1Video_AF252188_SelectActiveDisplayPage>:
   8a5f0:	d10083ff 	sub	sp, sp, #0x20
   8a5f4:	f90007e0 	str	x0, [sp, #8]
   8a5f8:	39001fe1 	strb	w1, [sp, #7]
   8a5fc:	f94007e0 	ldr	x0, [sp, #8]
   8a600:	d1004000 	sub	x0, x0, #0x10
   8a604:	f9000fe0 	str	x0, [sp, #24]
   8a608:	f94007e0 	ldr	x0, [sp, #8]
   8a60c:	f100001f 	cmp	x0, #0x0
   8a610:	54000061 	b.ne	8a61c <CEcoVBIOS1Video_AF252188_SelectActiveDisplayPage+0x2c>  // b.any
   8a614:	12800220 	mov	w0, #0xffffffee            	// #-18
   8a618:	14000002 	b	8a620 <CEcoVBIOS1Video_AF252188_SelectActiveDisplayPage+0x30>
   8a61c:	52800000 	mov	w0, #0x0                   	// #0
   8a620:	910083ff 	add	sp, sp, #0x20
   8a624:	d65f03c0 	ret

000000000008a628 <CEcoVBIOS1Video_AF252188_ScrollActivePageUp>:
   8a628:	d10083ff 	sub	sp, sp, #0x20
   8a62c:	f90007e0 	str	x0, [sp, #8]
   8a630:	39001fe1 	strb	w1, [sp, #7]
   8a634:	39001be2 	strb	w2, [sp, #6]
   8a638:	390017e3 	strb	w3, [sp, #5]
   8a63c:	390013e4 	strb	w4, [sp, #4]
   8a640:	39000fe5 	strb	w5, [sp, #3]
   8a644:	39000be6 	strb	w6, [sp, #2]
   8a648:	f94007e0 	ldr	x0, [sp, #8]
   8a64c:	d1004000 	sub	x0, x0, #0x10
   8a650:	f9000fe0 	str	x0, [sp, #24]
   8a654:	f94007e0 	ldr	x0, [sp, #8]
   8a658:	f100001f 	cmp	x0, #0x0
   8a65c:	54000061 	b.ne	8a668 <CEcoVBIOS1Video_AF252188_ScrollActivePageUp+0x40>  // b.any
   8a660:	12800220 	mov	w0, #0xffffffee            	// #-18
   8a664:	14000002 	b	8a66c <CEcoVBIOS1Video_AF252188_ScrollActivePageUp+0x44>
   8a668:	52800000 	mov	w0, #0x0                   	// #0
   8a66c:	910083ff 	add	sp, sp, #0x20
   8a670:	d65f03c0 	ret

000000000008a674 <CEcoVBIOS1Video_AF252188_ScrollActivePageDown>:
   8a674:	d10083ff 	sub	sp, sp, #0x20
   8a678:	f90007e0 	str	x0, [sp, #8]
   8a67c:	39001fe1 	strb	w1, [sp, #7]
   8a680:	39001be2 	strb	w2, [sp, #6]
   8a684:	390017e3 	strb	w3, [sp, #5]
   8a688:	390013e4 	strb	w4, [sp, #4]
   8a68c:	39000fe5 	strb	w5, [sp, #3]
   8a690:	39000be6 	strb	w6, [sp, #2]
   8a694:	f94007e0 	ldr	x0, [sp, #8]
   8a698:	d1004000 	sub	x0, x0, #0x10
   8a69c:	f9000fe0 	str	x0, [sp, #24]
   8a6a0:	f94007e0 	ldr	x0, [sp, #8]
   8a6a4:	f100001f 	cmp	x0, #0x0
   8a6a8:	54000061 	b.ne	8a6b4 <CEcoVBIOS1Video_AF252188_ScrollActivePageDown+0x40>  // b.any
   8a6ac:	12800220 	mov	w0, #0xffffffee            	// #-18
   8a6b0:	14000002 	b	8a6b8 <CEcoVBIOS1Video_AF252188_ScrollActivePageDown+0x44>
   8a6b4:	52800000 	mov	w0, #0x0                   	// #0
   8a6b8:	910083ff 	add	sp, sp, #0x20
   8a6bc:	d65f03c0 	ret

000000000008a6c0 <CEcoVBIOS1Video_AF252188_ReadCharAtCursorPos>:
   8a6c0:	d100c3ff 	sub	sp, sp, #0x30
   8a6c4:	f9000fe0 	str	x0, [sp, #24]
   8a6c8:	39005fe1 	strb	w1, [sp, #23]
   8a6cc:	f90007e2 	str	x2, [sp, #8]
   8a6d0:	f90003e3 	str	x3, [sp]
   8a6d4:	f9400fe0 	ldr	x0, [sp, #24]
   8a6d8:	d1004000 	sub	x0, x0, #0x10
   8a6dc:	f90017e0 	str	x0, [sp, #40]
   8a6e0:	f9400fe0 	ldr	x0, [sp, #24]
   8a6e4:	f100001f 	cmp	x0, #0x0
   8a6e8:	54000061 	b.ne	8a6f4 <CEcoVBIOS1Video_AF252188_ReadCharAtCursorPos+0x34>  // b.any
   8a6ec:	12800220 	mov	w0, #0xffffffee            	// #-18
   8a6f0:	14000002 	b	8a6f8 <CEcoVBIOS1Video_AF252188_ReadCharAtCursorPos+0x38>
   8a6f4:	52800000 	mov	w0, #0x0                   	// #0
   8a6f8:	9100c3ff 	add	sp, sp, #0x30
   8a6fc:	d65f03c0 	ret

000000000008a700 <CEcoVBIOS1Video_AF252188_WriteCharWithAttrAtCursorPos>:
   8a700:	d10103ff 	sub	sp, sp, #0x40
   8a704:	f90007e0 	str	x0, [sp, #8]
   8a708:	39001fe1 	strb	w1, [sp, #7]
   8a70c:	39001be2 	strb	w2, [sp, #6]
   8a710:	390017e3 	strb	w3, [sp, #5]
   8a714:	790007e4 	strh	w4, [sp, #2]
   8a718:	f94007e0 	ldr	x0, [sp, #8]
   8a71c:	d1004000 	sub	x0, x0, #0x10
   8a720:	f90013e0 	str	x0, [sp, #32]
   8a724:	f9001fff 	str	xzr, [sp, #56]
   8a728:	79003fff 	strh	wzr, [sp, #30]
   8a72c:	b90037ff 	str	wzr, [sp, #52]
   8a730:	b90033ff 	str	wzr, [sp, #48]
   8a734:	79005fff 	strh	wzr, [sp, #46]
   8a738:	79003bff 	strh	wzr, [sp, #28]
   8a73c:	790037ff 	strh	wzr, [sp, #26]
   8a740:	52800100 	mov	w0, #0x8                   	// #8
   8a744:	790033e0 	strh	w0, [sp, #24]
   8a748:	52800200 	mov	w0, #0x10                  	// #16
   8a74c:	79002fe0 	strh	w0, [sp, #22]
   8a750:	39401be0 	ldrb	w0, [sp, #6]
   8a754:	12000c01 	and	w1, w0, #0xf
   8a758:	f0000020 	adrp	x0, 91000 <g_xF10BC39A4F2143CF8A1E104650A2C302Factory+0x58>
   8a75c:	91070000 	add	x0, x0, #0x1c0
   8a760:	93407c21 	sxtw	x1, w1
   8a764:	78617800 	ldrh	w0, [x0, x1, lsl #1]
   8a768:	79002be0 	strh	w0, [sp, #20]
   8a76c:	39401be0 	ldrb	w0, [sp, #6]
   8a770:	53047c00 	lsr	w0, w0, #4
   8a774:	12001c00 	and	w0, w0, #0xff
   8a778:	2a0003e1 	mov	w1, w0
   8a77c:	f0000020 	adrp	x0, 91000 <g_xF10BC39A4F2143CF8A1E104650A2C302Factory+0x58>
   8a780:	91070000 	add	x0, x0, #0x1c0
   8a784:	93407c21 	sxtw	x1, w1
   8a788:	78617800 	ldrh	w0, [x0, x1, lsl #1]
   8a78c:	790027e0 	strh	w0, [sp, #18]
   8a790:	f94007e0 	ldr	x0, [sp, #8]
   8a794:	f100001f 	cmp	x0, #0x0
   8a798:	54000061 	b.ne	8a7a4 <CEcoVBIOS1Video_AF252188_WriteCharWithAttrAtCursorPos+0xa4>  // b.any
   8a79c:	12800220 	mov	w0, #0xffffffee            	// #-18
   8a7a0:	14000071 	b	8a964 <CEcoVBIOS1Video_AF252188_WriteCharWithAttrAtCursorPos+0x264>
   8a7a4:	f94013e0 	ldr	x0, [sp, #32]
   8a7a8:	f9403401 	ldr	x1, [x0, #104]
   8a7ac:	f94013e0 	ldr	x0, [sp, #32]
   8a7b0:	b9407c02 	ldr	w2, [x0, #124]
   8a7b4:	79402fe0 	ldrh	w0, [sp, #22]
   8a7b8:	1b007c42 	mul	w2, w2, w0
   8a7bc:	f94013e0 	ldr	x0, [sp, #32]
   8a7c0:	b9406000 	ldr	w0, [x0, #96]
   8a7c4:	1b007c40 	mul	w0, w2, w0
   8a7c8:	0b000000 	add	w0, w0, w0
   8a7cc:	2a0003e2 	mov	w2, w0
   8a7d0:	f94013e0 	ldr	x0, [sp, #32]
   8a7d4:	b9407803 	ldr	w3, [x0, #120]
   8a7d8:	794033e0 	ldrh	w0, [sp, #24]
   8a7dc:	1b007c60 	mul	w0, w3, w0
   8a7e0:	0b000000 	add	w0, w0, w0
   8a7e4:	2a0003e0 	mov	w0, w0
   8a7e8:	8b000040 	add	x0, x2, x0
   8a7ec:	8b000020 	add	x0, x1, x0
   8a7f0:	f9001fe0 	str	x0, [sp, #56]
   8a7f4:	b90037ff 	str	wzr, [sp, #52]
   8a7f8:	14000037 	b	8a8d4 <CEcoVBIOS1Video_AF252188_WriteCharWithAttrAtCursorPos+0x1d4>
   8a7fc:	394017e0 	ldrb	w0, [sp, #5]
   8a800:	531e7400 	lsl	w0, w0, #2
   8a804:	2a0003e1 	mov	w1, w0
   8a808:	b94037e0 	ldr	w0, [sp, #52]
   8a80c:	0b000021 	add	w1, w1, w0
   8a810:	b0000420 	adrp	x0, 10f000 <EcoVirtualMemory1Lab_623E1838_MemoryMap+0x7d610>
   8a814:	913bc000 	add	x0, x0, #0xef0
   8a818:	2a0103e1 	mov	w1, w1
   8a81c:	b8617800 	ldr	w0, [x0, x1, lsl #2]
   8a820:	b90033e0 	str	w0, [sp, #48]
   8a824:	79005fff 	strh	wzr, [sp, #46]
   8a828:	14000025 	b	8a8bc <CEcoVBIOS1Video_AF252188_WriteCharWithAttrAtCursorPos+0x1bc>
   8a82c:	79405fe0 	ldrh	w0, [sp, #46]
   8a830:	12000800 	and	w0, w0, #0x7
   8a834:	79003be0 	strh	w0, [sp, #28]
   8a838:	b94033e0 	ldr	w0, [sp, #48]
   8a83c:	7100001f 	cmp	w0, #0x0
   8a840:	5400006a 	b.ge	8a84c <CEcoVBIOS1Video_AF252188_WriteCharWithAttrAtCursorPos+0x14c>  // b.tcont
   8a844:	79402be0 	ldrh	w0, [sp, #20]
   8a848:	14000002 	b	8a850 <CEcoVBIOS1Video_AF252188_WriteCharWithAttrAtCursorPos+0x150>
   8a84c:	794027e0 	ldrh	w0, [sp, #18]
   8a850:	79003fe0 	strh	w0, [sp, #30]
   8a854:	79403be0 	ldrh	w0, [sp, #28]
   8a858:	8b000000 	add	x0, x0, x0
   8a85c:	aa0003e1 	mov	x1, x0
   8a860:	f9401fe0 	ldr	x0, [sp, #56]
   8a864:	8b010000 	add	x0, x0, x1
   8a868:	79403fe1 	ldrh	w1, [sp, #30]
   8a86c:	79000001 	strh	w1, [x0]
   8a870:	d5033f9f 	dsb	sy
   8a874:	d5033fdf 	isb
   8a878:	b94033e0 	ldr	w0, [sp, #48]
   8a87c:	0b000000 	add	w0, w0, w0
   8a880:	b90033e0 	str	w0, [sp, #48]
   8a884:	79403be0 	ldrh	w0, [sp, #28]
   8a888:	71001c1f 	cmp	w0, #0x7
   8a88c:	54000121 	b.ne	8a8b0 <CEcoVBIOS1Video_AF252188_WriteCharWithAttrAtCursorPos+0x1b0>  // b.any
   8a890:	f94013e0 	ldr	x0, [sp, #32]
   8a894:	b9406000 	ldr	w0, [x0, #96]
   8a898:	2a0003e0 	mov	w0, w0
   8a89c:	8b000000 	add	x0, x0, x0
   8a8a0:	aa0003e1 	mov	x1, x0
   8a8a4:	f9401fe0 	ldr	x0, [sp, #56]
   8a8a8:	8b010000 	add	x0, x0, x1
   8a8ac:	f9001fe0 	str	x0, [sp, #56]
   8a8b0:	79405fe0 	ldrh	w0, [sp, #46]
   8a8b4:	11000400 	add	w0, w0, #0x1
   8a8b8:	79005fe0 	strh	w0, [sp, #46]
   8a8bc:	79405fe0 	ldrh	w0, [sp, #46]
   8a8c0:	71007c1f 	cmp	w0, #0x1f
   8a8c4:	54fffb49 	b.ls	8a82c <CEcoVBIOS1Video_AF252188_WriteCharWithAttrAtCursorPos+0x12c>  // b.plast
   8a8c8:	b94037e0 	ldr	w0, [sp, #52]
   8a8cc:	11000400 	add	w0, w0, #0x1
   8a8d0:	b90037e0 	str	w0, [sp, #52]
   8a8d4:	b94037e0 	ldr	w0, [sp, #52]
   8a8d8:	71000c1f 	cmp	w0, #0x3
   8a8dc:	54fff909 	b.ls	8a7fc <CEcoVBIOS1Video_AF252188_WriteCharWithAttrAtCursorPos+0xfc>  // b.plast
   8a8e0:	f94013e0 	ldr	x0, [sp, #32]
   8a8e4:	b9407800 	ldr	w0, [x0, #120]
   8a8e8:	11000401 	add	w1, w0, #0x1
   8a8ec:	f94013e0 	ldr	x0, [sp, #32]
   8a8f0:	b9007801 	str	w1, [x0, #120]
   8a8f4:	f94013e0 	ldr	x0, [sp, #32]
   8a8f8:	b9407800 	ldr	w0, [x0, #120]
   8a8fc:	11000401 	add	w1, w0, #0x1
   8a900:	794033e0 	ldrh	w0, [sp, #24]
   8a904:	1b007c21 	mul	w1, w1, w0
   8a908:	f94013e0 	ldr	x0, [sp, #32]
   8a90c:	b9405400 	ldr	w0, [x0, #84]
   8a910:	6b00003f 	cmp	w1, w0
   8a914:	54000109 	b.ls	8a934 <CEcoVBIOS1Video_AF252188_WriteCharWithAttrAtCursorPos+0x234>  // b.plast
   8a918:	f94013e0 	ldr	x0, [sp, #32]
   8a91c:	b900781f 	str	wzr, [x0, #120]
   8a920:	f94013e0 	ldr	x0, [sp, #32]
   8a924:	b9407c00 	ldr	w0, [x0, #124]
   8a928:	11000401 	add	w1, w0, #0x1
   8a92c:	f94013e0 	ldr	x0, [sp, #32]
   8a930:	b9007c01 	str	w1, [x0, #124]
   8a934:	f94013e0 	ldr	x0, [sp, #32]
   8a938:	b9407c00 	ldr	w0, [x0, #124]
   8a93c:	11000401 	add	w1, w0, #0x1
   8a940:	79402fe0 	ldrh	w0, [sp, #22]
   8a944:	1b007c21 	mul	w1, w1, w0
   8a948:	f94013e0 	ldr	x0, [sp, #32]
   8a94c:	b9405800 	ldr	w0, [x0, #88]
   8a950:	6b00003f 	cmp	w1, w0
   8a954:	54000069 	b.ls	8a960 <CEcoVBIOS1Video_AF252188_WriteCharWithAttrAtCursorPos+0x260>  // b.plast
   8a958:	f94013e0 	ldr	x0, [sp, #32]
   8a95c:	b9007c1f 	str	wzr, [x0, #124]
   8a960:	52800000 	mov	w0, #0x0                   	// #0
   8a964:	910103ff 	add	sp, sp, #0x40
   8a968:	d65f03c0 	ret

000000000008a96c <CEcoVBIOS1Video_AF252188_WriteCharAtCursorPos>:
   8a96c:	d10083ff 	sub	sp, sp, #0x20
   8a970:	f90007e0 	str	x0, [sp, #8]
   8a974:	39001fe1 	strb	w1, [sp, #7]
   8a978:	39001be2 	strb	w2, [sp, #6]
   8a97c:	79000be3 	strh	w3, [sp, #4]
   8a980:	f94007e0 	ldr	x0, [sp, #8]
   8a984:	d1004000 	sub	x0, x0, #0x10
   8a988:	f9000fe0 	str	x0, [sp, #24]
   8a98c:	f94007e0 	ldr	x0, [sp, #8]
   8a990:	f100001f 	cmp	x0, #0x0
   8a994:	54000061 	b.ne	8a9a0 <CEcoVBIOS1Video_AF252188_WriteCharAtCursorPos+0x34>  // b.any
   8a998:	12800220 	mov	w0, #0xffffffee            	// #-18
   8a99c:	14000002 	b	8a9a4 <CEcoVBIOS1Video_AF252188_WriteCharAtCursorPos+0x38>
   8a9a0:	52800000 	mov	w0, #0x0                   	// #0
   8a9a4:	910083ff 	add	sp, sp, #0x20
   8a9a8:	d65f03c0 	ret

000000000008a9ac <CEcoVBIOS1Video_AF252188_SetColorPalette>:
   8a9ac:	d10083ff 	sub	sp, sp, #0x20
   8a9b0:	f90007e0 	str	x0, [sp, #8]
   8a9b4:	39001fe1 	strb	w1, [sp, #7]
   8a9b8:	39001be2 	strb	w2, [sp, #6]
   8a9bc:	f94007e0 	ldr	x0, [sp, #8]
   8a9c0:	d1004000 	sub	x0, x0, #0x10
   8a9c4:	f9000fe0 	str	x0, [sp, #24]
   8a9c8:	f94007e0 	ldr	x0, [sp, #8]
   8a9cc:	f100001f 	cmp	x0, #0x0
   8a9d0:	54000061 	b.ne	8a9dc <CEcoVBIOS1Video_AF252188_SetColorPalette+0x30>  // b.any
   8a9d4:	12800220 	mov	w0, #0xffffffee            	// #-18
   8a9d8:	14000002 	b	8a9e0 <CEcoVBIOS1Video_AF252188_SetColorPalette+0x34>
   8a9dc:	52800000 	mov	w0, #0x0                   	// #0
   8a9e0:	910083ff 	add	sp, sp, #0x20
   8a9e4:	d65f03c0 	ret

000000000008a9e8 <CEcoVBIOS1Video_AF252188_WriteDot>:
   8a9e8:	d10083ff 	sub	sp, sp, #0x20
   8a9ec:	f90007e0 	str	x0, [sp, #8]
   8a9f0:	39001fe1 	strb	w1, [sp, #7]
   8a9f4:	39001be2 	strb	w2, [sp, #6]
   8a9f8:	79000be3 	strh	w3, [sp, #4]
   8a9fc:	790007e4 	strh	w4, [sp, #2]
   8aa00:	f94007e0 	ldr	x0, [sp, #8]
   8aa04:	d1004000 	sub	x0, x0, #0x10
   8aa08:	f9000fe0 	str	x0, [sp, #24]
   8aa0c:	f94007e0 	ldr	x0, [sp, #8]
   8aa10:	f100001f 	cmp	x0, #0x0
   8aa14:	54000061 	b.ne	8aa20 <CEcoVBIOS1Video_AF252188_WriteDot+0x38>  // b.any
   8aa18:	12800220 	mov	w0, #0xffffffee            	// #-18
   8aa1c:	14000002 	b	8aa24 <CEcoVBIOS1Video_AF252188_WriteDot+0x3c>
   8aa20:	52800000 	mov	w0, #0x0                   	// #0
   8aa24:	910083ff 	add	sp, sp, #0x20
   8aa28:	d65f03c0 	ret

000000000008aa2c <CEcoVBIOS1Video_AF252188_ReadDot>:
   8aa2c:	d10103ff 	sub	sp, sp, #0x40
   8aa30:	f90017e0 	str	x0, [sp, #40]
   8aa34:	f90013e1 	str	x1, [sp, #32]
   8aa38:	f9000fe2 	str	x2, [sp, #24]
   8aa3c:	f9000be3 	str	x3, [sp, #16]
   8aa40:	f90007e4 	str	x4, [sp, #8]
   8aa44:	f94017e0 	ldr	x0, [sp, #40]
   8aa48:	d1004000 	sub	x0, x0, #0x10
   8aa4c:	f9001fe0 	str	x0, [sp, #56]
   8aa50:	f94017e0 	ldr	x0, [sp, #40]
   8aa54:	f100001f 	cmp	x0, #0x0
   8aa58:	54000061 	b.ne	8aa64 <CEcoVBIOS1Video_AF252188_ReadDot+0x38>  // b.any
   8aa5c:	12800220 	mov	w0, #0xffffffee            	// #-18
   8aa60:	14000002 	b	8aa68 <CEcoVBIOS1Video_AF252188_ReadDot+0x3c>
   8aa64:	52800000 	mov	w0, #0x0                   	// #0
   8aa68:	910103ff 	add	sp, sp, #0x40
   8aa6c:	d65f03c0 	ret

000000000008aa70 <CEcoVBIOS1Video_AF252188_WriteTeletype>:
   8aa70:	d10083ff 	sub	sp, sp, #0x20
   8aa74:	f90007e0 	str	x0, [sp, #8]
   8aa78:	39001fe1 	strb	w1, [sp, #7]
   8aa7c:	39001be2 	strb	w2, [sp, #6]
   8aa80:	f94007e0 	ldr	x0, [sp, #8]
   8aa84:	d1004000 	sub	x0, x0, #0x10
   8aa88:	f9000fe0 	str	x0, [sp, #24]
   8aa8c:	f94007e0 	ldr	x0, [sp, #8]
   8aa90:	f100001f 	cmp	x0, #0x0
   8aa94:	54000061 	b.ne	8aaa0 <CEcoVBIOS1Video_AF252188_WriteTeletype+0x30>  // b.any
   8aa98:	12800220 	mov	w0, #0xffffffee            	// #-18
   8aa9c:	14000002 	b	8aaa4 <CEcoVBIOS1Video_AF252188_WriteTeletype+0x34>
   8aaa0:	52800000 	mov	w0, #0x0                   	// #0
   8aaa4:	910083ff 	add	sp, sp, #0x20
   8aaa8:	d65f03c0 	ret

000000000008aaac <CEcoVBIOS1Video_AF252188_ReadCurrentVideoState>:
   8aaac:	d100c3ff 	sub	sp, sp, #0x30
   8aab0:	f9000fe0 	str	x0, [sp, #24]
   8aab4:	f9000be1 	str	x1, [sp, #16]
   8aab8:	f90007e2 	str	x2, [sp, #8]
   8aabc:	f90003e3 	str	x3, [sp]
   8aac0:	f9400fe0 	ldr	x0, [sp, #24]
   8aac4:	d1004000 	sub	x0, x0, #0x10
   8aac8:	f90017e0 	str	x0, [sp, #40]
   8aacc:	f9400fe0 	ldr	x0, [sp, #24]
   8aad0:	f100001f 	cmp	x0, #0x0
   8aad4:	54000061 	b.ne	8aae0 <CEcoVBIOS1Video_AF252188_ReadCurrentVideoState+0x34>  // b.any
   8aad8:	12800220 	mov	w0, #0xffffffee            	// #-18
   8aadc:	14000002 	b	8aae4 <CEcoVBIOS1Video_AF252188_ReadCurrentVideoState+0x38>
   8aae0:	52800000 	mov	w0, #0x0                   	// #0
   8aae4:	9100c3ff 	add	sp, sp, #0x30
   8aae8:	d65f03c0 	ret

000000000008aaec <CEcoVBIOS1Video_AF252188_SetPaletteRegisters>:
   8aaec:	d100c3ff 	sub	sp, sp, #0x30
   8aaf0:	f9000fe0 	str	x0, [sp, #24]
   8aaf4:	39005fe1 	strb	w1, [sp, #23]
   8aaf8:	39005be2 	strb	w2, [sp, #22]
   8aafc:	390057e3 	strb	w3, [sp, #21]
   8ab00:	f90007e4 	str	x4, [sp, #8]
   8ab04:	f9400fe0 	ldr	x0, [sp, #24]
   8ab08:	d1004000 	sub	x0, x0, #0x10
   8ab0c:	f90017e0 	str	x0, [sp, #40]
   8ab10:	f9400fe0 	ldr	x0, [sp, #24]
   8ab14:	f100001f 	cmp	x0, #0x0
   8ab18:	54000061 	b.ne	8ab24 <CEcoVBIOS1Video_AF252188_SetPaletteRegisters+0x38>  // b.any
   8ab1c:	52800000 	mov	w0, #0x0                   	// #0
   8ab20:	14000002 	b	8ab28 <CEcoVBIOS1Video_AF252188_SetPaletteRegisters+0x3c>
   8ab24:	52800000 	mov	w0, #0x0                   	// #0
   8ab28:	9100c3ff 	add	sp, sp, #0x30
   8ab2c:	d65f03c0 	ret

000000000008ab30 <CEcoVBIOS1Video_AF252188_WriteString>:
   8ab30:	a9bb7bfd 	stp	x29, x30, [sp, #-80]!
   8ab34:	910003fd 	mov	x29, sp
   8ab38:	f90017e0 	str	x0, [sp, #40]
   8ab3c:	39009fe1 	strb	w1, [sp, #39]
   8ab40:	39009be2 	strb	w2, [sp, #38]
   8ab44:	390097e3 	strb	w3, [sp, #37]
   8ab48:	390093e4 	strb	w4, [sp, #36]
   8ab4c:	39008fe5 	strb	w5, [sp, #35]
   8ab50:	f9000fe6 	str	x6, [sp, #24]
   8ab54:	790043e7 	strh	w7, [sp, #32]
   8ab58:	f94017e0 	ldr	x0, [sp, #40]
   8ab5c:	d1004000 	sub	x0, x0, #0x10
   8ab60:	f90023e0 	str	x0, [sp, #64]
   8ab64:	12800000 	mov	w0, #0xffffffff            	// #-1
   8ab68:	3900ffe0 	strb	w0, [sp, #63]
   8ab6c:	b9004fff 	str	wzr, [sp, #76]
   8ab70:	f94017e0 	ldr	x0, [sp, #40]
   8ab74:	f100001f 	cmp	x0, #0x0
   8ab78:	540000e0 	b.eq	8ab94 <CEcoVBIOS1Video_AF252188_WriteString+0x64>  // b.none
   8ab7c:	794043e0 	ldrh	w0, [sp, #32]
   8ab80:	7100001f 	cmp	w0, #0x0
   8ab84:	54000080 	b.eq	8ab94 <CEcoVBIOS1Video_AF252188_WriteString+0x64>  // b.none
   8ab88:	f9400fe0 	ldr	x0, [sp, #24]
   8ab8c:	f100001f 	cmp	x0, #0x0
   8ab90:	54000061 	b.ne	8ab9c <CEcoVBIOS1Video_AF252188_WriteString+0x6c>  // b.any
   8ab94:	12800220 	mov	w0, #0xffffffee            	// #-18
   8ab98:	1400002a 	b	8ac40 <CEcoVBIOS1Video_AF252188_WriteString+0x110>
   8ab9c:	f94017e0 	ldr	x0, [sp, #40]
   8aba0:	f9400000 	ldr	x0, [x0]
   8aba4:	f9401404 	ldr	x4, [x0, #40]
   8aba8:	394093e3 	ldrb	w3, [sp, #36]
   8abac:	394097e2 	ldrb	w2, [sp, #37]
   8abb0:	39409be1 	ldrb	w1, [sp, #38]
   8abb4:	f94017e0 	ldr	x0, [sp, #40]
   8abb8:	d63f0080 	blr	x4
   8abbc:	f94023e0 	ldr	x0, [sp, #64]
   8abc0:	3901d01f 	strb	wzr, [x0, #116]
   8abc4:	b9004fff 	str	wzr, [sp, #76]
   8abc8:	14000019 	b	8ac2c <CEcoVBIOS1Video_AF252188_WriteString+0xfc>
   8abcc:	b9404fe0 	ldr	w0, [sp, #76]
   8abd0:	11000401 	add	w1, w0, #0x1
   8abd4:	794043e0 	ldrh	w0, [sp, #32]
   8abd8:	6b00003f 	cmp	w1, w0
   8abdc:	54000081 	b.ne	8abec <CEcoVBIOS1Video_AF252188_WriteString+0xbc>  // b.any
   8abe0:	f94023e0 	ldr	x0, [sp, #64]
   8abe4:	52800021 	mov	w1, #0x1                   	// #1
   8abe8:	3901d001 	strb	w1, [x0, #116]
   8abec:	f94017e0 	ldr	x0, [sp, #40]
   8abf0:	f9400000 	ldr	x0, [x0]
   8abf4:	f9403005 	ldr	x5, [x0, #96]
   8abf8:	b9804fe0 	ldrsw	x0, [sp, #76]
   8abfc:	f9400fe1 	ldr	x1, [sp, #24]
   8ac00:	8b000020 	add	x0, x1, x0
   8ac04:	39400000 	ldrb	w0, [x0]
   8ac08:	52800024 	mov	w4, #0x1                   	// #1
   8ac0c:	2a0003e3 	mov	w3, w0
   8ac10:	39408fe2 	ldrb	w2, [sp, #35]
   8ac14:	39409be1 	ldrb	w1, [sp, #38]
   8ac18:	f94017e0 	ldr	x0, [sp, #40]
   8ac1c:	d63f00a0 	blr	x5
   8ac20:	b9404fe0 	ldr	w0, [sp, #76]
   8ac24:	11000400 	add	w0, w0, #0x1
   8ac28:	b9004fe0 	str	w0, [sp, #76]
   8ac2c:	794043e0 	ldrh	w0, [sp, #32]
   8ac30:	b9404fe1 	ldr	w1, [sp, #76]
   8ac34:	6b00003f 	cmp	w1, w0
   8ac38:	54fffcab 	b.lt	8abcc <CEcoVBIOS1Video_AF252188_WriteString+0x9c>  // b.tstop
   8ac3c:	52800000 	mov	w0, #0x0                   	// #0
   8ac40:	a8c57bfd 	ldp	x29, x30, [sp], #80
   8ac44:	d65f03c0 	ret

000000000008ac48 <CEcoVBIOS1Video_AF252188_CharacterGenerator>:
   8ac48:	d10103ff 	sub	sp, sp, #0x40
   8ac4c:	f90017e0 	str	x0, [sp, #40]
   8ac50:	39009fe1 	strb	w1, [sp, #39]
   8ac54:	39009be2 	strb	w2, [sp, #38]
   8ac58:	79004be3 	strh	w3, [sp, #36]
   8ac5c:	f9000fe4 	str	x4, [sp, #24]
   8ac60:	f9000be5 	str	x5, [sp, #16]
   8ac64:	f90007e6 	str	x6, [sp, #8]
   8ac68:	f94017e0 	ldr	x0, [sp, #40]
   8ac6c:	d1004000 	sub	x0, x0, #0x10
   8ac70:	f9001fe0 	str	x0, [sp, #56]
   8ac74:	f94017e0 	ldr	x0, [sp, #40]
   8ac78:	f100001f 	cmp	x0, #0x0
   8ac7c:	54000061 	b.ne	8ac88 <CEcoVBIOS1Video_AF252188_CharacterGenerator+0x40>  // b.any
   8ac80:	12800220 	mov	w0, #0xffffffee            	// #-18
   8ac84:	14000002 	b	8ac8c <CEcoVBIOS1Video_AF252188_CharacterGenerator+0x44>
   8ac88:	52800000 	mov	w0, #0x0                   	// #0
   8ac8c:	910103ff 	add	sp, sp, #0x40
   8ac90:	d65f03c0 	ret

000000000008ac94 <CEcoVBIOS1Video_AF252188_AlternateSelect>:
   8ac94:	d10083ff 	sub	sp, sp, #0x20
   8ac98:	f90007e0 	str	x0, [sp, #8]
   8ac9c:	39001fe1 	strb	w1, [sp, #7]
   8aca0:	39001be2 	strb	w2, [sp, #6]
   8aca4:	f94007e0 	ldr	x0, [sp, #8]
   8aca8:	d1004000 	sub	x0, x0, #0x10
   8acac:	f9000fe0 	str	x0, [sp, #24]
   8acb0:	f94007e0 	ldr	x0, [sp, #8]
   8acb4:	f100001f 	cmp	x0, #0x0
   8acb8:	54000061 	b.ne	8acc4 <CEcoVBIOS1Video_AF252188_AlternateSelect+0x30>  // b.any
   8acbc:	12800220 	mov	w0, #0xffffffee            	// #-18
   8acc0:	14000002 	b	8acc8 <CEcoVBIOS1Video_AF252188_AlternateSelect+0x34>
   8acc4:	52800000 	mov	w0, #0x0                   	// #0
   8acc8:	910083ff 	add	sp, sp, #0x20
   8accc:	d65f03c0 	ret

000000000008acd0 <CEcoVBIOS1Video_AF252188_get_Width>:
   8acd0:	d10083ff 	sub	sp, sp, #0x20
   8acd4:	f90007e0 	str	x0, [sp, #8]
   8acd8:	f94007e0 	ldr	x0, [sp, #8]
   8acdc:	d1004000 	sub	x0, x0, #0x10
   8ace0:	f9000fe0 	str	x0, [sp, #24]
   8ace4:	f94007e0 	ldr	x0, [sp, #8]
   8ace8:	f100001f 	cmp	x0, #0x0
   8acec:	54000061 	b.ne	8acf8 <CEcoVBIOS1Video_AF252188_get_Width+0x28>  // b.any
   8acf0:	52800000 	mov	w0, #0x0                   	// #0
   8acf4:	14000003 	b	8ad00 <CEcoVBIOS1Video_AF252188_get_Width+0x30>
   8acf8:	f9400fe0 	ldr	x0, [sp, #24]
   8acfc:	b9404800 	ldr	w0, [x0, #72]
   8ad00:	910083ff 	add	sp, sp, #0x20
   8ad04:	d65f03c0 	ret

000000000008ad08 <CEcoVBIOS1Video_AF252188_get_Height>:
   8ad08:	d10083ff 	sub	sp, sp, #0x20
   8ad0c:	f90007e0 	str	x0, [sp, #8]
   8ad10:	f94007e0 	ldr	x0, [sp, #8]
   8ad14:	d1004000 	sub	x0, x0, #0x10
   8ad18:	f9000fe0 	str	x0, [sp, #24]
   8ad1c:	f94007e0 	ldr	x0, [sp, #8]
   8ad20:	f100001f 	cmp	x0, #0x0
   8ad24:	54000061 	b.ne	8ad30 <CEcoVBIOS1Video_AF252188_get_Height+0x28>  // b.any
   8ad28:	52800000 	mov	w0, #0x0                   	// #0
   8ad2c:	14000003 	b	8ad38 <CEcoVBIOS1Video_AF252188_get_Height+0x30>
   8ad30:	f9400fe0 	ldr	x0, [sp, #24]
   8ad34:	b9404c00 	ldr	w0, [x0, #76]
   8ad38:	910083ff 	add	sp, sp, #0x20
   8ad3c:	d65f03c0 	ret

000000000008ad40 <CEcoVBIOS1Video_AF252188_ReturnPhysicalDisplayParam>:
   8ad40:	d100c3ff 	sub	sp, sp, #0x30
   8ad44:	f9000fe0 	str	x0, [sp, #24]
   8ad48:	f9000be1 	str	x1, [sp, #16]
   8ad4c:	f90007e2 	str	x2, [sp, #8]
   8ad50:	f9400fe0 	ldr	x0, [sp, #24]
   8ad54:	d1004000 	sub	x0, x0, #0x10
   8ad58:	f90017e0 	str	x0, [sp, #40]
   8ad5c:	f9400fe0 	ldr	x0, [sp, #24]
   8ad60:	f100001f 	cmp	x0, #0x0
   8ad64:	54000061 	b.ne	8ad70 <CEcoVBIOS1Video_AF252188_ReturnPhysicalDisplayParam+0x30>  // b.any
   8ad68:	52800000 	mov	w0, #0x0                   	// #0
   8ad6c:	14000002 	b	8ad74 <CEcoVBIOS1Video_AF252188_ReturnPhysicalDisplayParam+0x34>
   8ad70:	52800000 	mov	w0, #0x0                   	// #0
   8ad74:	9100c3ff 	add	sp, sp, #0x30
   8ad78:	d65f03c0 	ret

000000000008ad7c <CEcoVFB1BCM283x_AF252188_QueryInterface>:
   8ad7c:	a9bc7bfd 	stp	x29, x30, [sp, #-64]!
   8ad80:	910003fd 	mov	x29, sp
   8ad84:	f90017e0 	str	x0, [sp, #40]
   8ad88:	f90013e1 	str	x1, [sp, #32]
   8ad8c:	f9000fe2 	str	x2, [sp, #24]
   8ad90:	f94017e0 	ldr	x0, [sp, #40]
   8ad94:	d1006000 	sub	x0, x0, #0x18
   8ad98:	f9001fe0 	str	x0, [sp, #56]
   8ad9c:	f94017e0 	ldr	x0, [sp, #40]
   8ada0:	f100001f 	cmp	x0, #0x0
   8ada4:	54000080 	b.eq	8adb4 <CEcoVFB1BCM283x_AF252188_QueryInterface+0x38>  // b.none
   8ada8:	f9400fe0 	ldr	x0, [sp, #24]
   8adac:	f100001f 	cmp	x0, #0x0
   8adb0:	54000061 	b.ne	8adbc <CEcoVFB1BCM283x_AF252188_QueryInterface+0x40>  // b.any
   8adb4:	12800220 	mov	w0, #0xffffffee            	// #-18
   8adb8:	14000301 	b	8b9bc <CEcoVFB1BCM283x_AF252188_QueryInterface+0xc40>
   8adbc:	f94013e0 	ldr	x0, [sp, #32]
   8adc0:	39400001 	ldrb	w1, [x0]
   8adc4:	b0000420 	adrp	x0, 10f000 <EcoVirtualMemory1Lab_623E1838_MemoryMap+0x7d610>
   8adc8:	91392000 	add	x0, x0, #0xe48
   8adcc:	39400000 	ldrb	w0, [x0]
   8add0:	6b00003f 	cmp	w1, w0
   8add4:	54001241 	b.ne	8b01c <CEcoVFB1BCM283x_AF252188_QueryInterface+0x2a0>  // b.any
   8add8:	f94013e0 	ldr	x0, [sp, #32]
   8addc:	91000400 	add	x0, x0, #0x1
   8ade0:	39400001 	ldrb	w1, [x0]
   8ade4:	b0000420 	adrp	x0, 10f000 <EcoVirtualMemory1Lab_623E1838_MemoryMap+0x7d610>
   8ade8:	91392400 	add	x0, x0, #0xe49
   8adec:	39400000 	ldrb	w0, [x0]
   8adf0:	6b00003f 	cmp	w1, w0
   8adf4:	54001141 	b.ne	8b01c <CEcoVFB1BCM283x_AF252188_QueryInterface+0x2a0>  // b.any
   8adf8:	f94013e0 	ldr	x0, [sp, #32]
   8adfc:	91000800 	add	x0, x0, #0x2
   8ae00:	39400001 	ldrb	w1, [x0]
   8ae04:	b0000420 	adrp	x0, 10f000 <EcoVirtualMemory1Lab_623E1838_MemoryMap+0x7d610>
   8ae08:	91392800 	add	x0, x0, #0xe4a
   8ae0c:	39400000 	ldrb	w0, [x0]
   8ae10:	6b00003f 	cmp	w1, w0
   8ae14:	54001041 	b.ne	8b01c <CEcoVFB1BCM283x_AF252188_QueryInterface+0x2a0>  // b.any
   8ae18:	f94013e0 	ldr	x0, [sp, #32]
   8ae1c:	91000c00 	add	x0, x0, #0x3
   8ae20:	39400001 	ldrb	w1, [x0]
   8ae24:	b0000420 	adrp	x0, 10f000 <EcoVirtualMemory1Lab_623E1838_MemoryMap+0x7d610>
   8ae28:	91392c00 	add	x0, x0, #0xe4b
   8ae2c:	39400000 	ldrb	w0, [x0]
   8ae30:	6b00003f 	cmp	w1, w0
   8ae34:	54000f41 	b.ne	8b01c <CEcoVFB1BCM283x_AF252188_QueryInterface+0x2a0>  // b.any
   8ae38:	f94013e0 	ldr	x0, [sp, #32]
   8ae3c:	91001000 	add	x0, x0, #0x4
   8ae40:	39400001 	ldrb	w1, [x0]
   8ae44:	b0000420 	adrp	x0, 10f000 <EcoVirtualMemory1Lab_623E1838_MemoryMap+0x7d610>
   8ae48:	91393000 	add	x0, x0, #0xe4c
   8ae4c:	39400000 	ldrb	w0, [x0]
   8ae50:	6b00003f 	cmp	w1, w0
   8ae54:	54000e41 	b.ne	8b01c <CEcoVFB1BCM283x_AF252188_QueryInterface+0x2a0>  // b.any
   8ae58:	f94013e0 	ldr	x0, [sp, #32]
   8ae5c:	91001400 	add	x0, x0, #0x5
   8ae60:	39400001 	ldrb	w1, [x0]
   8ae64:	b0000420 	adrp	x0, 10f000 <EcoVirtualMemory1Lab_623E1838_MemoryMap+0x7d610>
   8ae68:	91393400 	add	x0, x0, #0xe4d
   8ae6c:	39400000 	ldrb	w0, [x0]
   8ae70:	6b00003f 	cmp	w1, w0
   8ae74:	54000d41 	b.ne	8b01c <CEcoVFB1BCM283x_AF252188_QueryInterface+0x2a0>  // b.any
   8ae78:	f94013e0 	ldr	x0, [sp, #32]
   8ae7c:	91001800 	add	x0, x0, #0x6
   8ae80:	39400001 	ldrb	w1, [x0]
   8ae84:	b0000420 	adrp	x0, 10f000 <EcoVirtualMemory1Lab_623E1838_MemoryMap+0x7d610>
   8ae88:	91393800 	add	x0, x0, #0xe4e
   8ae8c:	39400000 	ldrb	w0, [x0]
   8ae90:	6b00003f 	cmp	w1, w0
   8ae94:	54000c41 	b.ne	8b01c <CEcoVFB1BCM283x_AF252188_QueryInterface+0x2a0>  // b.any
   8ae98:	f94013e0 	ldr	x0, [sp, #32]
   8ae9c:	91001c00 	add	x0, x0, #0x7
   8aea0:	39400001 	ldrb	w1, [x0]
   8aea4:	b0000420 	adrp	x0, 10f000 <EcoVirtualMemory1Lab_623E1838_MemoryMap+0x7d610>
   8aea8:	91393c00 	add	x0, x0, #0xe4f
   8aeac:	39400000 	ldrb	w0, [x0]
   8aeb0:	6b00003f 	cmp	w1, w0
   8aeb4:	54000b41 	b.ne	8b01c <CEcoVFB1BCM283x_AF252188_QueryInterface+0x2a0>  // b.any
   8aeb8:	f94013e0 	ldr	x0, [sp, #32]
   8aebc:	91002000 	add	x0, x0, #0x8
   8aec0:	39400001 	ldrb	w1, [x0]
   8aec4:	b0000420 	adrp	x0, 10f000 <EcoVirtualMemory1Lab_623E1838_MemoryMap+0x7d610>
   8aec8:	91394000 	add	x0, x0, #0xe50
   8aecc:	39400000 	ldrb	w0, [x0]
   8aed0:	6b00003f 	cmp	w1, w0
   8aed4:	54000a41 	b.ne	8b01c <CEcoVFB1BCM283x_AF252188_QueryInterface+0x2a0>  // b.any
   8aed8:	f94013e0 	ldr	x0, [sp, #32]
   8aedc:	91002400 	add	x0, x0, #0x9
   8aee0:	39400001 	ldrb	w1, [x0]
   8aee4:	b0000420 	adrp	x0, 10f000 <EcoVirtualMemory1Lab_623E1838_MemoryMap+0x7d610>
   8aee8:	91394400 	add	x0, x0, #0xe51
   8aeec:	39400000 	ldrb	w0, [x0]
   8aef0:	6b00003f 	cmp	w1, w0
   8aef4:	54000941 	b.ne	8b01c <CEcoVFB1BCM283x_AF252188_QueryInterface+0x2a0>  // b.any
   8aef8:	f94013e0 	ldr	x0, [sp, #32]
   8aefc:	91002800 	add	x0, x0, #0xa
   8af00:	39400001 	ldrb	w1, [x0]
   8af04:	b0000420 	adrp	x0, 10f000 <EcoVirtualMemory1Lab_623E1838_MemoryMap+0x7d610>
   8af08:	91394800 	add	x0, x0, #0xe52
   8af0c:	39400000 	ldrb	w0, [x0]
   8af10:	6b00003f 	cmp	w1, w0
   8af14:	54000841 	b.ne	8b01c <CEcoVFB1BCM283x_AF252188_QueryInterface+0x2a0>  // b.any
   8af18:	f94013e0 	ldr	x0, [sp, #32]
   8af1c:	91002c00 	add	x0, x0, #0xb
   8af20:	39400001 	ldrb	w1, [x0]
   8af24:	b0000420 	adrp	x0, 10f000 <EcoVirtualMemory1Lab_623E1838_MemoryMap+0x7d610>
   8af28:	91394c00 	add	x0, x0, #0xe53
   8af2c:	39400000 	ldrb	w0, [x0]
   8af30:	6b00003f 	cmp	w1, w0
   8af34:	54000741 	b.ne	8b01c <CEcoVFB1BCM283x_AF252188_QueryInterface+0x2a0>  // b.any
   8af38:	f94013e0 	ldr	x0, [sp, #32]
   8af3c:	91003000 	add	x0, x0, #0xc
   8af40:	39400001 	ldrb	w1, [x0]
   8af44:	b0000420 	adrp	x0, 10f000 <EcoVirtualMemory1Lab_623E1838_MemoryMap+0x7d610>
   8af48:	91395000 	add	x0, x0, #0xe54
   8af4c:	39400000 	ldrb	w0, [x0]
   8af50:	6b00003f 	cmp	w1, w0
   8af54:	54000641 	b.ne	8b01c <CEcoVFB1BCM283x_AF252188_QueryInterface+0x2a0>  // b.any
   8af58:	f94013e0 	ldr	x0, [sp, #32]
   8af5c:	91003400 	add	x0, x0, #0xd
   8af60:	39400001 	ldrb	w1, [x0]
   8af64:	b0000420 	adrp	x0, 10f000 <EcoVirtualMemory1Lab_623E1838_MemoryMap+0x7d610>
   8af68:	91395400 	add	x0, x0, #0xe55
   8af6c:	39400000 	ldrb	w0, [x0]
   8af70:	6b00003f 	cmp	w1, w0
   8af74:	54000541 	b.ne	8b01c <CEcoVFB1BCM283x_AF252188_QueryInterface+0x2a0>  // b.any
   8af78:	f94013e0 	ldr	x0, [sp, #32]
   8af7c:	91003800 	add	x0, x0, #0xe
   8af80:	39400001 	ldrb	w1, [x0]
   8af84:	b0000420 	adrp	x0, 10f000 <EcoVirtualMemory1Lab_623E1838_MemoryMap+0x7d610>
   8af88:	91395800 	add	x0, x0, #0xe56
   8af8c:	39400000 	ldrb	w0, [x0]
   8af90:	6b00003f 	cmp	w1, w0
   8af94:	54000441 	b.ne	8b01c <CEcoVFB1BCM283x_AF252188_QueryInterface+0x2a0>  // b.any
   8af98:	f94013e0 	ldr	x0, [sp, #32]
   8af9c:	91003c00 	add	x0, x0, #0xf
   8afa0:	39400001 	ldrb	w1, [x0]
   8afa4:	b0000420 	adrp	x0, 10f000 <EcoVirtualMemory1Lab_623E1838_MemoryMap+0x7d610>
   8afa8:	91395c00 	add	x0, x0, #0xe57
   8afac:	39400000 	ldrb	w0, [x0]
   8afb0:	6b00003f 	cmp	w1, w0
   8afb4:	54000341 	b.ne	8b01c <CEcoVFB1BCM283x_AF252188_QueryInterface+0x2a0>  // b.any
   8afb8:	f94013e0 	ldr	x0, [sp, #32]
   8afbc:	91004000 	add	x0, x0, #0x10
   8afc0:	39400001 	ldrb	w1, [x0]
   8afc4:	b0000420 	adrp	x0, 10f000 <EcoVirtualMemory1Lab_623E1838_MemoryMap+0x7d610>
   8afc8:	91396000 	add	x0, x0, #0xe58
   8afcc:	39400000 	ldrb	w0, [x0]
   8afd0:	6b00003f 	cmp	w1, w0
   8afd4:	54000241 	b.ne	8b01c <CEcoVFB1BCM283x_AF252188_QueryInterface+0x2a0>  // b.any
   8afd8:	f94013e0 	ldr	x0, [sp, #32]
   8afdc:	91004400 	add	x0, x0, #0x11
   8afe0:	39400001 	ldrb	w1, [x0]
   8afe4:	b0000420 	adrp	x0, 10f000 <EcoVirtualMemory1Lab_623E1838_MemoryMap+0x7d610>
   8afe8:	91396400 	add	x0, x0, #0xe59
   8afec:	39400000 	ldrb	w0, [x0]
   8aff0:	6b00003f 	cmp	w1, w0
   8aff4:	54000141 	b.ne	8b01c <CEcoVFB1BCM283x_AF252188_QueryInterface+0x2a0>  // b.any
   8aff8:	f9401fe1 	ldr	x1, [sp, #56]
   8affc:	f9400fe0 	ldr	x0, [sp, #24]
   8b000:	f9000001 	str	x1, [x0]
   8b004:	f9401fe0 	ldr	x0, [sp, #56]
   8b008:	f9400000 	ldr	x0, [x0]
   8b00c:	f9400401 	ldr	x1, [x0, #8]
   8b010:	f9401fe0 	ldr	x0, [sp, #56]
   8b014:	d63f0020 	blr	x1
   8b018:	14000268 	b	8b9b8 <CEcoVFB1BCM283x_AF252188_QueryInterface+0xc3c>
   8b01c:	f94013e0 	ldr	x0, [sp, #32]
   8b020:	39400001 	ldrb	w1, [x0]
   8b024:	90000420 	adrp	x0, 10f000 <EcoVirtualMemory1Lab_623E1838_MemoryMap+0x7d610>
   8b028:	9138c000 	add	x0, x0, #0xe30
   8b02c:	39400000 	ldrb	w0, [x0]
   8b030:	6b00003f 	cmp	w1, w0
   8b034:	54001261 	b.ne	8b280 <CEcoVFB1BCM283x_AF252188_QueryInterface+0x504>  // b.any
   8b038:	f94013e0 	ldr	x0, [sp, #32]
   8b03c:	91000400 	add	x0, x0, #0x1
   8b040:	39400001 	ldrb	w1, [x0]
   8b044:	90000420 	adrp	x0, 10f000 <EcoVirtualMemory1Lab_623E1838_MemoryMap+0x7d610>
   8b048:	9138c400 	add	x0, x0, #0xe31
   8b04c:	39400000 	ldrb	w0, [x0]
   8b050:	6b00003f 	cmp	w1, w0
   8b054:	54001161 	b.ne	8b280 <CEcoVFB1BCM283x_AF252188_QueryInterface+0x504>  // b.any
   8b058:	f94013e0 	ldr	x0, [sp, #32]
   8b05c:	91000800 	add	x0, x0, #0x2
   8b060:	39400001 	ldrb	w1, [x0]
   8b064:	90000420 	adrp	x0, 10f000 <EcoVirtualMemory1Lab_623E1838_MemoryMap+0x7d610>
   8b068:	9138c800 	add	x0, x0, #0xe32
   8b06c:	39400000 	ldrb	w0, [x0]
   8b070:	6b00003f 	cmp	w1, w0
   8b074:	54001061 	b.ne	8b280 <CEcoVFB1BCM283x_AF252188_QueryInterface+0x504>  // b.any
   8b078:	f94013e0 	ldr	x0, [sp, #32]
   8b07c:	91000c00 	add	x0, x0, #0x3
   8b080:	39400001 	ldrb	w1, [x0]
   8b084:	90000420 	adrp	x0, 10f000 <EcoVirtualMemory1Lab_623E1838_MemoryMap+0x7d610>
   8b088:	9138cc00 	add	x0, x0, #0xe33
   8b08c:	39400000 	ldrb	w0, [x0]
   8b090:	6b00003f 	cmp	w1, w0
   8b094:	54000f61 	b.ne	8b280 <CEcoVFB1BCM283x_AF252188_QueryInterface+0x504>  // b.any
   8b098:	f94013e0 	ldr	x0, [sp, #32]
   8b09c:	91001000 	add	x0, x0, #0x4
   8b0a0:	39400001 	ldrb	w1, [x0]
   8b0a4:	90000420 	adrp	x0, 10f000 <EcoVirtualMemory1Lab_623E1838_MemoryMap+0x7d610>
   8b0a8:	9138d000 	add	x0, x0, #0xe34
   8b0ac:	39400000 	ldrb	w0, [x0]
   8b0b0:	6b00003f 	cmp	w1, w0
   8b0b4:	54000e61 	b.ne	8b280 <CEcoVFB1BCM283x_AF252188_QueryInterface+0x504>  // b.any
   8b0b8:	f94013e0 	ldr	x0, [sp, #32]
   8b0bc:	91001400 	add	x0, x0, #0x5
   8b0c0:	39400001 	ldrb	w1, [x0]
   8b0c4:	90000420 	adrp	x0, 10f000 <EcoVirtualMemory1Lab_623E1838_MemoryMap+0x7d610>
   8b0c8:	9138d400 	add	x0, x0, #0xe35
   8b0cc:	39400000 	ldrb	w0, [x0]
   8b0d0:	6b00003f 	cmp	w1, w0
   8b0d4:	54000d61 	b.ne	8b280 <CEcoVFB1BCM283x_AF252188_QueryInterface+0x504>  // b.any
   8b0d8:	f94013e0 	ldr	x0, [sp, #32]
   8b0dc:	91001800 	add	x0, x0, #0x6
   8b0e0:	39400001 	ldrb	w1, [x0]
   8b0e4:	90000420 	adrp	x0, 10f000 <EcoVirtualMemory1Lab_623E1838_MemoryMap+0x7d610>
   8b0e8:	9138d800 	add	x0, x0, #0xe36
   8b0ec:	39400000 	ldrb	w0, [x0]
   8b0f0:	6b00003f 	cmp	w1, w0
   8b0f4:	54000c61 	b.ne	8b280 <CEcoVFB1BCM283x_AF252188_QueryInterface+0x504>  // b.any
   8b0f8:	f94013e0 	ldr	x0, [sp, #32]
   8b0fc:	91001c00 	add	x0, x0, #0x7
   8b100:	39400001 	ldrb	w1, [x0]
   8b104:	90000420 	adrp	x0, 10f000 <EcoVirtualMemory1Lab_623E1838_MemoryMap+0x7d610>
   8b108:	9138dc00 	add	x0, x0, #0xe37
   8b10c:	39400000 	ldrb	w0, [x0]
   8b110:	6b00003f 	cmp	w1, w0
   8b114:	54000b61 	b.ne	8b280 <CEcoVFB1BCM283x_AF252188_QueryInterface+0x504>  // b.any
   8b118:	f94013e0 	ldr	x0, [sp, #32]
   8b11c:	91002000 	add	x0, x0, #0x8
   8b120:	39400001 	ldrb	w1, [x0]
   8b124:	90000420 	adrp	x0, 10f000 <EcoVirtualMemory1Lab_623E1838_MemoryMap+0x7d610>
   8b128:	9138e000 	add	x0, x0, #0xe38
   8b12c:	39400000 	ldrb	w0, [x0]
   8b130:	6b00003f 	cmp	w1, w0
   8b134:	54000a61 	b.ne	8b280 <CEcoVFB1BCM283x_AF252188_QueryInterface+0x504>  // b.any
   8b138:	f94013e0 	ldr	x0, [sp, #32]
   8b13c:	91002400 	add	x0, x0, #0x9
   8b140:	39400001 	ldrb	w1, [x0]
   8b144:	90000420 	adrp	x0, 10f000 <EcoVirtualMemory1Lab_623E1838_MemoryMap+0x7d610>
   8b148:	9138e400 	add	x0, x0, #0xe39
   8b14c:	39400000 	ldrb	w0, [x0]
   8b150:	6b00003f 	cmp	w1, w0
   8b154:	54000961 	b.ne	8b280 <CEcoVFB1BCM283x_AF252188_QueryInterface+0x504>  // b.any
   8b158:	f94013e0 	ldr	x0, [sp, #32]
   8b15c:	91002800 	add	x0, x0, #0xa
   8b160:	39400001 	ldrb	w1, [x0]
   8b164:	90000420 	adrp	x0, 10f000 <EcoVirtualMemory1Lab_623E1838_MemoryMap+0x7d610>
   8b168:	9138e800 	add	x0, x0, #0xe3a
   8b16c:	39400000 	ldrb	w0, [x0]
   8b170:	6b00003f 	cmp	w1, w0
   8b174:	54000861 	b.ne	8b280 <CEcoVFB1BCM283x_AF252188_QueryInterface+0x504>  // b.any
   8b178:	f94013e0 	ldr	x0, [sp, #32]
   8b17c:	91002c00 	add	x0, x0, #0xb
   8b180:	39400001 	ldrb	w1, [x0]
   8b184:	90000420 	adrp	x0, 10f000 <EcoVirtualMemory1Lab_623E1838_MemoryMap+0x7d610>
   8b188:	9138ec00 	add	x0, x0, #0xe3b
   8b18c:	39400000 	ldrb	w0, [x0]
   8b190:	6b00003f 	cmp	w1, w0
   8b194:	54000761 	b.ne	8b280 <CEcoVFB1BCM283x_AF252188_QueryInterface+0x504>  // b.any
   8b198:	f94013e0 	ldr	x0, [sp, #32]
   8b19c:	91003000 	add	x0, x0, #0xc
   8b1a0:	39400001 	ldrb	w1, [x0]
   8b1a4:	90000420 	adrp	x0, 10f000 <EcoVirtualMemory1Lab_623E1838_MemoryMap+0x7d610>
   8b1a8:	9138f000 	add	x0, x0, #0xe3c
   8b1ac:	39400000 	ldrb	w0, [x0]
   8b1b0:	6b00003f 	cmp	w1, w0
   8b1b4:	54000661 	b.ne	8b280 <CEcoVFB1BCM283x_AF252188_QueryInterface+0x504>  // b.any
   8b1b8:	f94013e0 	ldr	x0, [sp, #32]
   8b1bc:	91003400 	add	x0, x0, #0xd
   8b1c0:	39400001 	ldrb	w1, [x0]
   8b1c4:	90000420 	adrp	x0, 10f000 <EcoVirtualMemory1Lab_623E1838_MemoryMap+0x7d610>
   8b1c8:	9138f400 	add	x0, x0, #0xe3d
   8b1cc:	39400000 	ldrb	w0, [x0]
   8b1d0:	6b00003f 	cmp	w1, w0
   8b1d4:	54000561 	b.ne	8b280 <CEcoVFB1BCM283x_AF252188_QueryInterface+0x504>  // b.any
   8b1d8:	f94013e0 	ldr	x0, [sp, #32]
   8b1dc:	91003800 	add	x0, x0, #0xe
   8b1e0:	39400001 	ldrb	w1, [x0]
   8b1e4:	90000420 	adrp	x0, 10f000 <EcoVirtualMemory1Lab_623E1838_MemoryMap+0x7d610>
   8b1e8:	9138f800 	add	x0, x0, #0xe3e
   8b1ec:	39400000 	ldrb	w0, [x0]
   8b1f0:	6b00003f 	cmp	w1, w0
   8b1f4:	54000461 	b.ne	8b280 <CEcoVFB1BCM283x_AF252188_QueryInterface+0x504>  // b.any
   8b1f8:	f94013e0 	ldr	x0, [sp, #32]
   8b1fc:	91003c00 	add	x0, x0, #0xf
   8b200:	39400001 	ldrb	w1, [x0]
   8b204:	90000420 	adrp	x0, 10f000 <EcoVirtualMemory1Lab_623E1838_MemoryMap+0x7d610>
   8b208:	9138fc00 	add	x0, x0, #0xe3f
   8b20c:	39400000 	ldrb	w0, [x0]
   8b210:	6b00003f 	cmp	w1, w0
   8b214:	54000361 	b.ne	8b280 <CEcoVFB1BCM283x_AF252188_QueryInterface+0x504>  // b.any
   8b218:	f94013e0 	ldr	x0, [sp, #32]
   8b21c:	91004000 	add	x0, x0, #0x10
   8b220:	39400001 	ldrb	w1, [x0]
   8b224:	90000420 	adrp	x0, 10f000 <EcoVirtualMemory1Lab_623E1838_MemoryMap+0x7d610>
   8b228:	91390000 	add	x0, x0, #0xe40
   8b22c:	39400000 	ldrb	w0, [x0]
   8b230:	6b00003f 	cmp	w1, w0
   8b234:	54000261 	b.ne	8b280 <CEcoVFB1BCM283x_AF252188_QueryInterface+0x504>  // b.any
   8b238:	f94013e0 	ldr	x0, [sp, #32]
   8b23c:	91004400 	add	x0, x0, #0x11
   8b240:	39400001 	ldrb	w1, [x0]
   8b244:	90000420 	adrp	x0, 10f000 <EcoVirtualMemory1Lab_623E1838_MemoryMap+0x7d610>
   8b248:	91390400 	add	x0, x0, #0xe41
   8b24c:	39400000 	ldrb	w0, [x0]
   8b250:	6b00003f 	cmp	w1, w0
   8b254:	54000161 	b.ne	8b280 <CEcoVFB1BCM283x_AF252188_QueryInterface+0x504>  // b.any
   8b258:	f9401fe0 	ldr	x0, [sp, #56]
   8b25c:	91002001 	add	x1, x0, #0x8
   8b260:	f9400fe0 	ldr	x0, [sp, #24]
   8b264:	f9000001 	str	x1, [x0]
   8b268:	f9401fe0 	ldr	x0, [sp, #56]
   8b26c:	f9400000 	ldr	x0, [x0]
   8b270:	f9400401 	ldr	x1, [x0, #8]
   8b274:	f9401fe0 	ldr	x0, [sp, #56]
   8b278:	d63f0020 	blr	x1
   8b27c:	140001cf 	b	8b9b8 <CEcoVFB1BCM283x_AF252188_QueryInterface+0xc3c>
   8b280:	f94013e0 	ldr	x0, [sp, #32]
   8b284:	39400001 	ldrb	w1, [x0]
   8b288:	90000420 	adrp	x0, 10f000 <EcoVirtualMemory1Lab_623E1838_MemoryMap+0x7d610>
   8b28c:	91386000 	add	x0, x0, #0xe18
   8b290:	39400000 	ldrb	w0, [x0]
   8b294:	6b00003f 	cmp	w1, w0
   8b298:	54001261 	b.ne	8b4e4 <CEcoVFB1BCM283x_AF252188_QueryInterface+0x768>  // b.any
   8b29c:	f94013e0 	ldr	x0, [sp, #32]
   8b2a0:	91000400 	add	x0, x0, #0x1
   8b2a4:	39400001 	ldrb	w1, [x0]
   8b2a8:	90000420 	adrp	x0, 10f000 <EcoVirtualMemory1Lab_623E1838_MemoryMap+0x7d610>
   8b2ac:	91386400 	add	x0, x0, #0xe19
   8b2b0:	39400000 	ldrb	w0, [x0]
   8b2b4:	6b00003f 	cmp	w1, w0
   8b2b8:	54001161 	b.ne	8b4e4 <CEcoVFB1BCM283x_AF252188_QueryInterface+0x768>  // b.any
   8b2bc:	f94013e0 	ldr	x0, [sp, #32]
   8b2c0:	91000800 	add	x0, x0, #0x2
   8b2c4:	39400001 	ldrb	w1, [x0]
   8b2c8:	90000420 	adrp	x0, 10f000 <EcoVirtualMemory1Lab_623E1838_MemoryMap+0x7d610>
   8b2cc:	91386800 	add	x0, x0, #0xe1a
   8b2d0:	39400000 	ldrb	w0, [x0]
   8b2d4:	6b00003f 	cmp	w1, w0
   8b2d8:	54001061 	b.ne	8b4e4 <CEcoVFB1BCM283x_AF252188_QueryInterface+0x768>  // b.any
   8b2dc:	f94013e0 	ldr	x0, [sp, #32]
   8b2e0:	91000c00 	add	x0, x0, #0x3
   8b2e4:	39400001 	ldrb	w1, [x0]
   8b2e8:	90000420 	adrp	x0, 10f000 <EcoVirtualMemory1Lab_623E1838_MemoryMap+0x7d610>
   8b2ec:	91386c00 	add	x0, x0, #0xe1b
   8b2f0:	39400000 	ldrb	w0, [x0]
   8b2f4:	6b00003f 	cmp	w1, w0
   8b2f8:	54000f61 	b.ne	8b4e4 <CEcoVFB1BCM283x_AF252188_QueryInterface+0x768>  // b.any
   8b2fc:	f94013e0 	ldr	x0, [sp, #32]
   8b300:	91001000 	add	x0, x0, #0x4
   8b304:	39400001 	ldrb	w1, [x0]
   8b308:	90000420 	adrp	x0, 10f000 <EcoVirtualMemory1Lab_623E1838_MemoryMap+0x7d610>
   8b30c:	91387000 	add	x0, x0, #0xe1c
   8b310:	39400000 	ldrb	w0, [x0]
   8b314:	6b00003f 	cmp	w1, w0
   8b318:	54000e61 	b.ne	8b4e4 <CEcoVFB1BCM283x_AF252188_QueryInterface+0x768>  // b.any
   8b31c:	f94013e0 	ldr	x0, [sp, #32]
   8b320:	91001400 	add	x0, x0, #0x5
   8b324:	39400001 	ldrb	w1, [x0]
   8b328:	90000420 	adrp	x0, 10f000 <EcoVirtualMemory1Lab_623E1838_MemoryMap+0x7d610>
   8b32c:	91387400 	add	x0, x0, #0xe1d
   8b330:	39400000 	ldrb	w0, [x0]
   8b334:	6b00003f 	cmp	w1, w0
   8b338:	54000d61 	b.ne	8b4e4 <CEcoVFB1BCM283x_AF252188_QueryInterface+0x768>  // b.any
   8b33c:	f94013e0 	ldr	x0, [sp, #32]
   8b340:	91001800 	add	x0, x0, #0x6
   8b344:	39400001 	ldrb	w1, [x0]
   8b348:	90000420 	adrp	x0, 10f000 <EcoVirtualMemory1Lab_623E1838_MemoryMap+0x7d610>
   8b34c:	91387800 	add	x0, x0, #0xe1e
   8b350:	39400000 	ldrb	w0, [x0]
   8b354:	6b00003f 	cmp	w1, w0
   8b358:	54000c61 	b.ne	8b4e4 <CEcoVFB1BCM283x_AF252188_QueryInterface+0x768>  // b.any
   8b35c:	f94013e0 	ldr	x0, [sp, #32]
   8b360:	91001c00 	add	x0, x0, #0x7
   8b364:	39400001 	ldrb	w1, [x0]
   8b368:	90000420 	adrp	x0, 10f000 <EcoVirtualMemory1Lab_623E1838_MemoryMap+0x7d610>
   8b36c:	91387c00 	add	x0, x0, #0xe1f
   8b370:	39400000 	ldrb	w0, [x0]
   8b374:	6b00003f 	cmp	w1, w0
   8b378:	54000b61 	b.ne	8b4e4 <CEcoVFB1BCM283x_AF252188_QueryInterface+0x768>  // b.any
   8b37c:	f94013e0 	ldr	x0, [sp, #32]
   8b380:	91002000 	add	x0, x0, #0x8
   8b384:	39400001 	ldrb	w1, [x0]
   8b388:	90000420 	adrp	x0, 10f000 <EcoVirtualMemory1Lab_623E1838_MemoryMap+0x7d610>
   8b38c:	91388000 	add	x0, x0, #0xe20
   8b390:	39400000 	ldrb	w0, [x0]
   8b394:	6b00003f 	cmp	w1, w0
   8b398:	54000a61 	b.ne	8b4e4 <CEcoVFB1BCM283x_AF252188_QueryInterface+0x768>  // b.any
   8b39c:	f94013e0 	ldr	x0, [sp, #32]
   8b3a0:	91002400 	add	x0, x0, #0x9
   8b3a4:	39400001 	ldrb	w1, [x0]
   8b3a8:	90000420 	adrp	x0, 10f000 <EcoVirtualMemory1Lab_623E1838_MemoryMap+0x7d610>
   8b3ac:	91388400 	add	x0, x0, #0xe21
   8b3b0:	39400000 	ldrb	w0, [x0]
   8b3b4:	6b00003f 	cmp	w1, w0
   8b3b8:	54000961 	b.ne	8b4e4 <CEcoVFB1BCM283x_AF252188_QueryInterface+0x768>  // b.any
   8b3bc:	f94013e0 	ldr	x0, [sp, #32]
   8b3c0:	91002800 	add	x0, x0, #0xa
   8b3c4:	39400001 	ldrb	w1, [x0]
   8b3c8:	90000420 	adrp	x0, 10f000 <EcoVirtualMemory1Lab_623E1838_MemoryMap+0x7d610>
   8b3cc:	91388800 	add	x0, x0, #0xe22
   8b3d0:	39400000 	ldrb	w0, [x0]
   8b3d4:	6b00003f 	cmp	w1, w0
   8b3d8:	54000861 	b.ne	8b4e4 <CEcoVFB1BCM283x_AF252188_QueryInterface+0x768>  // b.any
   8b3dc:	f94013e0 	ldr	x0, [sp, #32]
   8b3e0:	91002c00 	add	x0, x0, #0xb
   8b3e4:	39400001 	ldrb	w1, [x0]
   8b3e8:	90000420 	adrp	x0, 10f000 <EcoVirtualMemory1Lab_623E1838_MemoryMap+0x7d610>
   8b3ec:	91388c00 	add	x0, x0, #0xe23
   8b3f0:	39400000 	ldrb	w0, [x0]
   8b3f4:	6b00003f 	cmp	w1, w0
   8b3f8:	54000761 	b.ne	8b4e4 <CEcoVFB1BCM283x_AF252188_QueryInterface+0x768>  // b.any
   8b3fc:	f94013e0 	ldr	x0, [sp, #32]
   8b400:	91003000 	add	x0, x0, #0xc
   8b404:	39400001 	ldrb	w1, [x0]
   8b408:	90000420 	adrp	x0, 10f000 <EcoVirtualMemory1Lab_623E1838_MemoryMap+0x7d610>
   8b40c:	91389000 	add	x0, x0, #0xe24
   8b410:	39400000 	ldrb	w0, [x0]
   8b414:	6b00003f 	cmp	w1, w0
   8b418:	54000661 	b.ne	8b4e4 <CEcoVFB1BCM283x_AF252188_QueryInterface+0x768>  // b.any
   8b41c:	f94013e0 	ldr	x0, [sp, #32]
   8b420:	91003400 	add	x0, x0, #0xd
   8b424:	39400001 	ldrb	w1, [x0]
   8b428:	90000420 	adrp	x0, 10f000 <EcoVirtualMemory1Lab_623E1838_MemoryMap+0x7d610>
   8b42c:	91389400 	add	x0, x0, #0xe25
   8b430:	39400000 	ldrb	w0, [x0]
   8b434:	6b00003f 	cmp	w1, w0
   8b438:	54000561 	b.ne	8b4e4 <CEcoVFB1BCM283x_AF252188_QueryInterface+0x768>  // b.any
   8b43c:	f94013e0 	ldr	x0, [sp, #32]
   8b440:	91003800 	add	x0, x0, #0xe
   8b444:	39400001 	ldrb	w1, [x0]
   8b448:	90000420 	adrp	x0, 10f000 <EcoVirtualMemory1Lab_623E1838_MemoryMap+0x7d610>
   8b44c:	91389800 	add	x0, x0, #0xe26
   8b450:	39400000 	ldrb	w0, [x0]
   8b454:	6b00003f 	cmp	w1, w0
   8b458:	54000461 	b.ne	8b4e4 <CEcoVFB1BCM283x_AF252188_QueryInterface+0x768>  // b.any
   8b45c:	f94013e0 	ldr	x0, [sp, #32]
   8b460:	91003c00 	add	x0, x0, #0xf
   8b464:	39400001 	ldrb	w1, [x0]
   8b468:	90000420 	adrp	x0, 10f000 <EcoVirtualMemory1Lab_623E1838_MemoryMap+0x7d610>
   8b46c:	91389c00 	add	x0, x0, #0xe27
   8b470:	39400000 	ldrb	w0, [x0]
   8b474:	6b00003f 	cmp	w1, w0
   8b478:	54000361 	b.ne	8b4e4 <CEcoVFB1BCM283x_AF252188_QueryInterface+0x768>  // b.any
   8b47c:	f94013e0 	ldr	x0, [sp, #32]
   8b480:	91004000 	add	x0, x0, #0x10
   8b484:	39400001 	ldrb	w1, [x0]
   8b488:	90000420 	adrp	x0, 10f000 <EcoVirtualMemory1Lab_623E1838_MemoryMap+0x7d610>
   8b48c:	9138a000 	add	x0, x0, #0xe28
   8b490:	39400000 	ldrb	w0, [x0]
   8b494:	6b00003f 	cmp	w1, w0
   8b498:	54000261 	b.ne	8b4e4 <CEcoVFB1BCM283x_AF252188_QueryInterface+0x768>  // b.any
   8b49c:	f94013e0 	ldr	x0, [sp, #32]
   8b4a0:	91004400 	add	x0, x0, #0x11
   8b4a4:	39400001 	ldrb	w1, [x0]
   8b4a8:	90000420 	adrp	x0, 10f000 <EcoVirtualMemory1Lab_623E1838_MemoryMap+0x7d610>
   8b4ac:	9138a400 	add	x0, x0, #0xe29
   8b4b0:	39400000 	ldrb	w0, [x0]
   8b4b4:	6b00003f 	cmp	w1, w0
   8b4b8:	54000161 	b.ne	8b4e4 <CEcoVFB1BCM283x_AF252188_QueryInterface+0x768>  // b.any
   8b4bc:	f9401fe0 	ldr	x0, [sp, #56]
   8b4c0:	91004001 	add	x1, x0, #0x10
   8b4c4:	f9400fe0 	ldr	x0, [sp, #24]
   8b4c8:	f9000001 	str	x1, [x0]
   8b4cc:	f9401fe0 	ldr	x0, [sp, #56]
   8b4d0:	f9400000 	ldr	x0, [x0]
   8b4d4:	f9400401 	ldr	x1, [x0, #8]
   8b4d8:	f9401fe0 	ldr	x0, [sp, #56]
   8b4dc:	d63f0020 	blr	x1
   8b4e0:	14000136 	b	8b9b8 <CEcoVFB1BCM283x_AF252188_QueryInterface+0xc3c>
   8b4e4:	f94013e0 	ldr	x0, [sp, #32]
   8b4e8:	39400001 	ldrb	w1, [x0]
   8b4ec:	90000420 	adrp	x0, 10f000 <EcoVirtualMemory1Lab_623E1838_MemoryMap+0x7d610>
   8b4f0:	913aa000 	add	x0, x0, #0xea8
   8b4f4:	39400000 	ldrb	w0, [x0]
   8b4f8:	6b00003f 	cmp	w1, w0
   8b4fc:	54001261 	b.ne	8b748 <CEcoVFB1BCM283x_AF252188_QueryInterface+0x9cc>  // b.any
   8b500:	f94013e0 	ldr	x0, [sp, #32]
   8b504:	91000400 	add	x0, x0, #0x1
   8b508:	39400001 	ldrb	w1, [x0]
   8b50c:	90000420 	adrp	x0, 10f000 <EcoVirtualMemory1Lab_623E1838_MemoryMap+0x7d610>
   8b510:	913aa400 	add	x0, x0, #0xea9
   8b514:	39400000 	ldrb	w0, [x0]
   8b518:	6b00003f 	cmp	w1, w0
   8b51c:	54001161 	b.ne	8b748 <CEcoVFB1BCM283x_AF252188_QueryInterface+0x9cc>  // b.any
   8b520:	f94013e0 	ldr	x0, [sp, #32]
   8b524:	91000800 	add	x0, x0, #0x2
   8b528:	39400001 	ldrb	w1, [x0]
   8b52c:	90000420 	adrp	x0, 10f000 <EcoVirtualMemory1Lab_623E1838_MemoryMap+0x7d610>
   8b530:	913aa800 	add	x0, x0, #0xeaa
   8b534:	39400000 	ldrb	w0, [x0]
   8b538:	6b00003f 	cmp	w1, w0
   8b53c:	54001061 	b.ne	8b748 <CEcoVFB1BCM283x_AF252188_QueryInterface+0x9cc>  // b.any
   8b540:	f94013e0 	ldr	x0, [sp, #32]
   8b544:	91000c00 	add	x0, x0, #0x3
   8b548:	39400001 	ldrb	w1, [x0]
   8b54c:	90000420 	adrp	x0, 10f000 <EcoVirtualMemory1Lab_623E1838_MemoryMap+0x7d610>
   8b550:	913aac00 	add	x0, x0, #0xeab
   8b554:	39400000 	ldrb	w0, [x0]
   8b558:	6b00003f 	cmp	w1, w0
   8b55c:	54000f61 	b.ne	8b748 <CEcoVFB1BCM283x_AF252188_QueryInterface+0x9cc>  // b.any
   8b560:	f94013e0 	ldr	x0, [sp, #32]
   8b564:	91001000 	add	x0, x0, #0x4
   8b568:	39400001 	ldrb	w1, [x0]
   8b56c:	90000420 	adrp	x0, 10f000 <EcoVirtualMemory1Lab_623E1838_MemoryMap+0x7d610>
   8b570:	913ab000 	add	x0, x0, #0xeac
   8b574:	39400000 	ldrb	w0, [x0]
   8b578:	6b00003f 	cmp	w1, w0
   8b57c:	54000e61 	b.ne	8b748 <CEcoVFB1BCM283x_AF252188_QueryInterface+0x9cc>  // b.any
   8b580:	f94013e0 	ldr	x0, [sp, #32]
   8b584:	91001400 	add	x0, x0, #0x5
   8b588:	39400001 	ldrb	w1, [x0]
   8b58c:	90000420 	adrp	x0, 10f000 <EcoVirtualMemory1Lab_623E1838_MemoryMap+0x7d610>
   8b590:	913ab400 	add	x0, x0, #0xead
   8b594:	39400000 	ldrb	w0, [x0]
   8b598:	6b00003f 	cmp	w1, w0
   8b59c:	54000d61 	b.ne	8b748 <CEcoVFB1BCM283x_AF252188_QueryInterface+0x9cc>  // b.any
   8b5a0:	f94013e0 	ldr	x0, [sp, #32]
   8b5a4:	91001800 	add	x0, x0, #0x6
   8b5a8:	39400001 	ldrb	w1, [x0]
   8b5ac:	90000420 	adrp	x0, 10f000 <EcoVirtualMemory1Lab_623E1838_MemoryMap+0x7d610>
   8b5b0:	913ab800 	add	x0, x0, #0xeae
   8b5b4:	39400000 	ldrb	w0, [x0]
   8b5b8:	6b00003f 	cmp	w1, w0
   8b5bc:	54000c61 	b.ne	8b748 <CEcoVFB1BCM283x_AF252188_QueryInterface+0x9cc>  // b.any
   8b5c0:	f94013e0 	ldr	x0, [sp, #32]
   8b5c4:	91001c00 	add	x0, x0, #0x7
   8b5c8:	39400001 	ldrb	w1, [x0]
   8b5cc:	90000420 	adrp	x0, 10f000 <EcoVirtualMemory1Lab_623E1838_MemoryMap+0x7d610>
   8b5d0:	913abc00 	add	x0, x0, #0xeaf
   8b5d4:	39400000 	ldrb	w0, [x0]
   8b5d8:	6b00003f 	cmp	w1, w0
   8b5dc:	54000b61 	b.ne	8b748 <CEcoVFB1BCM283x_AF252188_QueryInterface+0x9cc>  // b.any
   8b5e0:	f94013e0 	ldr	x0, [sp, #32]
   8b5e4:	91002000 	add	x0, x0, #0x8
   8b5e8:	39400001 	ldrb	w1, [x0]
   8b5ec:	90000420 	adrp	x0, 10f000 <EcoVirtualMemory1Lab_623E1838_MemoryMap+0x7d610>
   8b5f0:	913ac000 	add	x0, x0, #0xeb0
   8b5f4:	39400000 	ldrb	w0, [x0]
   8b5f8:	6b00003f 	cmp	w1, w0
   8b5fc:	54000a61 	b.ne	8b748 <CEcoVFB1BCM283x_AF252188_QueryInterface+0x9cc>  // b.any
   8b600:	f94013e0 	ldr	x0, [sp, #32]
   8b604:	91002400 	add	x0, x0, #0x9
   8b608:	39400001 	ldrb	w1, [x0]
   8b60c:	90000420 	adrp	x0, 10f000 <EcoVirtualMemory1Lab_623E1838_MemoryMap+0x7d610>
   8b610:	913ac400 	add	x0, x0, #0xeb1
   8b614:	39400000 	ldrb	w0, [x0]
   8b618:	6b00003f 	cmp	w1, w0
   8b61c:	54000961 	b.ne	8b748 <CEcoVFB1BCM283x_AF252188_QueryInterface+0x9cc>  // b.any
   8b620:	f94013e0 	ldr	x0, [sp, #32]
   8b624:	91002800 	add	x0, x0, #0xa
   8b628:	39400001 	ldrb	w1, [x0]
   8b62c:	90000420 	adrp	x0, 10f000 <EcoVirtualMemory1Lab_623E1838_MemoryMap+0x7d610>
   8b630:	913ac800 	add	x0, x0, #0xeb2
   8b634:	39400000 	ldrb	w0, [x0]
   8b638:	6b00003f 	cmp	w1, w0
   8b63c:	54000861 	b.ne	8b748 <CEcoVFB1BCM283x_AF252188_QueryInterface+0x9cc>  // b.any
   8b640:	f94013e0 	ldr	x0, [sp, #32]
   8b644:	91002c00 	add	x0, x0, #0xb
   8b648:	39400001 	ldrb	w1, [x0]
   8b64c:	90000420 	adrp	x0, 10f000 <EcoVirtualMemory1Lab_623E1838_MemoryMap+0x7d610>
   8b650:	913acc00 	add	x0, x0, #0xeb3
   8b654:	39400000 	ldrb	w0, [x0]
   8b658:	6b00003f 	cmp	w1, w0
   8b65c:	54000761 	b.ne	8b748 <CEcoVFB1BCM283x_AF252188_QueryInterface+0x9cc>  // b.any
   8b660:	f94013e0 	ldr	x0, [sp, #32]
   8b664:	91003000 	add	x0, x0, #0xc
   8b668:	39400001 	ldrb	w1, [x0]
   8b66c:	90000420 	adrp	x0, 10f000 <EcoVirtualMemory1Lab_623E1838_MemoryMap+0x7d610>
   8b670:	913ad000 	add	x0, x0, #0xeb4
   8b674:	39400000 	ldrb	w0, [x0]
   8b678:	6b00003f 	cmp	w1, w0
   8b67c:	54000661 	b.ne	8b748 <CEcoVFB1BCM283x_AF252188_QueryInterface+0x9cc>  // b.any
   8b680:	f94013e0 	ldr	x0, [sp, #32]
   8b684:	91003400 	add	x0, x0, #0xd
   8b688:	39400001 	ldrb	w1, [x0]
   8b68c:	90000420 	adrp	x0, 10f000 <EcoVirtualMemory1Lab_623E1838_MemoryMap+0x7d610>
   8b690:	913ad400 	add	x0, x0, #0xeb5
   8b694:	39400000 	ldrb	w0, [x0]
   8b698:	6b00003f 	cmp	w1, w0
   8b69c:	54000561 	b.ne	8b748 <CEcoVFB1BCM283x_AF252188_QueryInterface+0x9cc>  // b.any
   8b6a0:	f94013e0 	ldr	x0, [sp, #32]
   8b6a4:	91003800 	add	x0, x0, #0xe
   8b6a8:	39400001 	ldrb	w1, [x0]
   8b6ac:	90000420 	adrp	x0, 10f000 <EcoVirtualMemory1Lab_623E1838_MemoryMap+0x7d610>
   8b6b0:	913ad800 	add	x0, x0, #0xeb6
   8b6b4:	39400000 	ldrb	w0, [x0]
   8b6b8:	6b00003f 	cmp	w1, w0
   8b6bc:	54000461 	b.ne	8b748 <CEcoVFB1BCM283x_AF252188_QueryInterface+0x9cc>  // b.any
   8b6c0:	f94013e0 	ldr	x0, [sp, #32]
   8b6c4:	91003c00 	add	x0, x0, #0xf
   8b6c8:	39400001 	ldrb	w1, [x0]
   8b6cc:	90000420 	adrp	x0, 10f000 <EcoVirtualMemory1Lab_623E1838_MemoryMap+0x7d610>
   8b6d0:	913adc00 	add	x0, x0, #0xeb7
   8b6d4:	39400000 	ldrb	w0, [x0]
   8b6d8:	6b00003f 	cmp	w1, w0
   8b6dc:	54000361 	b.ne	8b748 <CEcoVFB1BCM283x_AF252188_QueryInterface+0x9cc>  // b.any
   8b6e0:	f94013e0 	ldr	x0, [sp, #32]
   8b6e4:	91004000 	add	x0, x0, #0x10
   8b6e8:	39400001 	ldrb	w1, [x0]
   8b6ec:	90000420 	adrp	x0, 10f000 <EcoVirtualMemory1Lab_623E1838_MemoryMap+0x7d610>
   8b6f0:	913ae000 	add	x0, x0, #0xeb8
   8b6f4:	39400000 	ldrb	w0, [x0]
   8b6f8:	6b00003f 	cmp	w1, w0
   8b6fc:	54000261 	b.ne	8b748 <CEcoVFB1BCM283x_AF252188_QueryInterface+0x9cc>  // b.any
   8b700:	f94013e0 	ldr	x0, [sp, #32]
   8b704:	91004400 	add	x0, x0, #0x11
   8b708:	39400001 	ldrb	w1, [x0]
   8b70c:	90000420 	adrp	x0, 10f000 <EcoVirtualMemory1Lab_623E1838_MemoryMap+0x7d610>
   8b710:	913ae400 	add	x0, x0, #0xeb9
   8b714:	39400000 	ldrb	w0, [x0]
   8b718:	6b00003f 	cmp	w1, w0
   8b71c:	54000161 	b.ne	8b748 <CEcoVFB1BCM283x_AF252188_QueryInterface+0x9cc>  // b.any
   8b720:	f9401fe0 	ldr	x0, [sp, #56]
   8b724:	91006001 	add	x1, x0, #0x18
   8b728:	f9400fe0 	ldr	x0, [sp, #24]
   8b72c:	f9000001 	str	x1, [x0]
   8b730:	f9401fe0 	ldr	x0, [sp, #56]
   8b734:	f9400000 	ldr	x0, [x0]
   8b738:	f9400401 	ldr	x1, [x0, #8]
   8b73c:	f9401fe0 	ldr	x0, [sp, #56]
   8b740:	d63f0020 	blr	x1
   8b744:	1400009d 	b	8b9b8 <CEcoVFB1BCM283x_AF252188_QueryInterface+0xc3c>
   8b748:	f94013e0 	ldr	x0, [sp, #32]
   8b74c:	39400001 	ldrb	w1, [x0]
   8b750:	90000420 	adrp	x0, 10f000 <EcoVirtualMemory1Lab_623E1838_MemoryMap+0x7d610>
   8b754:	91320000 	add	x0, x0, #0xc80
   8b758:	39400000 	ldrb	w0, [x0]
   8b75c:	6b00003f 	cmp	w1, w0
   8b760:	54001241 	b.ne	8b9a8 <CEcoVFB1BCM283x_AF252188_QueryInterface+0xc2c>  // b.any
   8b764:	f94013e0 	ldr	x0, [sp, #32]
   8b768:	91000400 	add	x0, x0, #0x1
   8b76c:	39400001 	ldrb	w1, [x0]
   8b770:	90000420 	adrp	x0, 10f000 <EcoVirtualMemory1Lab_623E1838_MemoryMap+0x7d610>
   8b774:	91320400 	add	x0, x0, #0xc81
   8b778:	39400000 	ldrb	w0, [x0]
   8b77c:	6b00003f 	cmp	w1, w0
   8b780:	54001141 	b.ne	8b9a8 <CEcoVFB1BCM283x_AF252188_QueryInterface+0xc2c>  // b.any
   8b784:	f94013e0 	ldr	x0, [sp, #32]
   8b788:	91000800 	add	x0, x0, #0x2
   8b78c:	39400001 	ldrb	w1, [x0]
   8b790:	90000420 	adrp	x0, 10f000 <EcoVirtualMemory1Lab_623E1838_MemoryMap+0x7d610>
   8b794:	91320800 	add	x0, x0, #0xc82
   8b798:	39400000 	ldrb	w0, [x0]
   8b79c:	6b00003f 	cmp	w1, w0
   8b7a0:	54001041 	b.ne	8b9a8 <CEcoVFB1BCM283x_AF252188_QueryInterface+0xc2c>  // b.any
   8b7a4:	f94013e0 	ldr	x0, [sp, #32]
   8b7a8:	91000c00 	add	x0, x0, #0x3
   8b7ac:	39400001 	ldrb	w1, [x0]
   8b7b0:	90000420 	adrp	x0, 10f000 <EcoVirtualMemory1Lab_623E1838_MemoryMap+0x7d610>
   8b7b4:	91320c00 	add	x0, x0, #0xc83
   8b7b8:	39400000 	ldrb	w0, [x0]
   8b7bc:	6b00003f 	cmp	w1, w0
   8b7c0:	54000f41 	b.ne	8b9a8 <CEcoVFB1BCM283x_AF252188_QueryInterface+0xc2c>  // b.any
   8b7c4:	f94013e0 	ldr	x0, [sp, #32]
   8b7c8:	91001000 	add	x0, x0, #0x4
   8b7cc:	39400001 	ldrb	w1, [x0]
   8b7d0:	90000420 	adrp	x0, 10f000 <EcoVirtualMemory1Lab_623E1838_MemoryMap+0x7d610>
   8b7d4:	91321000 	add	x0, x0, #0xc84
   8b7d8:	39400000 	ldrb	w0, [x0]
   8b7dc:	6b00003f 	cmp	w1, w0
   8b7e0:	54000e41 	b.ne	8b9a8 <CEcoVFB1BCM283x_AF252188_QueryInterface+0xc2c>  // b.any
   8b7e4:	f94013e0 	ldr	x0, [sp, #32]
   8b7e8:	91001400 	add	x0, x0, #0x5
   8b7ec:	39400001 	ldrb	w1, [x0]
   8b7f0:	90000420 	adrp	x0, 10f000 <EcoVirtualMemory1Lab_623E1838_MemoryMap+0x7d610>
   8b7f4:	91321400 	add	x0, x0, #0xc85
   8b7f8:	39400000 	ldrb	w0, [x0]
   8b7fc:	6b00003f 	cmp	w1, w0
   8b800:	54000d41 	b.ne	8b9a8 <CEcoVFB1BCM283x_AF252188_QueryInterface+0xc2c>  // b.any
   8b804:	f94013e0 	ldr	x0, [sp, #32]
   8b808:	91001800 	add	x0, x0, #0x6
   8b80c:	39400001 	ldrb	w1, [x0]
   8b810:	90000420 	adrp	x0, 10f000 <EcoVirtualMemory1Lab_623E1838_MemoryMap+0x7d610>
   8b814:	91321800 	add	x0, x0, #0xc86
   8b818:	39400000 	ldrb	w0, [x0]
   8b81c:	6b00003f 	cmp	w1, w0
   8b820:	54000c41 	b.ne	8b9a8 <CEcoVFB1BCM283x_AF252188_QueryInterface+0xc2c>  // b.any
   8b824:	f94013e0 	ldr	x0, [sp, #32]
   8b828:	91001c00 	add	x0, x0, #0x7
   8b82c:	39400001 	ldrb	w1, [x0]
   8b830:	90000420 	adrp	x0, 10f000 <EcoVirtualMemory1Lab_623E1838_MemoryMap+0x7d610>
   8b834:	91321c00 	add	x0, x0, #0xc87
   8b838:	39400000 	ldrb	w0, [x0]
   8b83c:	6b00003f 	cmp	w1, w0
   8b840:	54000b41 	b.ne	8b9a8 <CEcoVFB1BCM283x_AF252188_QueryInterface+0xc2c>  // b.any
   8b844:	f94013e0 	ldr	x0, [sp, #32]
   8b848:	91002000 	add	x0, x0, #0x8
   8b84c:	39400001 	ldrb	w1, [x0]
   8b850:	90000420 	adrp	x0, 10f000 <EcoVirtualMemory1Lab_623E1838_MemoryMap+0x7d610>
   8b854:	91322000 	add	x0, x0, #0xc88
   8b858:	39400000 	ldrb	w0, [x0]
   8b85c:	6b00003f 	cmp	w1, w0
   8b860:	54000a41 	b.ne	8b9a8 <CEcoVFB1BCM283x_AF252188_QueryInterface+0xc2c>  // b.any
   8b864:	f94013e0 	ldr	x0, [sp, #32]
   8b868:	91002400 	add	x0, x0, #0x9
   8b86c:	39400001 	ldrb	w1, [x0]
   8b870:	90000420 	adrp	x0, 10f000 <EcoVirtualMemory1Lab_623E1838_MemoryMap+0x7d610>
   8b874:	91322400 	add	x0, x0, #0xc89
   8b878:	39400000 	ldrb	w0, [x0]
   8b87c:	6b00003f 	cmp	w1, w0
   8b880:	54000941 	b.ne	8b9a8 <CEcoVFB1BCM283x_AF252188_QueryInterface+0xc2c>  // b.any
   8b884:	f94013e0 	ldr	x0, [sp, #32]
   8b888:	91002800 	add	x0, x0, #0xa
   8b88c:	39400001 	ldrb	w1, [x0]
   8b890:	90000420 	adrp	x0, 10f000 <EcoVirtualMemory1Lab_623E1838_MemoryMap+0x7d610>
   8b894:	91322800 	add	x0, x0, #0xc8a
   8b898:	39400000 	ldrb	w0, [x0]
   8b89c:	6b00003f 	cmp	w1, w0
   8b8a0:	54000841 	b.ne	8b9a8 <CEcoVFB1BCM283x_AF252188_QueryInterface+0xc2c>  // b.any
   8b8a4:	f94013e0 	ldr	x0, [sp, #32]
   8b8a8:	91002c00 	add	x0, x0, #0xb
   8b8ac:	39400001 	ldrb	w1, [x0]
   8b8b0:	90000420 	adrp	x0, 10f000 <EcoVirtualMemory1Lab_623E1838_MemoryMap+0x7d610>
   8b8b4:	91322c00 	add	x0, x0, #0xc8b
   8b8b8:	39400000 	ldrb	w0, [x0]
   8b8bc:	6b00003f 	cmp	w1, w0
   8b8c0:	54000741 	b.ne	8b9a8 <CEcoVFB1BCM283x_AF252188_QueryInterface+0xc2c>  // b.any
   8b8c4:	f94013e0 	ldr	x0, [sp, #32]
   8b8c8:	91003000 	add	x0, x0, #0xc
   8b8cc:	39400001 	ldrb	w1, [x0]
   8b8d0:	90000420 	adrp	x0, 10f000 <EcoVirtualMemory1Lab_623E1838_MemoryMap+0x7d610>
   8b8d4:	91323000 	add	x0, x0, #0xc8c
   8b8d8:	39400000 	ldrb	w0, [x0]
   8b8dc:	6b00003f 	cmp	w1, w0
   8b8e0:	54000641 	b.ne	8b9a8 <CEcoVFB1BCM283x_AF252188_QueryInterface+0xc2c>  // b.any
   8b8e4:	f94013e0 	ldr	x0, [sp, #32]
   8b8e8:	91003400 	add	x0, x0, #0xd
   8b8ec:	39400001 	ldrb	w1, [x0]
   8b8f0:	90000420 	adrp	x0, 10f000 <EcoVirtualMemory1Lab_623E1838_MemoryMap+0x7d610>
   8b8f4:	91323400 	add	x0, x0, #0xc8d
   8b8f8:	39400000 	ldrb	w0, [x0]
   8b8fc:	6b00003f 	cmp	w1, w0
   8b900:	54000541 	b.ne	8b9a8 <CEcoVFB1BCM283x_AF252188_QueryInterface+0xc2c>  // b.any
   8b904:	f94013e0 	ldr	x0, [sp, #32]
   8b908:	91003800 	add	x0, x0, #0xe
   8b90c:	39400001 	ldrb	w1, [x0]
   8b910:	90000420 	adrp	x0, 10f000 <EcoVirtualMemory1Lab_623E1838_MemoryMap+0x7d610>
   8b914:	91323800 	add	x0, x0, #0xc8e
   8b918:	39400000 	ldrb	w0, [x0]
   8b91c:	6b00003f 	cmp	w1, w0
   8b920:	54000441 	b.ne	8b9a8 <CEcoVFB1BCM283x_AF252188_QueryInterface+0xc2c>  // b.any
   8b924:	f94013e0 	ldr	x0, [sp, #32]
   8b928:	91003c00 	add	x0, x0, #0xf
   8b92c:	39400001 	ldrb	w1, [x0]
   8b930:	90000420 	adrp	x0, 10f000 <EcoVirtualMemory1Lab_623E1838_MemoryMap+0x7d610>
   8b934:	91323c00 	add	x0, x0, #0xc8f
   8b938:	39400000 	ldrb	w0, [x0]
   8b93c:	6b00003f 	cmp	w1, w0
   8b940:	54000341 	b.ne	8b9a8 <CEcoVFB1BCM283x_AF252188_QueryInterface+0xc2c>  // b.any
   8b944:	f94013e0 	ldr	x0, [sp, #32]
   8b948:	91004000 	add	x0, x0, #0x10
   8b94c:	39400001 	ldrb	w1, [x0]
   8b950:	90000420 	adrp	x0, 10f000 <EcoVirtualMemory1Lab_623E1838_MemoryMap+0x7d610>
   8b954:	91324000 	add	x0, x0, #0xc90
   8b958:	39400000 	ldrb	w0, [x0]
   8b95c:	6b00003f 	cmp	w1, w0
   8b960:	54000241 	b.ne	8b9a8 <CEcoVFB1BCM283x_AF252188_QueryInterface+0xc2c>  // b.any
   8b964:	f94013e0 	ldr	x0, [sp, #32]
   8b968:	91004400 	add	x0, x0, #0x11
   8b96c:	39400001 	ldrb	w1, [x0]
   8b970:	90000420 	adrp	x0, 10f000 <EcoVirtualMemory1Lab_623E1838_MemoryMap+0x7d610>
   8b974:	91324400 	add	x0, x0, #0xc91
   8b978:	39400000 	ldrb	w0, [x0]
   8b97c:	6b00003f 	cmp	w1, w0
   8b980:	54000141 	b.ne	8b9a8 <CEcoVFB1BCM283x_AF252188_QueryInterface+0xc2c>  // b.any
   8b984:	f9401fe1 	ldr	x1, [sp, #56]
   8b988:	f9400fe0 	ldr	x0, [sp, #24]
   8b98c:	f9000001 	str	x1, [x0]
   8b990:	f9401fe0 	ldr	x0, [sp, #56]
   8b994:	f9400000 	ldr	x0, [x0]
   8b998:	f9400401 	ldr	x1, [x0, #8]
   8b99c:	f9401fe0 	ldr	x0, [sp, #56]
   8b9a0:	d63f0020 	blr	x1
   8b9a4:	14000005 	b	8b9b8 <CEcoVFB1BCM283x_AF252188_QueryInterface+0xc3c>
   8b9a8:	f9400fe0 	ldr	x0, [sp, #24]
   8b9ac:	f900001f 	str	xzr, [x0]
   8b9b0:	12800240 	mov	w0, #0xffffffed            	// #-19
   8b9b4:	14000002 	b	8b9bc <CEcoVFB1BCM283x_AF252188_QueryInterface+0xc40>
   8b9b8:	52800000 	mov	w0, #0x0                   	// #0
   8b9bc:	a8c47bfd 	ldp	x29, x30, [sp], #64
   8b9c0:	d65f03c0 	ret

000000000008b9c4 <CEcoVFB1BCM283x_AF252188_AddRef>:
   8b9c4:	d10083ff 	sub	sp, sp, #0x20
   8b9c8:	f90007e0 	str	x0, [sp, #8]
   8b9cc:	f94007e0 	ldr	x0, [sp, #8]
   8b9d0:	d1006000 	sub	x0, x0, #0x18
   8b9d4:	f9000fe0 	str	x0, [sp, #24]
   8b9d8:	f94007e0 	ldr	x0, [sp, #8]
   8b9dc:	f100001f 	cmp	x0, #0x0
   8b9e0:	54000061 	b.ne	8b9ec <CEcoVFB1BCM283x_AF252188_AddRef+0x28>  // b.any
   8b9e4:	12800000 	mov	w0, #0xffffffff            	// #-1
   8b9e8:	14000008 	b	8ba08 <CEcoVFB1BCM283x_AF252188_AddRef+0x44>
   8b9ec:	f9400fe0 	ldr	x0, [sp, #24]
   8b9f0:	b9402000 	ldr	w0, [x0, #32]
   8b9f4:	11000401 	add	w1, w0, #0x1
   8b9f8:	f9400fe0 	ldr	x0, [sp, #24]
   8b9fc:	b9002001 	str	w1, [x0, #32]
   8ba00:	f9400fe0 	ldr	x0, [sp, #24]
   8ba04:	b9402000 	ldr	w0, [x0, #32]
   8ba08:	910083ff 	add	sp, sp, #0x20
   8ba0c:	d65f03c0 	ret

000000000008ba10 <CEcoVFB1BCM283x_AF252188_Release>:
   8ba10:	a9bd7bfd 	stp	x29, x30, [sp, #-48]!
   8ba14:	910003fd 	mov	x29, sp
   8ba18:	f9000fe0 	str	x0, [sp, #24]
   8ba1c:	f9400fe0 	ldr	x0, [sp, #24]
   8ba20:	d1006000 	sub	x0, x0, #0x18
   8ba24:	f90017e0 	str	x0, [sp, #40]
   8ba28:	f9400fe0 	ldr	x0, [sp, #24]
   8ba2c:	f100001f 	cmp	x0, #0x0
   8ba30:	54000061 	b.ne	8ba3c <CEcoVFB1BCM283x_AF252188_Release+0x2c>  // b.any
   8ba34:	12800000 	mov	w0, #0xffffffff            	// #-1
   8ba38:	14000010 	b	8ba78 <CEcoVFB1BCM283x_AF252188_Release+0x68>
   8ba3c:	f94017e0 	ldr	x0, [sp, #40]
   8ba40:	b9402000 	ldr	w0, [x0, #32]
   8ba44:	51000401 	sub	w1, w0, #0x1
   8ba48:	f94017e0 	ldr	x0, [sp, #40]
   8ba4c:	b9002001 	str	w1, [x0, #32]
   8ba50:	f94017e0 	ldr	x0, [sp, #40]
   8ba54:	b9402000 	ldr	w0, [x0, #32]
   8ba58:	7100001f 	cmp	w0, #0x0
   8ba5c:	540000a1 	b.ne	8ba70 <CEcoVFB1BCM283x_AF252188_Release+0x60>  // b.any
   8ba60:	f94017e0 	ldr	x0, [sp, #40]
   8ba64:	9400014b 	bl	8bf90 <deleteCEcoVFB1_AF252188>
   8ba68:	52800000 	mov	w0, #0x0                   	// #0
   8ba6c:	14000003 	b	8ba78 <CEcoVFB1BCM283x_AF252188_Release+0x68>
   8ba70:	f94017e0 	ldr	x0, [sp, #40]
   8ba74:	b9402000 	ldr	w0, [x0, #32]
   8ba78:	a8c37bfd 	ldp	x29, x30, [sp], #48
   8ba7c:	d65f03c0 	ret

000000000008ba80 <initCEcoVFB1_AF252188>:
   8ba80:	a9bc7bfd 	stp	x29, x30, [sp, #-64]!
   8ba84:	910003fd 	mov	x29, sp
   8ba88:	f9000fe0 	str	x0, [sp, #24]
   8ba8c:	f9000be1 	str	x1, [sp, #16]
   8ba90:	f9400fe0 	ldr	x0, [sp, #24]
   8ba94:	f9001fe0 	str	x0, [sp, #56]
   8ba98:	12800000 	mov	w0, #0xffffffff            	// #-1
   8ba9c:	79006fe0 	strh	w0, [sp, #54]
   8baa0:	f90017ff 	str	xzr, [sp, #40]
   8baa4:	f90013ff 	str	xzr, [sp, #32]
   8baa8:	f9400fe0 	ldr	x0, [sp, #24]
   8baac:	f100001f 	cmp	x0, #0x0
   8bab0:	54000061 	b.ne	8babc <initCEcoVFB1_AF252188+0x3c>  // b.any
   8bab4:	12800220 	mov	w0, #0xffffffee            	// #-18
   8bab8:	14000016 	b	8bb10 <initCEcoVFB1_AF252188+0x90>
   8babc:	f9400be0 	ldr	x0, [sp, #16]
   8bac0:	f9400000 	ldr	x0, [x0]
   8bac4:	f9400003 	ldr	x3, [x0]
   8bac8:	f9401fe0 	ldr	x0, [sp, #56]
   8bacc:	9100c000 	add	x0, x0, #0x30
   8bad0:	aa0003e2 	mov	x2, x0
   8bad4:	90000420 	adrp	x0, 10f000 <EcoVirtualMemory1Lab_623E1838_MemoryMap+0x7d610>
   8bad8:	9135c001 	add	x1, x0, #0xd70
   8badc:	f9400be0 	ldr	x0, [sp, #16]
   8bae0:	d63f0060 	blr	x3
   8bae4:	79006fe0 	strh	w0, [sp, #54]
   8bae8:	79c06fe0 	ldrsh	w0, [sp, #54]
   8baec:	7100001f 	cmp	w0, #0x0
   8baf0:	540000e0 	b.eq	8bb0c <initCEcoVFB1_AF252188+0x8c>  // b.none
   8baf4:	f9401fe0 	ldr	x0, [sp, #56]
   8baf8:	f9401800 	ldr	x0, [x0, #48]
   8bafc:	f100001f 	cmp	x0, #0x0
   8bb00:	54000061 	b.ne	8bb0c <initCEcoVFB1_AF252188+0x8c>  // b.any
   8bb04:	12800260 	mov	w0, #0xffffffec            	// #-20
   8bb08:	14000002 	b	8bb10 <initCEcoVFB1_AF252188+0x90>
   8bb0c:	52800000 	mov	w0, #0x0                   	// #0
   8bb10:	a8c47bfd 	ldp	x29, x30, [sp], #64
   8bb14:	d65f03c0 	ret

000000000008bb18 <createCEcoVFB1_AF252188>:
   8bb18:	d10543ff 	sub	sp, sp, #0x150
   8bb1c:	a90a7bfd 	stp	x29, x30, [sp, #160]
   8bb20:	910283fd 	add	x29, sp, #0xa0
   8bb24:	f90067e0 	str	x0, [sp, #200]
   8bb28:	f90063e1 	str	x1, [sp, #192]
   8bb2c:	f9005fe2 	str	x2, [sp, #184]
   8bb30:	12800220 	mov	w0, #0xffffffee            	// #-18
   8bb34:	79029fe0 	strh	w0, [sp, #334]
   8bb38:	f900a3ff 	str	xzr, [sp, #320]
   8bb3c:	f9009fff 	str	xzr, [sp, #312]
   8bb40:	f9009bff 	str	xzr, [sp, #304]
   8bb44:	a90d7fff 	stp	xzr, xzr, [sp, #208]
   8bb48:	a90e7fff 	stp	xzr, xzr, [sp, #224]
   8bb4c:	a90f7fff 	stp	xzr, xzr, [sp, #240]
   8bb50:	a9107fff 	stp	xzr, xzr, [sp, #256]
   8bb54:	a9117fff 	stp	xzr, xzr, [sp, #272]
   8bb58:	f90093ff 	str	xzr, [sp, #288]
   8bb5c:	b9012bff 	str	wzr, [sp, #296]
   8bb60:	f9405fe0 	ldr	x0, [sp, #184]
   8bb64:	f100001f 	cmp	x0, #0x0
   8bb68:	54000061 	b.ne	8bb74 <createCEcoVFB1_AF252188+0x5c>  // b.any
   8bb6c:	79c29fe0 	ldrsh	w0, [sp, #334]
   8bb70:	14000105 	b	8bf84 <createCEcoVFB1_AF252188+0x46c>
   8bb74:	d0000020 	adrp	x0, 91000 <g_xF10BC39A4F2143CF8A1E104650A2C302Factory+0x58>
   8bb78:	910ce000 	add	x0, x0, #0x338
   8bb7c:	f900a3e0 	str	x0, [sp, #320]
   8bb80:	f940a3e0 	ldr	x0, [sp, #320]
   8bb84:	b9402000 	ldr	w0, [x0, #32]
   8bb88:	7100001f 	cmp	w0, #0x0
   8bb8c:	54001f41 	b.ne	8bf74 <createCEcoVFB1_AF252188+0x45c>  // b.any
   8bb90:	f940a3e0 	ldr	x0, [sp, #320]
   8bb94:	52800021 	mov	w1, #0x1                   	// #1
   8bb98:	b9002001 	str	w1, [x0, #32]
   8bb9c:	f940a3e0 	ldr	x0, [sp, #320]
   8bba0:	b900401f 	str	wzr, [x0, #64]
   8bba4:	f940a3e0 	ldr	x0, [sp, #320]
   8bba8:	b900441f 	str	wzr, [x0, #68]
   8bbac:	f940a3e0 	ldr	x0, [sp, #320]
   8bbb0:	b900481f 	str	wzr, [x0, #72]
   8bbb4:	f940a3e0 	ldr	x0, [sp, #320]
   8bbb8:	b9004c1f 	str	wzr, [x0, #76]
   8bbbc:	f94067e0 	ldr	x0, [sp, #200]
   8bbc0:	f9400000 	ldr	x0, [x0]
   8bbc4:	f9400003 	ldr	x3, [x0]
   8bbc8:	9104e3e0 	add	x0, sp, #0x138
   8bbcc:	aa0003e2 	mov	x2, x0
   8bbd0:	90000420 	adrp	x0, 10f000 <EcoVirtualMemory1Lab_623E1838_MemoryMap+0x7d610>
   8bbd4:	9135c001 	add	x1, x0, #0xd70
   8bbd8:	f94067e0 	ldr	x0, [sp, #200]
   8bbdc:	d63f0060 	blr	x3
   8bbe0:	79029fe0 	strh	w0, [sp, #334]
   8bbe4:	79c29fe0 	ldrsh	w0, [sp, #334]
   8bbe8:	7100001f 	cmp	w0, #0x0
   8bbec:	54000081 	b.ne	8bbfc <createCEcoVFB1_AF252188+0xe4>  // b.any
   8bbf0:	f9409fe0 	ldr	x0, [sp, #312]
   8bbf4:	f100001f 	cmp	x0, #0x0
   8bbf8:	54000061 	b.ne	8bc04 <createCEcoVFB1_AF252188+0xec>  // b.any
   8bbfc:	12800260 	mov	w0, #0xffffffec            	// #-20
   8bc00:	140000e1 	b	8bf84 <createCEcoVFB1_AF252188+0x46c>
   8bc04:	f9409fe1 	ldr	x1, [sp, #312]
   8bc08:	f940a3e0 	ldr	x0, [sp, #320]
   8bc0c:	f9001801 	str	x1, [x0, #48]
   8bc10:	f9409fe0 	ldr	x0, [sp, #312]
   8bc14:	f9400000 	ldr	x0, [x0]
   8bc18:	f9400003 	ldr	x3, [x0]
   8bc1c:	f9409fe4 	ldr	x4, [sp, #312]
   8bc20:	9104c3e0 	add	x0, sp, #0x130
   8bc24:	aa0003e2 	mov	x2, x0
   8bc28:	90000420 	adrp	x0, 10f000 <EcoVirtualMemory1Lab_623E1838_MemoryMap+0x7d610>
   8bc2c:	9137a001 	add	x1, x0, #0xde8
   8bc30:	aa0403e0 	mov	x0, x4
   8bc34:	d63f0060 	blr	x3
   8bc38:	79029fe0 	strh	w0, [sp, #334]
   8bc3c:	79c29fe0 	ldrsh	w0, [sp, #334]
   8bc40:	7100001f 	cmp	w0, #0x0
   8bc44:	54000081 	b.ne	8bc54 <createCEcoVFB1_AF252188+0x13c>  // b.any
   8bc48:	f9409be0 	ldr	x0, [sp, #304]
   8bc4c:	f100001f 	cmp	x0, #0x0
   8bc50:	54000101 	b.ne	8bc70 <createCEcoVFB1_AF252188+0x158>  // b.any
   8bc54:	f9409fe0 	ldr	x0, [sp, #312]
   8bc58:	f9400000 	ldr	x0, [x0]
   8bc5c:	f9400801 	ldr	x1, [x0, #16]
   8bc60:	f9409fe0 	ldr	x0, [sp, #312]
   8bc64:	d63f0020 	blr	x1
   8bc68:	12800280 	mov	w0, #0xffffffeb            	// #-21
   8bc6c:	140000c6 	b	8bf84 <createCEcoVFB1_AF252188+0x46c>
   8bc70:	f940a3e0 	ldr	x0, [sp, #320]
   8bc74:	f9001c1f 	str	xzr, [x0, #56]
   8bc78:	f9409be0 	ldr	x0, [sp, #304]
   8bc7c:	f9400000 	ldr	x0, [x0]
   8bc80:	f9401c05 	ldr	x5, [x0, #56]
   8bc84:	f9409be6 	ldr	x6, [sp, #304]
   8bc88:	f940a3e0 	ldr	x0, [sp, #320]
   8bc8c:	9100e000 	add	x0, x0, #0x38
   8bc90:	aa0003e4 	mov	x4, x0
   8bc94:	90000420 	adrp	x0, 10f000 <EcoVirtualMemory1Lab_623E1838_MemoryMap+0x7d610>
   8bc98:	913b0003 	add	x3, x0, #0xec0
   8bc9c:	d2800002 	mov	x2, #0x0                   	// #0
   8bca0:	90000420 	adrp	x0, 10f000 <EcoVirtualMemory1Lab_623E1838_MemoryMap+0x7d610>
   8bca4:	913b6001 	add	x1, x0, #0xed8
   8bca8:	aa0603e0 	mov	x0, x6
   8bcac:	d63f00a0 	blr	x5
   8bcb0:	79029fe0 	strh	w0, [sp, #334]
   8bcb4:	79c29fe0 	ldrsh	w0, [sp, #334]
   8bcb8:	7100001f 	cmp	w0, #0x0
   8bcbc:	540000a1 	b.ne	8bcd0 <createCEcoVFB1_AF252188+0x1b8>  // b.any
   8bcc0:	f940a3e0 	ldr	x0, [sp, #320]
   8bcc4:	f9401c00 	ldr	x0, [x0, #56]
   8bcc8:	f100001f 	cmp	x0, #0x0
   8bccc:	54000141 	b.ne	8bcf4 <createCEcoVFB1_AF252188+0x1dc>  // b.any
   8bcd0:	f9409be0 	ldr	x0, [sp, #304]
   8bcd4:	f9400000 	ldr	x0, [x0]
   8bcd8:	f9400801 	ldr	x1, [x0, #16]
   8bcdc:	f9409be0 	ldr	x0, [sp, #304]
   8bce0:	d63f0020 	blr	x1
   8bce4:	f940a3e0 	ldr	x0, [sp, #320]
   8bce8:	940000aa 	bl	8bf90 <deleteCEcoVFB1_AF252188>
   8bcec:	52807d20 	mov	w0, #0x3e9                 	// #1001
   8bcf0:	140000a5 	b	8bf84 <createCEcoVFB1_AF252188+0x46c>
   8bcf4:	f940a3e0 	ldr	x0, [sp, #320]
   8bcf8:	f9401c00 	ldr	x0, [x0, #56]
   8bcfc:	f9400000 	ldr	x0, [x0]
   8bd00:	f9401c08 	ldr	x8, [x0, #56]
   8bd04:	f940a3e0 	ldr	x0, [sp, #320]
   8bd08:	f9401c00 	ldr	x0, [x0, #56]
   8bd0c:	910343e1 	add	x1, sp, #0xd0
   8bd10:	b90003ff 	str	wzr, [sp]
   8bd14:	52800007 	mov	w7, #0x0                   	// #0
   8bd18:	52800006 	mov	w6, #0x0                   	// #0
   8bd1c:	52800105 	mov	w5, #0x8                   	// #8
   8bd20:	52800064 	mov	w4, #0x3                   	// #3
   8bd24:	72a00084 	movk	w4, #0x4, lsl #16
   8bd28:	528000a3 	mov	w3, #0x5                   	// #5
   8bd2c:	aa0103e2 	mov	x2, x1
   8bd30:	52800101 	mov	w1, #0x8                   	// #8
   8bd34:	d63f0100 	blr	x8
   8bd38:	13003c00 	sxth	w0, w0
   8bd3c:	3100041f 	cmn	w0, #0x1
   8bd40:	540000e0 	b.eq	8bd5c <createCEcoVFB1_AF252188+0x244>  // b.none
   8bd44:	b940dfe1 	ldr	w1, [sp, #220]
   8bd48:	f940a3e0 	ldr	x0, [sp, #320]
   8bd4c:	b9005401 	str	w1, [x0, #84]
   8bd50:	b940e3e1 	ldr	w1, [sp, #224]
   8bd54:	f940a3e0 	ldr	x0, [sp, #320]
   8bd58:	b9005801 	str	w1, [x0, #88]
   8bd5c:	f940a3e0 	ldr	x0, [sp, #320]
   8bd60:	f9401c00 	ldr	x0, [x0, #56]
   8bd64:	f9400000 	ldr	x0, [x0]
   8bd68:	f9401c08 	ldr	x8, [x0, #56]
   8bd6c:	f940a3e0 	ldr	x0, [sp, #320]
   8bd70:	f9401c00 	ldr	x0, [x0, #56]
   8bd74:	910343e1 	add	x1, sp, #0xd0
   8bd78:	52800007 	mov	w7, #0x0                   	// #0
   8bd7c:	52800086 	mov	w6, #0x4                   	// #4
   8bd80:	52800085 	mov	w5, #0x4                   	// #4
   8bd84:	528000a4 	mov	w4, #0x5                   	// #5
   8bd88:	72a00084 	movk	w4, #0x4, lsl #16
   8bd8c:	52800083 	mov	w3, #0x4                   	// #4
   8bd90:	aa0103e2 	mov	x2, x1
   8bd94:	52800101 	mov	w1, #0x8                   	// #8
   8bd98:	d63f0100 	blr	x8
   8bd9c:	13003c00 	sxth	w0, w0
   8bda0:	3100041f 	cmn	w0, #0x1
   8bda4:	54000080 	b.eq	8bdb4 <createCEcoVFB1_AF252188+0x29c>  // b.none
   8bda8:	b940dfe1 	ldr	w1, [sp, #220]
   8bdac:	f940a3e0 	ldr	x0, [sp, #320]
   8bdb0:	b9005c01 	str	w1, [x0, #92]
   8bdb4:	f940a3e0 	ldr	x0, [sp, #320]
   8bdb8:	f9401c00 	ldr	x0, [x0, #56]
   8bdbc:	f9400000 	ldr	x0, [x0]
   8bdc0:	f9401c08 	ldr	x8, [x0, #56]
   8bdc4:	f940a3e0 	ldr	x0, [sp, #320]
   8bdc8:	f9401c09 	ldr	x9, [x0, #56]
   8bdcc:	f940a3e0 	ldr	x0, [sp, #320]
   8bdd0:	b9405405 	ldr	w5, [x0, #84]
   8bdd4:	f940a3e0 	ldr	x0, [sp, #320]
   8bdd8:	b9405800 	ldr	w0, [x0, #88]
   8bddc:	f940a3e1 	ldr	x1, [sp, #320]
   8bde0:	b9405421 	ldr	w1, [x1, #84]
   8bde4:	f940a3e2 	ldr	x2, [sp, #320]
   8bde8:	b9405842 	ldr	w2, [x2, #88]
   8bdec:	f940a3e3 	ldr	x3, [sp, #320]
   8bdf0:	b9405c63 	ldr	w3, [x3, #92]
   8bdf4:	910343ea 	add	x10, sp, #0xd0
   8bdf8:	b90093ff 	str	wzr, [sp, #144]
   8bdfc:	b9008bff 	str	wzr, [sp, #136]
   8be00:	52800084 	mov	w4, #0x4                   	// #4
   8be04:	b90083e4 	str	w4, [sp, #128]
   8be08:	52800104 	mov	w4, #0x8                   	// #8
   8be0c:	72a00084 	movk	w4, #0x4, lsl #16
   8be10:	b9007be4 	str	w4, [sp, #120]
   8be14:	b90073ff 	str	wzr, [sp, #112]
   8be18:	52800204 	mov	w4, #0x10                  	// #16
   8be1c:	b9006be4 	str	w4, [sp, #104]
   8be20:	52800084 	mov	w4, #0x4                   	// #4
   8be24:	b90063e4 	str	w4, [sp, #96]
   8be28:	52800104 	mov	w4, #0x8                   	// #8
   8be2c:	b9005be4 	str	w4, [sp, #88]
   8be30:	52800024 	mov	w4, #0x1                   	// #1
   8be34:	72a00084 	movk	w4, #0x4, lsl #16
   8be38:	b90053e4 	str	w4, [sp, #80]
   8be3c:	b9004be3 	str	w3, [sp, #72]
   8be40:	52800083 	mov	w3, #0x4                   	// #4
   8be44:	b90043e3 	str	w3, [sp, #64]
   8be48:	52800083 	mov	w3, #0x4                   	// #4
   8be4c:	b9003be3 	str	w3, [sp, #56]
   8be50:	529000a3 	mov	w3, #0x8005                	// #32773
   8be54:	72a00083 	movk	w3, #0x4, lsl #16
   8be58:	b90033e3 	str	w3, [sp, #48]
   8be5c:	b9002be2 	str	w2, [sp, #40]
   8be60:	b90023e1 	str	w1, [sp, #32]
   8be64:	52800101 	mov	w1, #0x8                   	// #8
   8be68:	b9001be1 	str	w1, [sp, #24]
   8be6c:	52800101 	mov	w1, #0x8                   	// #8
   8be70:	b90013e1 	str	w1, [sp, #16]
   8be74:	52900081 	mov	w1, #0x8004                	// #32772
   8be78:	72a00081 	movk	w1, #0x4, lsl #16
   8be7c:	b9000be1 	str	w1, [sp, #8]
   8be80:	b90003e0 	str	w0, [sp]
   8be84:	2a0503e7 	mov	w7, w5
   8be88:	52800106 	mov	w6, #0x8                   	// #8
   8be8c:	52800105 	mov	w5, #0x8                   	// #8
   8be90:	52900064 	mov	w4, #0x8003                	// #32771
   8be94:	72a00084 	movk	w4, #0x4, lsl #16
   8be98:	528002e3 	mov	w3, #0x17                  	// #23
   8be9c:	aa0a03e2 	mov	x2, x10
   8bea0:	52800101 	mov	w1, #0x8                   	// #8
   8bea4:	aa0903e0 	mov	x0, x9
   8bea8:	d63f0100 	blr	x8
   8beac:	b94117e0 	ldr	w0, [sp, #276]
   8beb0:	2a0003e0 	mov	w0, w0
   8beb4:	aa0003e1 	mov	x1, x0
   8beb8:	f940a3e0 	ldr	x0, [sp, #320]
   8bebc:	f9003401 	str	x1, [x0, #104]
   8bec0:	b9412be1 	ldr	w1, [sp, #296]
   8bec4:	f940a3e0 	ldr	x0, [sp, #320]
   8bec8:	b9006001 	str	w1, [x0, #96]
   8becc:	f940a3e0 	ldr	x0, [sp, #320]
   8bed0:	b9405c00 	ldr	w0, [x0, #92]
   8bed4:	7100801f 	cmp	w0, #0x20
   8bed8:	54000141 	b.ne	8bf00 <createCEcoVFB1_AF252188+0x3e8>  // b.any
   8bedc:	f940a3e0 	ldr	x0, [sp, #320]
   8bee0:	b9406000 	ldr	w0, [x0, #96]
   8bee4:	53027c01 	lsr	w1, w0, #2
   8bee8:	f940a3e0 	ldr	x0, [sp, #320]
   8beec:	b9006001 	str	w1, [x0, #96]
   8bef0:	f940a3e0 	ldr	x0, [sp, #320]
   8bef4:	52800081 	mov	w1, #0x4                   	// #4
   8bef8:	b9006401 	str	w1, [x0, #100]
   8befc:	1400001e 	b	8bf74 <createCEcoVFB1_AF252188+0x45c>
   8bf00:	f940a3e0 	ldr	x0, [sp, #320]
   8bf04:	b9405c00 	ldr	w0, [x0, #92]
   8bf08:	7100601f 	cmp	w0, #0x18
   8bf0c:	540001c1 	b.ne	8bf44 <createCEcoVFB1_AF252188+0x42c>  // b.any
   8bf10:	f940a3e0 	ldr	x0, [sp, #320]
   8bf14:	b9406001 	ldr	w1, [x0, #96]
   8bf18:	52955560 	mov	w0, #0xaaab                	// #43691
   8bf1c:	72b55540 	movk	w0, #0xaaaa, lsl #16
   8bf20:	9ba07c20 	umull	x0, w1, w0
   8bf24:	d360fc00 	lsr	x0, x0, #32
   8bf28:	53017c01 	lsr	w1, w0, #1
   8bf2c:	f940a3e0 	ldr	x0, [sp, #320]
   8bf30:	b9006001 	str	w1, [x0, #96]
   8bf34:	f940a3e0 	ldr	x0, [sp, #320]
   8bf38:	52800061 	mov	w1, #0x3                   	// #3
   8bf3c:	b9006401 	str	w1, [x0, #100]
   8bf40:	1400000d 	b	8bf74 <createCEcoVFB1_AF252188+0x45c>
   8bf44:	f940a3e0 	ldr	x0, [sp, #320]
   8bf48:	b9405c00 	ldr	w0, [x0, #92]
   8bf4c:	7100401f 	cmp	w0, #0x10
   8bf50:	54000121 	b.ne	8bf74 <createCEcoVFB1_AF252188+0x45c>  // b.any
   8bf54:	f940a3e0 	ldr	x0, [sp, #320]
   8bf58:	b9406000 	ldr	w0, [x0, #96]
   8bf5c:	53017c01 	lsr	w1, w0, #1
   8bf60:	f940a3e0 	ldr	x0, [sp, #320]
   8bf64:	b9006001 	str	w1, [x0, #96]
   8bf68:	f940a3e0 	ldr	x0, [sp, #320]
   8bf6c:	52800041 	mov	w1, #0x2                   	// #2
   8bf70:	b9006401 	str	w1, [x0, #100]
   8bf74:	f9405fe0 	ldr	x0, [sp, #184]
   8bf78:	f940a3e1 	ldr	x1, [sp, #320]
   8bf7c:	f9000001 	str	x1, [x0]
   8bf80:	52800000 	mov	w0, #0x0                   	// #0
   8bf84:	a94a7bfd 	ldp	x29, x30, [sp, #160]
   8bf88:	910543ff 	add	sp, sp, #0x150
   8bf8c:	d65f03c0 	ret

000000000008bf90 <deleteCEcoVFB1_AF252188>:
   8bf90:	a9bd7bfd 	stp	x29, x30, [sp, #-48]!
   8bf94:	910003fd 	mov	x29, sp
   8bf98:	f9000fe0 	str	x0, [sp, #24]
   8bf9c:	f9400fe0 	ldr	x0, [sp, #24]
   8bfa0:	f90017e0 	str	x0, [sp, #40]
   8bfa4:	f9400fe0 	ldr	x0, [sp, #24]
   8bfa8:	f100001f 	cmp	x0, #0x0
   8bfac:	54000180 	b.eq	8bfdc <deleteCEcoVFB1_AF252188+0x4c>  // b.none
   8bfb0:	f94017e0 	ldr	x0, [sp, #40]
   8bfb4:	f9401800 	ldr	x0, [x0, #48]
   8bfb8:	f100001f 	cmp	x0, #0x0
   8bfbc:	54000100 	b.eq	8bfdc <deleteCEcoVFB1_AF252188+0x4c>  // b.none
   8bfc0:	f94017e0 	ldr	x0, [sp, #40]
   8bfc4:	f9401800 	ldr	x0, [x0, #48]
   8bfc8:	f9400000 	ldr	x0, [x0]
   8bfcc:	f9400801 	ldr	x1, [x0, #16]
   8bfd0:	f94017e0 	ldr	x0, [sp, #40]
   8bfd4:	f9401800 	ldr	x0, [x0, #48]
   8bfd8:	d63f0020 	blr	x1
   8bfdc:	d503201f 	nop
   8bfe0:	a8c37bfd 	ldp	x29, x30, [sp], #48
   8bfe4:	d65f03c0 	ret

000000000008bfe8 <IsEqualUGUID_00000000000000000000000042757331>:
   8bfe8:	d10083ff 	sub	sp, sp, #0x20
   8bfec:	f90007e0 	str	x0, [sp, #8]
   8bff0:	f90003e1 	str	x1, [sp]
   8bff4:	39007fff 	strb	wzr, [sp, #31]
   8bff8:	39007bff 	strb	wzr, [sp, #30]
   8bffc:	39007bff 	strb	wzr, [sp, #30]
   8c000:	14000013 	b	8c04c <IsEqualUGUID_00000000000000000000000042757331+0x64>
   8c004:	39407be0 	ldrb	w0, [sp, #30]
   8c008:	f94007e1 	ldr	x1, [sp, #8]
   8c00c:	8b000020 	add	x0, x1, x0
   8c010:	39400001 	ldrb	w1, [x0]
   8c014:	39407be0 	ldrb	w0, [sp, #30]
   8c018:	f94003e2 	ldr	x2, [sp]
   8c01c:	8b000040 	add	x0, x2, x0
   8c020:	39400000 	ldrb	w0, [x0]
   8c024:	6b00003f 	cmp	w1, w0
   8c028:	54000081 	b.ne	8c038 <IsEqualUGUID_00000000000000000000000042757331+0x50>  // b.any
   8c02c:	52800020 	mov	w0, #0x1                   	// #1
   8c030:	39007fe0 	strb	w0, [sp, #31]
   8c034:	14000003 	b	8c040 <IsEqualUGUID_00000000000000000000000042757331+0x58>
   8c038:	39007fff 	strb	wzr, [sp, #31]
   8c03c:	14000007 	b	8c058 <IsEqualUGUID_00000000000000000000000042757331+0x70>
   8c040:	39407be0 	ldrb	w0, [sp, #30]
   8c044:	11000400 	add	w0, w0, #0x1
   8c048:	39007be0 	strb	w0, [sp, #30]
   8c04c:	39407be0 	ldrb	w0, [sp, #30]
   8c050:	7100441f 	cmp	w0, #0x11
   8c054:	54fffd89 	b.ls	8c004 <IsEqualUGUID_00000000000000000000000042757331+0x1c>  // b.plast
   8c058:	39407fe0 	ldrb	w0, [sp, #31]
   8c05c:	910083ff 	add	sp, sp, #0x20
   8c060:	d65f03c0 	ret

000000000008c064 <CEcoInterfaceBus1Factory_42757331_QueryInterface>:
   8c064:	a9bd7bfd 	stp	x29, x30, [sp, #-48]!
   8c068:	910003fd 	mov	x29, sp
   8c06c:	f90017e0 	str	x0, [sp, #40]
   8c070:	f90013e1 	str	x1, [sp, #32]
   8c074:	f9000fe2 	str	x2, [sp, #24]
   8c078:	90000420 	adrp	x0, 110000 <EcoBitFont8x16_AF252188+0x110>
   8c07c:	913be001 	add	x1, x0, #0xef8
   8c080:	f94013e0 	ldr	x0, [sp, #32]
   8c084:	97ffffd9 	bl	8bfe8 <IsEqualUGUID_00000000000000000000000042757331>
   8c088:	12001c00 	and	w0, w0, #0xff
   8c08c:	7100001f 	cmp	w0, #0x0
   8c090:	54000101 	b.ne	8c0b0 <CEcoInterfaceBus1Factory_42757331_QueryInterface+0x4c>  // b.any
   8c094:	90000420 	adrp	x0, 110000 <EcoBitFont8x16_AF252188+0x110>
   8c098:	913c4001 	add	x1, x0, #0xf10
   8c09c:	f94013e0 	ldr	x0, [sp, #32]
   8c0a0:	97ffffd2 	bl	8bfe8 <IsEqualUGUID_00000000000000000000000042757331>
   8c0a4:	12001c00 	and	w0, w0, #0xff
   8c0a8:	7100001f 	cmp	w0, #0x0
   8c0ac:	54000160 	b.eq	8c0d8 <CEcoInterfaceBus1Factory_42757331_QueryInterface+0x74>  // b.none
   8c0b0:	f9400fe0 	ldr	x0, [sp, #24]
   8c0b4:	f94017e1 	ldr	x1, [sp, #40]
   8c0b8:	f9000001 	str	x1, [x0]
   8c0bc:	f94017e0 	ldr	x0, [sp, #40]
   8c0c0:	f9400000 	ldr	x0, [x0]
   8c0c4:	f9400401 	ldr	x1, [x0, #8]
   8c0c8:	f94017e0 	ldr	x0, [sp, #40]
   8c0cc:	d63f0020 	blr	x1
   8c0d0:	52800000 	mov	w0, #0x0                   	// #0
   8c0d4:	14000004 	b	8c0e4 <CEcoInterfaceBus1Factory_42757331_QueryInterface+0x80>
   8c0d8:	f9400fe0 	ldr	x0, [sp, #24]
   8c0dc:	f900001f 	str	xzr, [x0]
   8c0e0:	12800220 	mov	w0, #0xffffffee            	// #-18
   8c0e4:	a8c37bfd 	ldp	x29, x30, [sp], #48
   8c0e8:	d65f03c0 	ret

000000000008c0ec <CEcoInterfaceBus1Factory_42757331_AddRef>:
   8c0ec:	d10083ff 	sub	sp, sp, #0x20
   8c0f0:	f90007e0 	str	x0, [sp, #8]
   8c0f4:	f94007e0 	ldr	x0, [sp, #8]
   8c0f8:	f9000fe0 	str	x0, [sp, #24]
   8c0fc:	f94007e0 	ldr	x0, [sp, #8]
   8c100:	f100001f 	cmp	x0, #0x0
   8c104:	54000061 	b.ne	8c110 <CEcoInterfaceBus1Factory_42757331_AddRef+0x24>  // b.any
   8c108:	12800000 	mov	w0, #0xffffffff            	// #-1
   8c10c:	14000006 	b	8c124 <CEcoInterfaceBus1Factory_42757331_AddRef+0x38>
   8c110:	f9400fe0 	ldr	x0, [sp, #24]
   8c114:	b9400800 	ldr	w0, [x0, #8]
   8c118:	11000402 	add	w2, w0, #0x1
   8c11c:	f9400fe1 	ldr	x1, [sp, #24]
   8c120:	b9000822 	str	w2, [x1, #8]
   8c124:	910083ff 	add	sp, sp, #0x20
   8c128:	d65f03c0 	ret

000000000008c12c <CEcoInterfaceBus1Factory_42757331_Release>:
   8c12c:	d10083ff 	sub	sp, sp, #0x20
   8c130:	f90007e0 	str	x0, [sp, #8]
   8c134:	f94007e0 	ldr	x0, [sp, #8]
   8c138:	f9000fe0 	str	x0, [sp, #24]
   8c13c:	f94007e0 	ldr	x0, [sp, #8]
   8c140:	f100001f 	cmp	x0, #0x0
   8c144:	54000061 	b.ne	8c150 <CEcoInterfaceBus1Factory_42757331_Release+0x24>  // b.any
   8c148:	12800000 	mov	w0, #0xffffffff            	// #-1
   8c14c:	1400000e 	b	8c184 <CEcoInterfaceBus1Factory_42757331_Release+0x58>
   8c150:	f9400fe0 	ldr	x0, [sp, #24]
   8c154:	b9400800 	ldr	w0, [x0, #8]
   8c158:	51000401 	sub	w1, w0, #0x1
   8c15c:	f9400fe0 	ldr	x0, [sp, #24]
   8c160:	b9000801 	str	w1, [x0, #8]
   8c164:	f9400fe0 	ldr	x0, [sp, #24]
   8c168:	b9400800 	ldr	w0, [x0, #8]
   8c16c:	7100001f 	cmp	w0, #0x0
   8c170:	54000061 	b.ne	8c17c <CEcoInterfaceBus1Factory_42757331_Release+0x50>  // b.any
   8c174:	52800000 	mov	w0, #0x0                   	// #0
   8c178:	14000003 	b	8c184 <CEcoInterfaceBus1Factory_42757331_Release+0x58>
   8c17c:	f9400fe0 	ldr	x0, [sp, #24]
   8c180:	b9400800 	ldr	w0, [x0, #8]
   8c184:	910083ff 	add	sp, sp, #0x20
   8c188:	d65f03c0 	ret

000000000008c18c <CEcoInterfaceBus1Factory_42757331_Init>:
   8c18c:	a9bc7bfd 	stp	x29, x30, [sp, #-64]!
   8c190:	910003fd 	mov	x29, sp
   8c194:	f90017e0 	str	x0, [sp, #40]
   8c198:	f90013e1 	str	x1, [sp, #32]
   8c19c:	f9000fe2 	str	x2, [sp, #24]
   8c1a0:	f94017e0 	ldr	x0, [sp, #40]
   8c1a4:	f9001fe0 	str	x0, [sp, #56]
   8c1a8:	12800000 	mov	w0, #0xffffffff            	// #-1
   8c1ac:	79006fe0 	strh	w0, [sp, #54]
   8c1b0:	f94017e0 	ldr	x0, [sp, #40]
   8c1b4:	f100001f 	cmp	x0, #0x0
   8c1b8:	54000061 	b.ne	8c1c4 <CEcoInterfaceBus1Factory_42757331_Init+0x38>  // b.any
   8c1bc:	12800000 	mov	w0, #0xffffffff            	// #-1
   8c1c0:	14000008 	b	8c1e0 <CEcoInterfaceBus1Factory_42757331_Init+0x54>
   8c1c4:	f9401fe0 	ldr	x0, [sp, #56]
   8c1c8:	f9400c02 	ldr	x2, [x0, #24]
   8c1cc:	f94013e1 	ldr	x1, [sp, #32]
   8c1d0:	f9400fe0 	ldr	x0, [sp, #24]
   8c1d4:	d63f0040 	blr	x2
   8c1d8:	79006fe0 	strh	w0, [sp, #54]
   8c1dc:	79c06fe0 	ldrsh	w0, [sp, #54]
   8c1e0:	a8c47bfd 	ldp	x29, x30, [sp], #64
   8c1e4:	d65f03c0 	ret

000000000008c1e8 <CEcoInterfaceBus1Factory_42757331_Alloc>:
   8c1e8:	a9ba7bfd 	stp	x29, x30, [sp, #-96]!
   8c1ec:	910003fd 	mov	x29, sp
   8c1f0:	f9001fe0 	str	x0, [sp, #56]
   8c1f4:	f9001be1 	str	x1, [sp, #48]
   8c1f8:	f90017e2 	str	x2, [sp, #40]
   8c1fc:	f90013e3 	str	x3, [sp, #32]
   8c200:	f9000fe4 	str	x4, [sp, #24]
   8c204:	f9401fe0 	ldr	x0, [sp, #56]
   8c208:	f9002fe0 	str	x0, [sp, #88]
   8c20c:	f90027ff 	str	xzr, [sp, #72]
   8c210:	12800000 	mov	w0, #0xffffffff            	// #-1
   8c214:	7900afe0 	strh	w0, [sp, #86]
   8c218:	f9401fe0 	ldr	x0, [sp, #56]
   8c21c:	f100001f 	cmp	x0, #0x0
   8c220:	54000061 	b.ne	8c22c <CEcoInterfaceBus1Factory_42757331_Alloc+0x44>  // b.any
   8c224:	12800000 	mov	w0, #0xffffffff            	// #-1
   8c228:	1400002b 	b	8c2d4 <CEcoInterfaceBus1Factory_42757331_Alloc+0xec>
   8c22c:	f94017e0 	ldr	x0, [sp, #40]
   8c230:	f100001f 	cmp	x0, #0x0
   8c234:	54000140 	b.eq	8c25c <CEcoInterfaceBus1Factory_42757331_Alloc+0x74>  // b.none
   8c238:	90000420 	adrp	x0, 110000 <EcoBitFont8x16_AF252188+0x110>
   8c23c:	913be001 	add	x1, x0, #0xef8
   8c240:	f94013e0 	ldr	x0, [sp, #32]
   8c244:	97ffff69 	bl	8bfe8 <IsEqualUGUID_00000000000000000000000042757331>
   8c248:	12001c00 	and	w0, w0, #0xff
   8c24c:	7100001f 	cmp	w0, #0x0
   8c250:	54000061 	b.ne	8c25c <CEcoInterfaceBus1Factory_42757331_Alloc+0x74>  // b.any
   8c254:	12800000 	mov	w0, #0xffffffff            	// #-1
   8c258:	1400001f 	b	8c2d4 <CEcoInterfaceBus1Factory_42757331_Alloc+0xec>
   8c25c:	f9402fe0 	ldr	x0, [sp, #88]
   8c260:	f9400803 	ldr	x3, [x0, #16]
   8c264:	910123e0 	add	x0, sp, #0x48
   8c268:	aa0003e2 	mov	x2, x0
   8c26c:	f94017e1 	ldr	x1, [sp, #40]
   8c270:	f9401be0 	ldr	x0, [sp, #48]
   8c274:	d63f0060 	blr	x3
   8c278:	7900afe0 	strh	w0, [sp, #86]
   8c27c:	79c0afe0 	ldrsh	w0, [sp, #86]
   8c280:	7100001f 	cmp	w0, #0x0
   8c284:	54000081 	b.ne	8c294 <CEcoInterfaceBus1Factory_42757331_Alloc+0xac>  // b.any
   8c288:	f94027e0 	ldr	x0, [sp, #72]
   8c28c:	f100001f 	cmp	x0, #0x0
   8c290:	54000061 	b.ne	8c29c <CEcoInterfaceBus1Factory_42757331_Alloc+0xb4>  // b.any
   8c294:	12800000 	mov	w0, #0xffffffff            	// #-1
   8c298:	1400000f 	b	8c2d4 <CEcoInterfaceBus1Factory_42757331_Alloc+0xec>
   8c29c:	f94027e0 	ldr	x0, [sp, #72]
   8c2a0:	f9400000 	ldr	x0, [x0]
   8c2a4:	f9400003 	ldr	x3, [x0]
   8c2a8:	f94027e0 	ldr	x0, [sp, #72]
   8c2ac:	f9400fe2 	ldr	x2, [sp, #24]
   8c2b0:	f94013e1 	ldr	x1, [sp, #32]
   8c2b4:	d63f0060 	blr	x3
   8c2b8:	7900afe0 	strh	w0, [sp, #86]
   8c2bc:	f94027e0 	ldr	x0, [sp, #72]
   8c2c0:	f9400000 	ldr	x0, [x0]
   8c2c4:	f9400801 	ldr	x1, [x0, #16]
   8c2c8:	f94027e0 	ldr	x0, [sp, #72]
   8c2cc:	d63f0020 	blr	x1
   8c2d0:	79c0afe0 	ldrsh	w0, [sp, #86]
   8c2d4:	a8c67bfd 	ldp	x29, x30, [sp], #96
   8c2d8:	d65f03c0 	ret

000000000008c2dc <CEcoInterfaceBus1Factory_42757331_get_Name>:
   8c2dc:	d10083ff 	sub	sp, sp, #0x20
   8c2e0:	f90007e0 	str	x0, [sp, #8]
   8c2e4:	f94007e0 	ldr	x0, [sp, #8]
   8c2e8:	f9000fe0 	str	x0, [sp, #24]
   8c2ec:	f94007e0 	ldr	x0, [sp, #8]
   8c2f0:	f100001f 	cmp	x0, #0x0
   8c2f4:	54000061 	b.ne	8c300 <CEcoInterfaceBus1Factory_42757331_get_Name+0x24>  // b.any
   8c2f8:	d2800000 	mov	x0, #0x0                   	// #0
   8c2fc:	14000003 	b	8c308 <CEcoInterfaceBus1Factory_42757331_get_Name+0x2c>
   8c300:	f9400fe0 	ldr	x0, [sp, #24]
   8c304:	91008000 	add	x0, x0, #0x20
   8c308:	910083ff 	add	sp, sp, #0x20
   8c30c:	d65f03c0 	ret

000000000008c310 <CEcoInterfaceBus1Factory_42757331_get_Version>:
   8c310:	d10083ff 	sub	sp, sp, #0x20
   8c314:	f90007e0 	str	x0, [sp, #8]
   8c318:	f94007e0 	ldr	x0, [sp, #8]
   8c31c:	f9000fe0 	str	x0, [sp, #24]
   8c320:	f94007e0 	ldr	x0, [sp, #8]
   8c324:	f100001f 	cmp	x0, #0x0
   8c328:	54000061 	b.ne	8c334 <CEcoInterfaceBus1Factory_42757331_get_Version+0x24>  // b.any
   8c32c:	d2800000 	mov	x0, #0x0                   	// #0
   8c330:	14000003 	b	8c33c <CEcoInterfaceBus1Factory_42757331_get_Version+0x2c>
   8c334:	f9400fe0 	ldr	x0, [sp, #24]
   8c338:	91018000 	add	x0, x0, #0x60
   8c33c:	910083ff 	add	sp, sp, #0x20
   8c340:	d65f03c0 	ret

000000000008c344 <CEcoInterfaceBus1Factory_42757331_get_Manufacturer>:
   8c344:	d10083ff 	sub	sp, sp, #0x20
   8c348:	f90007e0 	str	x0, [sp, #8]
   8c34c:	f94007e0 	ldr	x0, [sp, #8]
   8c350:	f9000fe0 	str	x0, [sp, #24]
   8c354:	f94007e0 	ldr	x0, [sp, #8]
   8c358:	f100001f 	cmp	x0, #0x0
   8c35c:	54000061 	b.ne	8c368 <CEcoInterfaceBus1Factory_42757331_get_Manufacturer+0x24>  // b.any
   8c360:	d2800000 	mov	x0, #0x0                   	// #0
   8c364:	14000003 	b	8c370 <CEcoInterfaceBus1Factory_42757331_get_Manufacturer+0x2c>
   8c368:	f9400fe0 	ldr	x0, [sp, #24]
   8c36c:	9101c000 	add	x0, x0, #0x70
   8c370:	910083ff 	add	sp, sp, #0x20
   8c374:	d65f03c0 	ret

000000000008c378 <CEcoInterfaceBus1_42757331_QueryInterface>:
   8c378:	a9bc7bfd 	stp	x29, x30, [sp, #-64]!
   8c37c:	910003fd 	mov	x29, sp
   8c380:	f90017e0 	str	x0, [sp, #40]
   8c384:	f90013e1 	str	x1, [sp, #32]
   8c388:	f9000fe2 	str	x2, [sp, #24]
   8c38c:	f94017e0 	ldr	x0, [sp, #40]
   8c390:	f9001fe0 	str	x0, [sp, #56]
   8c394:	f94017e0 	ldr	x0, [sp, #40]
   8c398:	f100001f 	cmp	x0, #0x0
   8c39c:	54000080 	b.eq	8c3ac <CEcoInterfaceBus1_42757331_QueryInterface+0x34>  // b.none
   8c3a0:	f9400fe0 	ldr	x0, [sp, #24]
   8c3a4:	f100001f 	cmp	x0, #0x0
   8c3a8:	54000061 	b.ne	8c3b4 <CEcoInterfaceBus1_42757331_QueryInterface+0x3c>  // b.any
   8c3ac:	12800220 	mov	w0, #0xffffffee            	// #-18
   8c3b0:	14000048 	b	8c4d0 <CEcoInterfaceBus1_42757331_QueryInterface+0x158>
   8c3b4:	b0000420 	adrp	x0, 111000 <GID_IEcoSystem_AARCH64>
   8c3b8:	9109c001 	add	x1, x0, #0x270
   8c3bc:	f94013e0 	ldr	x0, [sp, #32]
   8c3c0:	97ffff0a 	bl	8bfe8 <IsEqualUGUID_00000000000000000000000042757331>
   8c3c4:	12001c00 	and	w0, w0, #0xff
   8c3c8:	7100001f 	cmp	w0, #0x0
   8c3cc:	54000140 	b.eq	8c3f4 <CEcoInterfaceBus1_42757331_QueryInterface+0x7c>  // b.none
   8c3d0:	f9401fe1 	ldr	x1, [sp, #56]
   8c3d4:	f9400fe0 	ldr	x0, [sp, #24]
   8c3d8:	f9000001 	str	x1, [x0]
   8c3dc:	f9401fe0 	ldr	x0, [sp, #56]
   8c3e0:	f9400000 	ldr	x0, [x0]
   8c3e4:	f9400401 	ldr	x1, [x0, #8]
   8c3e8:	f9401fe0 	ldr	x0, [sp, #56]
   8c3ec:	d63f0020 	blr	x1
   8c3f0:	14000037 	b	8c4cc <CEcoInterfaceBus1_42757331_QueryInterface+0x154>
   8c3f4:	b0000420 	adrp	x0, 111000 <GID_IEcoSystem_AARCH64>
   8c3f8:	9107e001 	add	x1, x0, #0x1f8
   8c3fc:	f94013e0 	ldr	x0, [sp, #32]
   8c400:	97fffefa 	bl	8bfe8 <IsEqualUGUID_00000000000000000000000042757331>
   8c404:	12001c00 	and	w0, w0, #0xff
   8c408:	7100001f 	cmp	w0, #0x0
   8c40c:	54000160 	b.eq	8c438 <CEcoInterfaceBus1_42757331_QueryInterface+0xc0>  // b.none
   8c410:	f9401fe0 	ldr	x0, [sp, #56]
   8c414:	91002001 	add	x1, x0, #0x8
   8c418:	f9400fe0 	ldr	x0, [sp, #24]
   8c41c:	f9000001 	str	x1, [x0]
   8c420:	f9401fe0 	ldr	x0, [sp, #56]
   8c424:	f9400000 	ldr	x0, [x0]
   8c428:	f9400401 	ldr	x1, [x0, #8]
   8c42c:	f9401fe0 	ldr	x0, [sp, #56]
   8c430:	d63f0020 	blr	x1
   8c434:	14000026 	b	8c4cc <CEcoInterfaceBus1_42757331_QueryInterface+0x154>
   8c438:	b0000420 	adrp	x0, 111000 <GID_IEcoSystem_AARCH64>
   8c43c:	910ba001 	add	x1, x0, #0x2e8
   8c440:	f94013e0 	ldr	x0, [sp, #32]
   8c444:	97fffee9 	bl	8bfe8 <IsEqualUGUID_00000000000000000000000042757331>
   8c448:	12001c00 	and	w0, w0, #0xff
   8c44c:	7100001f 	cmp	w0, #0x0
   8c450:	54000160 	b.eq	8c47c <CEcoInterfaceBus1_42757331_QueryInterface+0x104>  // b.none
   8c454:	f9401fe0 	ldr	x0, [sp, #56]
   8c458:	91004001 	add	x1, x0, #0x10
   8c45c:	f9400fe0 	ldr	x0, [sp, #24]
   8c460:	f9000001 	str	x1, [x0]
   8c464:	f9401fe0 	ldr	x0, [sp, #56]
   8c468:	f9400000 	ldr	x0, [x0]
   8c46c:	f9400401 	ldr	x1, [x0, #8]
   8c470:	f9401fe0 	ldr	x0, [sp, #56]
   8c474:	d63f0020 	blr	x1
   8c478:	14000015 	b	8c4cc <CEcoInterfaceBus1_42757331_QueryInterface+0x154>
   8c47c:	b0000420 	adrp	x0, 111000 <GID_IEcoSystem_AARCH64>
   8c480:	91042001 	add	x1, x0, #0x108
   8c484:	f94013e0 	ldr	x0, [sp, #32]
   8c488:	97fffed8 	bl	8bfe8 <IsEqualUGUID_00000000000000000000000042757331>
   8c48c:	12001c00 	and	w0, w0, #0xff
   8c490:	7100001f 	cmp	w0, #0x0
   8c494:	54000140 	b.eq	8c4bc <CEcoInterfaceBus1_42757331_QueryInterface+0x144>  // b.none
   8c498:	f9401fe1 	ldr	x1, [sp, #56]
   8c49c:	f9400fe0 	ldr	x0, [sp, #24]
   8c4a0:	f9000001 	str	x1, [x0]
   8c4a4:	f9401fe0 	ldr	x0, [sp, #56]
   8c4a8:	f9400000 	ldr	x0, [x0]
   8c4ac:	f9400401 	ldr	x1, [x0, #8]
   8c4b0:	f9401fe0 	ldr	x0, [sp, #56]
   8c4b4:	d63f0020 	blr	x1
   8c4b8:	14000005 	b	8c4cc <CEcoInterfaceBus1_42757331_QueryInterface+0x154>
   8c4bc:	f9400fe0 	ldr	x0, [sp, #24]
   8c4c0:	f900001f 	str	xzr, [x0]
   8c4c4:	12800240 	mov	w0, #0xffffffed            	// #-19
   8c4c8:	14000002 	b	8c4d0 <CEcoInterfaceBus1_42757331_QueryInterface+0x158>
   8c4cc:	52800000 	mov	w0, #0x0                   	// #0
   8c4d0:	a8c47bfd 	ldp	x29, x30, [sp], #64
   8c4d4:	d65f03c0 	ret

000000000008c4d8 <CEcoInterfaceBus1_42757331_AddRef>:
   8c4d8:	d10083ff 	sub	sp, sp, #0x20
   8c4dc:	f90007e0 	str	x0, [sp, #8]
   8c4e0:	f94007e0 	ldr	x0, [sp, #8]
   8c4e4:	f9000fe0 	str	x0, [sp, #24]
   8c4e8:	f94007e0 	ldr	x0, [sp, #8]
   8c4ec:	f100001f 	cmp	x0, #0x0
   8c4f0:	54000061 	b.ne	8c4fc <CEcoInterfaceBus1_42757331_AddRef+0x24>  // b.any
   8c4f4:	12800000 	mov	w0, #0xffffffff            	// #-1
   8c4f8:	14000006 	b	8c510 <CEcoInterfaceBus1_42757331_AddRef+0x38>
   8c4fc:	f9400fe0 	ldr	x0, [sp, #24]
   8c500:	b9401800 	ldr	w0, [x0, #24]
   8c504:	11000402 	add	w2, w0, #0x1
   8c508:	f9400fe1 	ldr	x1, [sp, #24]
   8c50c:	b9001822 	str	w2, [x1, #24]
   8c510:	910083ff 	add	sp, sp, #0x20
   8c514:	d65f03c0 	ret

000000000008c518 <CEcoInterfaceBus1_42757331_Release>:
   8c518:	a9bd7bfd 	stp	x29, x30, [sp, #-48]!
   8c51c:	910003fd 	mov	x29, sp
   8c520:	f9000fe0 	str	x0, [sp, #24]
   8c524:	f9400fe0 	ldr	x0, [sp, #24]
   8c528:	f90017e0 	str	x0, [sp, #40]
   8c52c:	f9400fe0 	ldr	x0, [sp, #24]
   8c530:	f100001f 	cmp	x0, #0x0
   8c534:	54000061 	b.ne	8c540 <CEcoInterfaceBus1_42757331_Release+0x28>  // b.any
   8c538:	12800000 	mov	w0, #0xffffffff            	// #-1
   8c53c:	14000010 	b	8c57c <CEcoInterfaceBus1_42757331_Release+0x64>
   8c540:	f94017e0 	ldr	x0, [sp, #40]
   8c544:	b9401800 	ldr	w0, [x0, #24]
   8c548:	51000401 	sub	w1, w0, #0x1
   8c54c:	f94017e0 	ldr	x0, [sp, #40]
   8c550:	b9001801 	str	w1, [x0, #24]
   8c554:	f94017e0 	ldr	x0, [sp, #40]
   8c558:	b9401800 	ldr	w0, [x0, #24]
   8c55c:	7100001f 	cmp	w0, #0x0
   8c560:	540000a1 	b.ne	8c574 <CEcoInterfaceBus1_42757331_Release+0x5c>  // b.any
   8c564:	f9400fe0 	ldr	x0, [sp, #24]
   8c568:	940002e0 	bl	8d0e8 <deleteCEcoInterfaceBus1_42757331>
   8c56c:	52800000 	mov	w0, #0x0                   	// #0
   8c570:	14000003 	b	8c57c <CEcoInterfaceBus1_42757331_Release+0x64>
   8c574:	f94017e0 	ldr	x0, [sp, #40]
   8c578:	b9401800 	ldr	w0, [x0, #24]
   8c57c:	a8c37bfd 	ldp	x29, x30, [sp], #48
   8c580:	d65f03c0 	ret

000000000008c584 <CEcoInterfaceBus1_42757331_Init>:
   8c584:	d10043ff 	sub	sp, sp, #0x10
   8c588:	f90007e0 	str	x0, [sp, #8]
   8c58c:	f94007e0 	ldr	x0, [sp, #8]
   8c590:	f100001f 	cmp	x0, #0x0
   8c594:	54000061 	b.ne	8c5a0 <CEcoInterfaceBus1_42757331_Init+0x1c>  // b.any
   8c598:	12800000 	mov	w0, #0xffffffff            	// #-1
   8c59c:	14000002 	b	8c5a4 <CEcoInterfaceBus1_42757331_Init+0x20>
   8c5a0:	52800000 	mov	w0, #0x0                   	// #0
   8c5a4:	910043ff 	add	sp, sp, #0x10
   8c5a8:	d65f03c0 	ret

000000000008c5ac <CEcoInterfaceBus1_42757331_InitWith>:
   8c5ac:	d10083ff 	sub	sp, sp, #0x20
   8c5b0:	f9000fe0 	str	x0, [sp, #24]
   8c5b4:	f9000be1 	str	x1, [sp, #16]
   8c5b8:	b9000fe2 	str	w2, [sp, #12]
   8c5bc:	f9400fe0 	ldr	x0, [sp, #24]
   8c5c0:	f100001f 	cmp	x0, #0x0
   8c5c4:	54000061 	b.ne	8c5d0 <CEcoInterfaceBus1_42757331_InitWith+0x24>  // b.any
   8c5c8:	12800000 	mov	w0, #0xffffffff            	// #-1
   8c5cc:	14000002 	b	8c5d4 <CEcoInterfaceBus1_42757331_InitWith+0x28>
   8c5d0:	52800000 	mov	w0, #0x0                   	// #0
   8c5d4:	910083ff 	add	sp, sp, #0x20
   8c5d8:	d65f03c0 	ret

000000000008c5dc <CEcoInterfaceBus1_42757331_RegisterComponent>:
   8c5dc:	a9bb7bfd 	stp	x29, x30, [sp, #-80]!
   8c5e0:	910003fd 	mov	x29, sp
   8c5e4:	f90017e0 	str	x0, [sp, #40]
   8c5e8:	f90013e1 	str	x1, [sp, #32]
   8c5ec:	f9000fe2 	str	x2, [sp, #24]
   8c5f0:	f94017e0 	ldr	x0, [sp, #40]
   8c5f4:	f9001be0 	str	x0, [sp, #48]
   8c5f8:	f90027ff 	str	xzr, [sp, #72]
   8c5fc:	f90023ff 	str	xzr, [sp, #64]
   8c600:	b9003fff 	str	wzr, [sp, #60]
   8c604:	12800000 	mov	w0, #0xffffffff            	// #-1
   8c608:	790077e0 	strh	w0, [sp, #58]
   8c60c:	f94017e0 	ldr	x0, [sp, #40]
   8c610:	f100001f 	cmp	x0, #0x0
   8c614:	54000061 	b.ne	8c620 <CEcoInterfaceBus1_42757331_RegisterComponent+0x44>  // b.any
   8c618:	12800000 	mov	w0, #0xffffffff            	// #-1
   8c61c:	14000081 	b	8c820 <CEcoInterfaceBus1_42757331_RegisterComponent+0x244>
   8c620:	f9401be0 	ldr	x0, [sp, #48]
   8c624:	f9401400 	ldr	x0, [x0, #40]
   8c628:	f9400000 	ldr	x0, [x0]
   8c62c:	91012000 	add	x0, x0, #0x48
   8c630:	f90027e0 	str	x0, [sp, #72]
   8c634:	f9401be0 	ldr	x0, [sp, #48]
   8c638:	f9401400 	ldr	x0, [x0, #40]
   8c63c:	f9400000 	ldr	x0, [x0]
   8c640:	f90023e0 	str	x0, [sp, #64]
   8c644:	f94027e0 	ldr	x0, [sp, #72]
   8c648:	f9401c00 	ldr	x0, [x0, #56]
   8c64c:	f100001f 	cmp	x0, #0x0
   8c650:	54000361 	b.ne	8c6bc <CEcoInterfaceBus1_42757331_RegisterComponent+0xe0>  // b.any
   8c654:	f94027e0 	ldr	x0, [sp, #72]
   8c658:	52800021 	mov	w1, #0x1                   	// #1
   8c65c:	b9001801 	str	w1, [x0, #24]
   8c660:	f94027e0 	ldr	x0, [sp, #72]
   8c664:	f94013e1 	ldr	x1, [sp, #32]
   8c668:	f9001801 	str	x1, [x0, #48]
   8c66c:	f94027e0 	ldr	x0, [sp, #72]
   8c670:	f9400fe1 	ldr	x1, [sp, #24]
   8c674:	f9001c01 	str	x1, [x0, #56]
   8c678:	f94027e0 	ldr	x0, [sp, #72]
   8c67c:	94000243 	bl	8cf88 <CEcoInterfaceBus1_42757331_init_virtual_table>
   8c680:	f9401be0 	ldr	x0, [sp, #48]
   8c684:	f9401400 	ldr	x0, [x0, #40]
   8c688:	f9400000 	ldr	x0, [x0]
   8c68c:	f9401401 	ldr	x1, [x0, #40]
   8c690:	f94027e0 	ldr	x0, [sp, #72]
   8c694:	f9001401 	str	x1, [x0, #40]
   8c698:	f94023e1 	ldr	x1, [sp, #64]
   8c69c:	f94027e0 	ldr	x0, [sp, #72]
   8c6a0:	eb00003f 	cmp	x1, x0
   8c6a4:	54000080 	b.eq	8c6b4 <CEcoInterfaceBus1_42757331_RegisterComponent+0xd8>  // b.none
   8c6a8:	f94023e0 	ldr	x0, [sp, #64]
   8c6ac:	f94027e1 	ldr	x1, [sp, #72]
   8c6b0:	f9002001 	str	x1, [x0, #64]
   8c6b4:	790077ff 	strh	wzr, [sp, #58]
   8c6b8:	14000059 	b	8c81c <CEcoInterfaceBus1_42757331_RegisterComponent+0x240>
   8c6bc:	f94027e0 	ldr	x0, [sp, #72]
   8c6c0:	f90023e0 	str	x0, [sp, #64]
   8c6c4:	b9403fe0 	ldr	w0, [sp, #60]
   8c6c8:	11000400 	add	w0, w0, #0x1
   8c6cc:	b9003fe0 	str	w0, [sp, #60]
   8c6d0:	b9403fe0 	ldr	w0, [sp, #60]
   8c6d4:	7100101f 	cmp	w0, #0x4
   8c6d8:	54000148 	b.hi	8c700 <CEcoInterfaceBus1_42757331_RegisterComponent+0x124>  // b.pmore
   8c6dc:	f9401be0 	ldr	x0, [sp, #48]
   8c6e0:	f9401400 	ldr	x0, [x0, #40]
   8c6e4:	f9400001 	ldr	x1, [x0]
   8c6e8:	b9403fe2 	ldr	w2, [sp, #60]
   8c6ec:	d2800900 	mov	x0, #0x48                  	// #72
   8c6f0:	9b007c40 	mul	x0, x2, x0
   8c6f4:	8b000020 	add	x0, x1, x0
   8c6f8:	f90027e0 	str	x0, [sp, #72]
   8c6fc:	14000045 	b	8c810 <CEcoInterfaceBus1_42757331_RegisterComponent+0x234>
   8c700:	f94027e0 	ldr	x0, [sp, #72]
   8c704:	f9402000 	ldr	x0, [x0, #64]
   8c708:	f100001f 	cmp	x0, #0x0
   8c70c:	540000a0 	b.eq	8c720 <CEcoInterfaceBus1_42757331_RegisterComponent+0x144>  // b.none
   8c710:	f94027e0 	ldr	x0, [sp, #72]
   8c714:	f9402000 	ldr	x0, [x0, #64]
   8c718:	f90027e0 	str	x0, [sp, #72]
   8c71c:	1400003d 	b	8c810 <CEcoInterfaceBus1_42757331_RegisterComponent+0x234>
   8c720:	f9401be0 	ldr	x0, [sp, #48]
   8c724:	f9401400 	ldr	x0, [x0, #40]
   8c728:	39410000 	ldrb	w0, [x0, #64]
   8c72c:	7100001f 	cmp	w0, #0x0
   8c730:	54000700 	b.eq	8c810 <CEcoInterfaceBus1_42757331_RegisterComponent+0x234>  // b.none
   8c734:	79c077e0 	ldrsh	w0, [sp, #58]
   8c738:	7100001f 	cmp	w0, #0x0
   8c73c:	540006a0 	b.eq	8c810 <CEcoInterfaceBus1_42757331_RegisterComponent+0x234>  // b.none
   8c740:	f9401be0 	ldr	x0, [sp, #48]
   8c744:	f9401400 	ldr	x0, [x0, #40]
   8c748:	f9401800 	ldr	x0, [x0, #48]
   8c74c:	f100001f 	cmp	x0, #0x0
   8c750:	54000361 	b.ne	8c7bc <CEcoInterfaceBus1_42757331_RegisterComponent+0x1e0>  // b.any
   8c754:	f94017e0 	ldr	x0, [sp, #40]
   8c758:	f9400000 	ldr	x0, [x0]
   8c75c:	f9401c05 	ldr	x5, [x0, #56]
   8c760:	f9401be0 	ldr	x0, [sp, #48]
   8c764:	f9401400 	ldr	x0, [x0, #40]
   8c768:	f9401c01 	ldr	x1, [x0, #56]
   8c76c:	f9401be0 	ldr	x0, [sp, #48]
   8c770:	f9401400 	ldr	x0, [x0, #40]
   8c774:	9100c000 	add	x0, x0, #0x30
   8c778:	aa0003e4 	mov	x4, x0
   8c77c:	b0000420 	adrp	x0, 111000 <GID_IEcoSystem_AARCH64>
   8c780:	910ae003 	add	x3, x0, #0x2b8
   8c784:	d2800002 	mov	x2, #0x0                   	// #0
   8c788:	f94017e0 	ldr	x0, [sp, #40]
   8c78c:	d63f00a0 	blr	x5
   8c790:	790077e0 	strh	w0, [sp, #58]
   8c794:	79c077e0 	ldrsh	w0, [sp, #58]
   8c798:	7100001f 	cmp	w0, #0x0
   8c79c:	540000c1 	b.ne	8c7b4 <CEcoInterfaceBus1_42757331_RegisterComponent+0x1d8>  // b.any
   8c7a0:	f9401be0 	ldr	x0, [sp, #48]
   8c7a4:	f9401400 	ldr	x0, [x0, #40]
   8c7a8:	f9401800 	ldr	x0, [x0, #48]
   8c7ac:	f100001f 	cmp	x0, #0x0
   8c7b0:	54000061 	b.ne	8c7bc <CEcoInterfaceBus1_42757331_RegisterComponent+0x1e0>  // b.any
   8c7b4:	79c077e0 	ldrsh	w0, [sp, #58]
   8c7b8:	1400001a 	b	8c820 <CEcoInterfaceBus1_42757331_RegisterComponent+0x244>
   8c7bc:	f9401be0 	ldr	x0, [sp, #48]
   8c7c0:	f9401400 	ldr	x0, [x0, #40]
   8c7c4:	f9401800 	ldr	x0, [x0, #48]
   8c7c8:	f9400000 	ldr	x0, [x0]
   8c7cc:	f9400c02 	ldr	x2, [x0, #24]
   8c7d0:	f9401be0 	ldr	x0, [sp, #48]
   8c7d4:	f9401400 	ldr	x0, [x0, #40]
   8c7d8:	f9401800 	ldr	x0, [x0, #48]
   8c7dc:	52800901 	mov	w1, #0x48                  	// #72
   8c7e0:	d63f0040 	blr	x2
   8c7e4:	f90027e0 	str	x0, [sp, #72]
   8c7e8:	f94027e0 	ldr	x0, [sp, #72]
   8c7ec:	f100001f 	cmp	x0, #0x0
   8c7f0:	54000061 	b.ne	8c7fc <CEcoInterfaceBus1_42757331_RegisterComponent+0x220>  // b.any
   8c7f4:	79c077e0 	ldrsh	w0, [sp, #58]
   8c7f8:	1400000a 	b	8c820 <CEcoInterfaceBus1_42757331_RegisterComponent+0x244>
   8c7fc:	f94027e0 	ldr	x0, [sp, #72]
   8c800:	f9001c1f 	str	xzr, [x0, #56]
   8c804:	f94027e0 	ldr	x0, [sp, #72]
   8c808:	f900201f 	str	xzr, [x0, #64]
   8c80c:	d503201f 	nop
   8c810:	f94027e0 	ldr	x0, [sp, #72]
   8c814:	f100001f 	cmp	x0, #0x0
   8c818:	54fff161 	b.ne	8c644 <CEcoInterfaceBus1_42757331_RegisterComponent+0x68>  // b.any
   8c81c:	79c077e0 	ldrsh	w0, [sp, #58]
   8c820:	a8c57bfd 	ldp	x29, x30, [sp], #80
   8c824:	d65f03c0 	ret

000000000008c828 <CEcoInterfaceBus1_42757331_UnRegisterComponent>:
   8c828:	a9bc7bfd 	stp	x29, x30, [sp, #-64]!
   8c82c:	910003fd 	mov	x29, sp
   8c830:	f9000fe0 	str	x0, [sp, #24]
   8c834:	f9000be1 	str	x1, [sp, #16]
   8c838:	f9400fe0 	ldr	x0, [sp, #24]
   8c83c:	f90017e0 	str	x0, [sp, #40]
   8c840:	f9001fff 	str	xzr, [sp, #56]
   8c844:	12800000 	mov	w0, #0xffffffff            	// #-1
   8c848:	79006fe0 	strh	w0, [sp, #54]
   8c84c:	f9400fe0 	ldr	x0, [sp, #24]
   8c850:	f100001f 	cmp	x0, #0x0
   8c854:	54000061 	b.ne	8c860 <CEcoInterfaceBus1_42757331_UnRegisterComponent+0x38>  // b.any
   8c858:	12800000 	mov	w0, #0xffffffff            	// #-1
   8c85c:	1400001d 	b	8c8d0 <CEcoInterfaceBus1_42757331_UnRegisterComponent+0xa8>
   8c860:	f94017e0 	ldr	x0, [sp, #40]
   8c864:	f9401400 	ldr	x0, [x0, #40]
   8c868:	f9400000 	ldr	x0, [x0]
   8c86c:	91012000 	add	x0, x0, #0x48
   8c870:	f9001fe0 	str	x0, [sp, #56]
   8c874:	f9401fe0 	ldr	x0, [sp, #56]
   8c878:	f9401800 	ldr	x0, [x0, #48]
   8c87c:	aa0003e1 	mov	x1, x0
   8c880:	f9400be0 	ldr	x0, [sp, #16]
   8c884:	97fffdd9 	bl	8bfe8 <IsEqualUGUID_00000000000000000000000042757331>
   8c888:	12001c00 	and	w0, w0, #0xff
   8c88c:	7100001f 	cmp	w0, #0x0
   8c890:	54000120 	b.eq	8c8b4 <CEcoInterfaceBus1_42757331_UnRegisterComponent+0x8c>  // b.none
   8c894:	f9401fe0 	ldr	x0, [sp, #56]
   8c898:	f9001c1f 	str	xzr, [x0, #56]
   8c89c:	f9401fe0 	ldr	x0, [sp, #56]
   8c8a0:	b900181f 	str	wzr, [x0, #24]
   8c8a4:	f9401fe0 	ldr	x0, [sp, #56]
   8c8a8:	f900181f 	str	xzr, [x0, #48]
   8c8ac:	79006fff 	strh	wzr, [sp, #54]
   8c8b0:	14000007 	b	8c8cc <CEcoInterfaceBus1_42757331_UnRegisterComponent+0xa4>
   8c8b4:	f9401fe0 	ldr	x0, [sp, #56]
   8c8b8:	f9402000 	ldr	x0, [x0, #64]
   8c8bc:	f9001fe0 	str	x0, [sp, #56]
   8c8c0:	f9401fe0 	ldr	x0, [sp, #56]
   8c8c4:	f100001f 	cmp	x0, #0x0
   8c8c8:	54fffd61 	b.ne	8c874 <CEcoInterfaceBus1_42757331_UnRegisterComponent+0x4c>  // b.any
   8c8cc:	79c06fe0 	ldrsh	w0, [sp, #54]
   8c8d0:	a8c47bfd 	ldp	x29, x30, [sp], #64
   8c8d4:	d65f03c0 	ret

000000000008c8d8 <CEcoInterfaceBus1_42757331_QueryComponent>:
   8c8d8:	a9b97bfd 	stp	x29, x30, [sp, #-112]!
   8c8dc:	910003fd 	mov	x29, sp
   8c8e0:	f9001fe0 	str	x0, [sp, #56]
   8c8e4:	f9001be1 	str	x1, [sp, #48]
   8c8e8:	f90017e2 	str	x2, [sp, #40]
   8c8ec:	f90013e3 	str	x3, [sp, #32]
   8c8f0:	f9000fe4 	str	x4, [sp, #24]
   8c8f4:	f9401fe0 	ldr	x0, [sp, #56]
   8c8f8:	f9002fe0 	str	x0, [sp, #88]
   8c8fc:	f90037ff 	str	xzr, [sp, #104]
   8c900:	f9002bff 	str	xzr, [sp, #80]
   8c904:	f90027ff 	str	xzr, [sp, #72]
   8c908:	12800000 	mov	w0, #0xffffffff            	// #-1
   8c90c:	7900cfe0 	strh	w0, [sp, #102]
   8c910:	b0000420 	adrp	x0, 111000 <GID_IEcoSystem_AARCH64>
   8c914:	9107e000 	add	x0, x0, #0x1f8
   8c918:	f90023e0 	str	x0, [sp, #64]
   8c91c:	f9401fe0 	ldr	x0, [sp, #56]
   8c920:	f100001f 	cmp	x0, #0x0
   8c924:	54000061 	b.ne	8c930 <CEcoInterfaceBus1_42757331_QueryComponent+0x58>  // b.any
   8c928:	12800000 	mov	w0, #0xffffffff            	// #-1
   8c92c:	1400002c 	b	8c9dc <CEcoInterfaceBus1_42757331_QueryComponent+0x104>
   8c930:	f9402fe0 	ldr	x0, [sp, #88]
   8c934:	f9401400 	ldr	x0, [x0, #40]
   8c938:	f9400000 	ldr	x0, [x0]
   8c93c:	f90037e0 	str	x0, [sp, #104]
   8c940:	f94037e0 	ldr	x0, [sp, #104]
   8c944:	f9401800 	ldr	x0, [x0, #48]
   8c948:	aa0003e1 	mov	x1, x0
   8c94c:	f9401be0 	ldr	x0, [sp, #48]
   8c950:	97fffda6 	bl	8bfe8 <IsEqualUGUID_00000000000000000000000042757331>
   8c954:	12001c00 	and	w0, w0, #0xff
   8c958:	7100001f 	cmp	w0, #0x0
   8c95c:	54000320 	b.eq	8c9c0 <CEcoInterfaceBus1_42757331_QueryComponent+0xe8>  // b.none
   8c960:	f94037e0 	ldr	x0, [sp, #104]
   8c964:	f9401c00 	ldr	x0, [x0, #56]
   8c968:	f9002be0 	str	x0, [sp, #80]
   8c96c:	f94037e0 	ldr	x0, [sp, #104]
   8c970:	f9401c00 	ldr	x0, [x0, #56]
   8c974:	f9400000 	ldr	x0, [x0]
   8c978:	f90027e0 	str	x0, [sp, #72]
   8c97c:	f9402be0 	ldr	x0, [sp, #80]
   8c980:	f9400000 	ldr	x0, [x0]
   8c984:	f9400c05 	ldr	x5, [x0, #24]
   8c988:	f94037e0 	ldr	x0, [sp, #104]
   8c98c:	91002000 	add	x0, x0, #0x8
   8c990:	f9400fe4 	ldr	x4, [sp, #24]
   8c994:	f94013e3 	ldr	x3, [sp, #32]
   8c998:	f94017e2 	ldr	x2, [sp, #40]
   8c99c:	aa0003e1 	mov	x1, x0
   8c9a0:	f9402be0 	ldr	x0, [sp, #80]
   8c9a4:	d63f00a0 	blr	x5
   8c9a8:	7900cfe0 	strh	w0, [sp, #102]
   8c9ac:	f94037e0 	ldr	x0, [sp, #104]
   8c9b0:	f9401c00 	ldr	x0, [x0, #56]
   8c9b4:	f94027e1 	ldr	x1, [sp, #72]
   8c9b8:	f9000001 	str	x1, [x0]
   8c9bc:	14000007 	b	8c9d8 <CEcoInterfaceBus1_42757331_QueryComponent+0x100>
   8c9c0:	f94037e0 	ldr	x0, [sp, #104]
   8c9c4:	f9402000 	ldr	x0, [x0, #64]
   8c9c8:	f90037e0 	str	x0, [sp, #104]
   8c9cc:	f94037e0 	ldr	x0, [sp, #104]
   8c9d0:	f100001f 	cmp	x0, #0x0
   8c9d4:	54fffb61 	b.ne	8c940 <CEcoInterfaceBus1_42757331_QueryComponent+0x68>  // b.any
   8c9d8:	79c0cfe0 	ldrsh	w0, [sp, #102]
   8c9dc:	a8c77bfd 	ldp	x29, x30, [sp], #112
   8c9e0:	d65f03c0 	ret

000000000008c9e4 <CEcoInterfaceBus1_42757331_IEcoSystem1_QueryInterface>:
   8c9e4:	a9bc7bfd 	stp	x29, x30, [sp, #-64]!
   8c9e8:	910003fd 	mov	x29, sp
   8c9ec:	f90017e0 	str	x0, [sp, #40]
   8c9f0:	f90013e1 	str	x1, [sp, #32]
   8c9f4:	f9000fe2 	str	x2, [sp, #24]
   8c9f8:	f94017e0 	ldr	x0, [sp, #40]
   8c9fc:	d1002000 	sub	x0, x0, #0x8
   8ca00:	f9001fe0 	str	x0, [sp, #56]
   8ca04:	f94017e0 	ldr	x0, [sp, #40]
   8ca08:	f100001f 	cmp	x0, #0x0
   8ca0c:	54000080 	b.eq	8ca1c <CEcoInterfaceBus1_42757331_IEcoSystem1_QueryInterface+0x38>  // b.none
   8ca10:	f9400fe0 	ldr	x0, [sp, #24]
   8ca14:	f100001f 	cmp	x0, #0x0
   8ca18:	54000061 	b.ne	8ca24 <CEcoInterfaceBus1_42757331_IEcoSystem1_QueryInterface+0x40>  // b.any
   8ca1c:	12800220 	mov	w0, #0xffffffee            	// #-18
   8ca20:	14000049 	b	8cb44 <CEcoInterfaceBus1_42757331_IEcoSystem1_QueryInterface+0x160>
   8ca24:	b0000420 	adrp	x0, 111000 <GID_IEcoSystem_AARCH64>
   8ca28:	9109c001 	add	x1, x0, #0x270
   8ca2c:	f94013e0 	ldr	x0, [sp, #32]
   8ca30:	97fffd6e 	bl	8bfe8 <IsEqualUGUID_00000000000000000000000042757331>
   8ca34:	12001c00 	and	w0, w0, #0xff
   8ca38:	7100001f 	cmp	w0, #0x0
   8ca3c:	54000140 	b.eq	8ca64 <CEcoInterfaceBus1_42757331_IEcoSystem1_QueryInterface+0x80>  // b.none
   8ca40:	f9401fe1 	ldr	x1, [sp, #56]
   8ca44:	f9400fe0 	ldr	x0, [sp, #24]
   8ca48:	f9000001 	str	x1, [x0]
   8ca4c:	f9401fe0 	ldr	x0, [sp, #56]
   8ca50:	f9400000 	ldr	x0, [x0]
   8ca54:	f9400401 	ldr	x1, [x0, #8]
   8ca58:	f9401fe0 	ldr	x0, [sp, #56]
   8ca5c:	d63f0020 	blr	x1
   8ca60:	14000038 	b	8cb40 <CEcoInterfaceBus1_42757331_IEcoSystem1_QueryInterface+0x15c>
   8ca64:	b0000420 	adrp	x0, 111000 <GID_IEcoSystem_AARCH64>
   8ca68:	9107e001 	add	x1, x0, #0x1f8
   8ca6c:	f94013e0 	ldr	x0, [sp, #32]
   8ca70:	97fffd5e 	bl	8bfe8 <IsEqualUGUID_00000000000000000000000042757331>
   8ca74:	12001c00 	and	w0, w0, #0xff
   8ca78:	7100001f 	cmp	w0, #0x0
   8ca7c:	54000160 	b.eq	8caa8 <CEcoInterfaceBus1_42757331_IEcoSystem1_QueryInterface+0xc4>  // b.none
   8ca80:	f9401fe0 	ldr	x0, [sp, #56]
   8ca84:	91002001 	add	x1, x0, #0x8
   8ca88:	f9400fe0 	ldr	x0, [sp, #24]
   8ca8c:	f9000001 	str	x1, [x0]
   8ca90:	f9401fe0 	ldr	x0, [sp, #56]
   8ca94:	f9400000 	ldr	x0, [x0]
   8ca98:	f9400401 	ldr	x1, [x0, #8]
   8ca9c:	f9401fe0 	ldr	x0, [sp, #56]
   8caa0:	d63f0020 	blr	x1
   8caa4:	14000027 	b	8cb40 <CEcoInterfaceBus1_42757331_IEcoSystem1_QueryInterface+0x15c>
   8caa8:	b0000420 	adrp	x0, 111000 <GID_IEcoSystem_AARCH64>
   8caac:	910ba001 	add	x1, x0, #0x2e8
   8cab0:	f94013e0 	ldr	x0, [sp, #32]
   8cab4:	97fffd4d 	bl	8bfe8 <IsEqualUGUID_00000000000000000000000042757331>
   8cab8:	12001c00 	and	w0, w0, #0xff
   8cabc:	7100001f 	cmp	w0, #0x0
   8cac0:	54000160 	b.eq	8caec <CEcoInterfaceBus1_42757331_IEcoSystem1_QueryInterface+0x108>  // b.none
   8cac4:	f9401fe0 	ldr	x0, [sp, #56]
   8cac8:	91004001 	add	x1, x0, #0x10
   8cacc:	f9400fe0 	ldr	x0, [sp, #24]
   8cad0:	f9000001 	str	x1, [x0]
   8cad4:	f9401fe0 	ldr	x0, [sp, #56]
   8cad8:	f9400000 	ldr	x0, [x0]
   8cadc:	f9400401 	ldr	x1, [x0, #8]
   8cae0:	f9401fe0 	ldr	x0, [sp, #56]
   8cae4:	d63f0020 	blr	x1
   8cae8:	14000016 	b	8cb40 <CEcoInterfaceBus1_42757331_IEcoSystem1_QueryInterface+0x15c>
   8caec:	b0000420 	adrp	x0, 111000 <GID_IEcoSystem_AARCH64>
   8caf0:	91042001 	add	x1, x0, #0x108
   8caf4:	f94013e0 	ldr	x0, [sp, #32]
   8caf8:	97fffd3c 	bl	8bfe8 <IsEqualUGUID_00000000000000000000000042757331>
   8cafc:	12001c00 	and	w0, w0, #0xff
   8cb00:	7100001f 	cmp	w0, #0x0
   8cb04:	54000160 	b.eq	8cb30 <CEcoInterfaceBus1_42757331_IEcoSystem1_QueryInterface+0x14c>  // b.none
   8cb08:	f9401fe0 	ldr	x0, [sp, #56]
   8cb0c:	91002001 	add	x1, x0, #0x8
   8cb10:	f9400fe0 	ldr	x0, [sp, #24]
   8cb14:	f9000001 	str	x1, [x0]
   8cb18:	f9401fe0 	ldr	x0, [sp, #56]
   8cb1c:	f9400000 	ldr	x0, [x0]
   8cb20:	f9400401 	ldr	x1, [x0, #8]
   8cb24:	f9401fe0 	ldr	x0, [sp, #56]
   8cb28:	d63f0020 	blr	x1
   8cb2c:	14000005 	b	8cb40 <CEcoInterfaceBus1_42757331_IEcoSystem1_QueryInterface+0x15c>
   8cb30:	f9400fe0 	ldr	x0, [sp, #24]
   8cb34:	f900001f 	str	xzr, [x0]
   8cb38:	12800240 	mov	w0, #0xffffffed            	// #-19
   8cb3c:	14000002 	b	8cb44 <CEcoInterfaceBus1_42757331_IEcoSystem1_QueryInterface+0x160>
   8cb40:	52800000 	mov	w0, #0x0                   	// #0
   8cb44:	a8c47bfd 	ldp	x29, x30, [sp], #64
   8cb48:	d65f03c0 	ret

000000000008cb4c <CEcoInterfaceBus1_42757331_IEcoSystem1_AddRef>:
   8cb4c:	d10083ff 	sub	sp, sp, #0x20
   8cb50:	f90007e0 	str	x0, [sp, #8]
   8cb54:	f94007e0 	ldr	x0, [sp, #8]
   8cb58:	d1002000 	sub	x0, x0, #0x8
   8cb5c:	f9000fe0 	str	x0, [sp, #24]
   8cb60:	f94007e0 	ldr	x0, [sp, #8]
   8cb64:	f100001f 	cmp	x0, #0x0
   8cb68:	54000061 	b.ne	8cb74 <CEcoInterfaceBus1_42757331_IEcoSystem1_AddRef+0x28>  // b.any
   8cb6c:	12800000 	mov	w0, #0xffffffff            	// #-1
   8cb70:	14000006 	b	8cb88 <CEcoInterfaceBus1_42757331_IEcoSystem1_AddRef+0x3c>
   8cb74:	f9400fe0 	ldr	x0, [sp, #24]
   8cb78:	b9401800 	ldr	w0, [x0, #24]
   8cb7c:	11000402 	add	w2, w0, #0x1
   8cb80:	f9400fe1 	ldr	x1, [sp, #24]
   8cb84:	b9001822 	str	w2, [x1, #24]
   8cb88:	910083ff 	add	sp, sp, #0x20
   8cb8c:	d65f03c0 	ret

000000000008cb90 <CEcoInterfaceBus1_42757331_IEcoSystem1_Release>:
   8cb90:	d10083ff 	sub	sp, sp, #0x20
   8cb94:	f90007e0 	str	x0, [sp, #8]
   8cb98:	f94007e0 	ldr	x0, [sp, #8]
   8cb9c:	d1002000 	sub	x0, x0, #0x8
   8cba0:	f9000fe0 	str	x0, [sp, #24]
   8cba4:	f94007e0 	ldr	x0, [sp, #8]
   8cba8:	f100001f 	cmp	x0, #0x0
   8cbac:	54000061 	b.ne	8cbb8 <CEcoInterfaceBus1_42757331_IEcoSystem1_Release+0x28>  // b.any
   8cbb0:	12800000 	mov	w0, #0xffffffff            	// #-1
   8cbb4:	1400000e 	b	8cbec <CEcoInterfaceBus1_42757331_IEcoSystem1_Release+0x5c>
   8cbb8:	f9400fe0 	ldr	x0, [sp, #24]
   8cbbc:	b9401800 	ldr	w0, [x0, #24]
   8cbc0:	51000401 	sub	w1, w0, #0x1
   8cbc4:	f9400fe0 	ldr	x0, [sp, #24]
   8cbc8:	b9001801 	str	w1, [x0, #24]
   8cbcc:	f9400fe0 	ldr	x0, [sp, #24]
   8cbd0:	b9401800 	ldr	w0, [x0, #24]
   8cbd4:	7100001f 	cmp	w0, #0x0
   8cbd8:	54000061 	b.ne	8cbe4 <CEcoInterfaceBus1_42757331_IEcoSystem1_Release+0x54>  // b.any
   8cbdc:	52800000 	mov	w0, #0x0                   	// #0
   8cbe0:	14000003 	b	8cbec <CEcoInterfaceBus1_42757331_IEcoSystem1_Release+0x5c>
   8cbe4:	f9400fe0 	ldr	x0, [sp, #24]
   8cbe8:	b9401800 	ldr	w0, [x0, #24]
   8cbec:	910083ff 	add	sp, sp, #0x20
   8cbf0:	d65f03c0 	ret

000000000008cbf4 <CEcoInterfaceBus1_42757331_IEcoSystem1_set_Data>:
   8cbf4:	d10083ff 	sub	sp, sp, #0x20
   8cbf8:	f90007e0 	str	x0, [sp, #8]
   8cbfc:	f90003e1 	str	x1, [sp]
   8cc00:	f94007e0 	ldr	x0, [sp, #8]
   8cc04:	d1002000 	sub	x0, x0, #0x8
   8cc08:	f9000fe0 	str	x0, [sp, #24]
   8cc0c:	f94007e0 	ldr	x0, [sp, #8]
   8cc10:	f100001f 	cmp	x0, #0x0
   8cc14:	540000a0 	b.eq	8cc28 <CEcoInterfaceBus1_42757331_IEcoSystem1_set_Data+0x34>  // b.none
   8cc18:	f9400fe0 	ldr	x0, [sp, #24]
   8cc1c:	f94003e1 	ldr	x1, [sp]
   8cc20:	f9001001 	str	x1, [x0, #32]
   8cc24:	14000002 	b	8cc2c <CEcoInterfaceBus1_42757331_IEcoSystem1_set_Data+0x38>
   8cc28:	d503201f 	nop
   8cc2c:	910083ff 	add	sp, sp, #0x20
   8cc30:	d65f03c0 	ret

000000000008cc34 <CEcoInterfaceBus1_42757331_IEcoSystem1_get_Data>:
   8cc34:	d10083ff 	sub	sp, sp, #0x20
   8cc38:	f90007e0 	str	x0, [sp, #8]
   8cc3c:	f94007e0 	ldr	x0, [sp, #8]
   8cc40:	d1002000 	sub	x0, x0, #0x8
   8cc44:	f9000fe0 	str	x0, [sp, #24]
   8cc48:	f94007e0 	ldr	x0, [sp, #8]
   8cc4c:	f100001f 	cmp	x0, #0x0
   8cc50:	54000061 	b.ne	8cc5c <CEcoInterfaceBus1_42757331_IEcoSystem1_get_Data+0x28>  // b.any
   8cc54:	d2800000 	mov	x0, #0x0                   	// #0
   8cc58:	14000003 	b	8cc64 <CEcoInterfaceBus1_42757331_IEcoSystem1_get_Data+0x30>
   8cc5c:	f9400fe0 	ldr	x0, [sp, #24]
   8cc60:	f9401000 	ldr	x0, [x0, #32]
   8cc64:	910083ff 	add	sp, sp, #0x20
   8cc68:	d65f03c0 	ret

000000000008cc6c <CEcoInterfaceBus1_42757331_IEcoInterfaceBus1MemExt_QueryInterface>:
   8cc6c:	a9bc7bfd 	stp	x29, x30, [sp, #-64]!
   8cc70:	910003fd 	mov	x29, sp
   8cc74:	f90017e0 	str	x0, [sp, #40]
   8cc78:	f90013e1 	str	x1, [sp, #32]
   8cc7c:	f9000fe2 	str	x2, [sp, #24]
   8cc80:	f94017e0 	ldr	x0, [sp, #40]
   8cc84:	d1004000 	sub	x0, x0, #0x10
   8cc88:	f9001fe0 	str	x0, [sp, #56]
   8cc8c:	f94017e0 	ldr	x0, [sp, #40]
   8cc90:	f100001f 	cmp	x0, #0x0
   8cc94:	54000080 	b.eq	8cca4 <CEcoInterfaceBus1_42757331_IEcoInterfaceBus1MemExt_QueryInterface+0x38>  // b.none
   8cc98:	f9400fe0 	ldr	x0, [sp, #24]
   8cc9c:	f100001f 	cmp	x0, #0x0
   8cca0:	54000061 	b.ne	8ccac <CEcoInterfaceBus1_42757331_IEcoInterfaceBus1MemExt_QueryInterface+0x40>  // b.any
   8cca4:	12800220 	mov	w0, #0xffffffee            	// #-18
   8cca8:	14000048 	b	8cdc8 <CEcoInterfaceBus1_42757331_IEcoInterfaceBus1MemExt_QueryInterface+0x15c>
   8ccac:	b0000420 	adrp	x0, 111000 <GID_IEcoSystem_AARCH64>
   8ccb0:	9109c001 	add	x1, x0, #0x270
   8ccb4:	f94013e0 	ldr	x0, [sp, #32]
   8ccb8:	97fffccc 	bl	8bfe8 <IsEqualUGUID_00000000000000000000000042757331>
   8ccbc:	12001c00 	and	w0, w0, #0xff
   8ccc0:	7100001f 	cmp	w0, #0x0
   8ccc4:	54000140 	b.eq	8ccec <CEcoInterfaceBus1_42757331_IEcoInterfaceBus1MemExt_QueryInterface+0x80>  // b.none
   8ccc8:	f9401fe1 	ldr	x1, [sp, #56]
   8cccc:	f9400fe0 	ldr	x0, [sp, #24]
   8ccd0:	f9000001 	str	x1, [x0]
   8ccd4:	f9401fe0 	ldr	x0, [sp, #56]
   8ccd8:	f9400000 	ldr	x0, [x0]
   8ccdc:	f9400401 	ldr	x1, [x0, #8]
   8cce0:	f9401fe0 	ldr	x0, [sp, #56]
   8cce4:	d63f0020 	blr	x1
   8cce8:	14000037 	b	8cdc4 <CEcoInterfaceBus1_42757331_IEcoInterfaceBus1MemExt_QueryInterface+0x158>
   8ccec:	b0000420 	adrp	x0, 111000 <GID_IEcoSystem_AARCH64>
   8ccf0:	9107e001 	add	x1, x0, #0x1f8
   8ccf4:	f94013e0 	ldr	x0, [sp, #32]
   8ccf8:	97fffcbc 	bl	8bfe8 <IsEqualUGUID_00000000000000000000000042757331>
   8ccfc:	12001c00 	and	w0, w0, #0xff
   8cd00:	7100001f 	cmp	w0, #0x0
   8cd04:	54000160 	b.eq	8cd30 <CEcoInterfaceBus1_42757331_IEcoInterfaceBus1MemExt_QueryInterface+0xc4>  // b.none
   8cd08:	f9401fe0 	ldr	x0, [sp, #56]
   8cd0c:	91002001 	add	x1, x0, #0x8
   8cd10:	f9400fe0 	ldr	x0, [sp, #24]
   8cd14:	f9000001 	str	x1, [x0]
   8cd18:	f9401fe0 	ldr	x0, [sp, #56]
   8cd1c:	f9400000 	ldr	x0, [x0]
   8cd20:	f9400401 	ldr	x1, [x0, #8]
   8cd24:	f9401fe0 	ldr	x0, [sp, #56]
   8cd28:	d63f0020 	blr	x1
   8cd2c:	14000026 	b	8cdc4 <CEcoInterfaceBus1_42757331_IEcoInterfaceBus1MemExt_QueryInterface+0x158>
   8cd30:	b0000420 	adrp	x0, 111000 <GID_IEcoSystem_AARCH64>
   8cd34:	910ba001 	add	x1, x0, #0x2e8
   8cd38:	f94013e0 	ldr	x0, [sp, #32]
   8cd3c:	97fffcab 	bl	8bfe8 <IsEqualUGUID_00000000000000000000000042757331>
   8cd40:	12001c00 	and	w0, w0, #0xff
   8cd44:	7100001f 	cmp	w0, #0x0
   8cd48:	54000160 	b.eq	8cd74 <CEcoInterfaceBus1_42757331_IEcoInterfaceBus1MemExt_QueryInterface+0x108>  // b.none
   8cd4c:	f9401fe0 	ldr	x0, [sp, #56]
   8cd50:	91004001 	add	x1, x0, #0x10
   8cd54:	f9400fe0 	ldr	x0, [sp, #24]
   8cd58:	f9000001 	str	x1, [x0]
   8cd5c:	f9401fe0 	ldr	x0, [sp, #56]
   8cd60:	f9400000 	ldr	x0, [x0]
   8cd64:	f9400401 	ldr	x1, [x0, #8]
   8cd68:	f9401fe0 	ldr	x0, [sp, #56]
   8cd6c:	d63f0020 	blr	x1
   8cd70:	14000015 	b	8cdc4 <CEcoInterfaceBus1_42757331_IEcoInterfaceBus1MemExt_QueryInterface+0x158>
   8cd74:	b0000420 	adrp	x0, 111000 <GID_IEcoSystem_AARCH64>
   8cd78:	91042001 	add	x1, x0, #0x108
   8cd7c:	f94013e0 	ldr	x0, [sp, #32]
   8cd80:	97fffc9a 	bl	8bfe8 <IsEqualUGUID_00000000000000000000000042757331>
   8cd84:	12001c00 	and	w0, w0, #0xff
   8cd88:	7100001f 	cmp	w0, #0x0
   8cd8c:	54000140 	b.eq	8cdb4 <CEcoInterfaceBus1_42757331_IEcoInterfaceBus1MemExt_QueryInterface+0x148>  // b.none
   8cd90:	f9401fe1 	ldr	x1, [sp, #56]
   8cd94:	f9400fe0 	ldr	x0, [sp, #24]
   8cd98:	f9000001 	str	x1, [x0]
   8cd9c:	f9401fe0 	ldr	x0, [sp, #56]
   8cda0:	f9400000 	ldr	x0, [x0]
   8cda4:	f9400401 	ldr	x1, [x0, #8]
   8cda8:	f9401fe0 	ldr	x0, [sp, #56]
   8cdac:	d63f0020 	blr	x1
   8cdb0:	14000005 	b	8cdc4 <CEcoInterfaceBus1_42757331_IEcoInterfaceBus1MemExt_QueryInterface+0x158>
   8cdb4:	f9400fe0 	ldr	x0, [sp, #24]
   8cdb8:	f900001f 	str	xzr, [x0]
   8cdbc:	12800240 	mov	w0, #0xffffffed            	// #-19
   8cdc0:	14000002 	b	8cdc8 <CEcoInterfaceBus1_42757331_IEcoInterfaceBus1MemExt_QueryInterface+0x15c>
   8cdc4:	52800000 	mov	w0, #0x0                   	// #0
   8cdc8:	a8c47bfd 	ldp	x29, x30, [sp], #64
   8cdcc:	d65f03c0 	ret

000000000008cdd0 <CEcoInterfaceBus1_42757331_IEcoInterfaceBus1MemExt_AddRef>:
   8cdd0:	d10083ff 	sub	sp, sp, #0x20
   8cdd4:	f90007e0 	str	x0, [sp, #8]
   8cdd8:	f94007e0 	ldr	x0, [sp, #8]
   8cddc:	d1004000 	sub	x0, x0, #0x10
   8cde0:	f9000fe0 	str	x0, [sp, #24]
   8cde4:	f94007e0 	ldr	x0, [sp, #8]
   8cde8:	f100001f 	cmp	x0, #0x0
   8cdec:	54000061 	b.ne	8cdf8 <CEcoInterfaceBus1_42757331_IEcoInterfaceBus1MemExt_AddRef+0x28>  // b.any
   8cdf0:	12800000 	mov	w0, #0xffffffff            	// #-1
   8cdf4:	14000006 	b	8ce0c <CEcoInterfaceBus1_42757331_IEcoInterfaceBus1MemExt_AddRef+0x3c>
   8cdf8:	f9400fe0 	ldr	x0, [sp, #24]
   8cdfc:	b9401800 	ldr	w0, [x0, #24]
   8ce00:	11000402 	add	w2, w0, #0x1
   8ce04:	f9400fe1 	ldr	x1, [sp, #24]
   8ce08:	b9001822 	str	w2, [x1, #24]
   8ce0c:	910083ff 	add	sp, sp, #0x20
   8ce10:	d65f03c0 	ret

000000000008ce14 <CEcoInterfaceBus1_42757331_IEcoInterfaceBus1MemExt_Release>:
   8ce14:	a9bd7bfd 	stp	x29, x30, [sp, #-48]!
   8ce18:	910003fd 	mov	x29, sp
   8ce1c:	f9000fe0 	str	x0, [sp, #24]
   8ce20:	f9400fe0 	ldr	x0, [sp, #24]
   8ce24:	d1004000 	sub	x0, x0, #0x10
   8ce28:	f90017e0 	str	x0, [sp, #40]
   8ce2c:	f9400fe0 	ldr	x0, [sp, #24]
   8ce30:	f100001f 	cmp	x0, #0x0
   8ce34:	54000061 	b.ne	8ce40 <CEcoInterfaceBus1_42757331_IEcoInterfaceBus1MemExt_Release+0x2c>  // b.any
   8ce38:	12800000 	mov	w0, #0xffffffff            	// #-1
   8ce3c:	14000010 	b	8ce7c <CEcoInterfaceBus1_42757331_IEcoInterfaceBus1MemExt_Release+0x68>
   8ce40:	f94017e0 	ldr	x0, [sp, #40]
   8ce44:	b9401800 	ldr	w0, [x0, #24]
   8ce48:	51000401 	sub	w1, w0, #0x1
   8ce4c:	f94017e0 	ldr	x0, [sp, #40]
   8ce50:	b9001801 	str	w1, [x0, #24]
   8ce54:	f94017e0 	ldr	x0, [sp, #40]
   8ce58:	b9401800 	ldr	w0, [x0, #24]
   8ce5c:	7100001f 	cmp	w0, #0x0
   8ce60:	540000a1 	b.ne	8ce74 <CEcoInterfaceBus1_42757331_IEcoInterfaceBus1MemExt_Release+0x60>  // b.any
   8ce64:	f94017e0 	ldr	x0, [sp, #40]
   8ce68:	940000a0 	bl	8d0e8 <deleteCEcoInterfaceBus1_42757331>
   8ce6c:	52800000 	mov	w0, #0x0                   	// #0
   8ce70:	14000003 	b	8ce7c <CEcoInterfaceBus1_42757331_IEcoInterfaceBus1MemExt_Release+0x68>
   8ce74:	f94017e0 	ldr	x0, [sp, #40]
   8ce78:	b9401800 	ldr	w0, [x0, #24]
   8ce7c:	a8c37bfd 	ldp	x29, x30, [sp], #48
   8ce80:	d65f03c0 	ret

000000000008ce84 <CEcoInterfaceBus1_42757331_IEcoInterfaceBus1MemExt_set_Manager>:
   8ce84:	d10083ff 	sub	sp, sp, #0x20
   8ce88:	f90007e0 	str	x0, [sp, #8]
   8ce8c:	f90003e1 	str	x1, [sp]
   8ce90:	f94007e0 	ldr	x0, [sp, #8]
   8ce94:	d1004000 	sub	x0, x0, #0x10
   8ce98:	f9000fe0 	str	x0, [sp, #24]
   8ce9c:	f94007e0 	ldr	x0, [sp, #8]
   8cea0:	f100001f 	cmp	x0, #0x0
   8cea4:	54000080 	b.eq	8ceb4 <CEcoInterfaceBus1_42757331_IEcoInterfaceBus1MemExt_set_Manager+0x30>  // b.none
   8cea8:	f94003e0 	ldr	x0, [sp]
   8ceac:	f100001f 	cmp	x0, #0x0
   8ceb0:	54000061 	b.ne	8cebc <CEcoInterfaceBus1_42757331_IEcoInterfaceBus1MemExt_set_Manager+0x38>  // b.any
   8ceb4:	12800000 	mov	w0, #0xffffffff            	// #-1
   8ceb8:	14000006 	b	8ced0 <CEcoInterfaceBus1_42757331_IEcoInterfaceBus1MemExt_set_Manager+0x4c>
   8cebc:	f9400fe0 	ldr	x0, [sp, #24]
   8cec0:	f9401400 	ldr	x0, [x0, #40]
   8cec4:	f94003e1 	ldr	x1, [sp]
   8cec8:	f9001c01 	str	x1, [x0, #56]
   8cecc:	52800000 	mov	w0, #0x0                   	// #0
   8ced0:	910083ff 	add	sp, sp, #0x20
   8ced4:	d65f03c0 	ret

000000000008ced8 <CEcoInterfaceBus1_42757331_IEcoInterfaceBus1MemExt_get_Manager>:
   8ced8:	d10083ff 	sub	sp, sp, #0x20
   8cedc:	f90007e0 	str	x0, [sp, #8]
   8cee0:	f94007e0 	ldr	x0, [sp, #8]
   8cee4:	d1004000 	sub	x0, x0, #0x10
   8cee8:	f9000fe0 	str	x0, [sp, #24]
   8ceec:	f94007e0 	ldr	x0, [sp, #8]
   8cef0:	f100001f 	cmp	x0, #0x0
   8cef4:	54000061 	b.ne	8cf00 <CEcoInterfaceBus1_42757331_IEcoInterfaceBus1MemExt_get_Manager+0x28>  // b.any
   8cef8:	d2800000 	mov	x0, #0x0                   	// #0
   8cefc:	14000004 	b	8cf0c <CEcoInterfaceBus1_42757331_IEcoInterfaceBus1MemExt_get_Manager+0x34>
   8cf00:	f9400fe0 	ldr	x0, [sp, #24]
   8cf04:	f9401400 	ldr	x0, [x0, #40]
   8cf08:	f9401c00 	ldr	x0, [x0, #56]
   8cf0c:	910083ff 	add	sp, sp, #0x20
   8cf10:	d65f03c0 	ret

000000000008cf14 <CEcoInterfaceBus1_42757331_IEcoInterfaceBus1MemExt_set_ExpandPool>:
   8cf14:	d10083ff 	sub	sp, sp, #0x20
   8cf18:	f90007e0 	str	x0, [sp, #8]
   8cf1c:	39001fe1 	strb	w1, [sp, #7]
   8cf20:	f94007e0 	ldr	x0, [sp, #8]
   8cf24:	d1004000 	sub	x0, x0, #0x10
   8cf28:	f9000fe0 	str	x0, [sp, #24]
   8cf2c:	f94007e0 	ldr	x0, [sp, #8]
   8cf30:	f100001f 	cmp	x0, #0x0
   8cf34:	54000061 	b.ne	8cf40 <CEcoInterfaceBus1_42757331_IEcoInterfaceBus1MemExt_set_ExpandPool+0x2c>  // b.any
   8cf38:	12800000 	mov	w0, #0xffffffff            	// #-1
   8cf3c:	14000006 	b	8cf54 <CEcoInterfaceBus1_42757331_IEcoInterfaceBus1MemExt_set_ExpandPool+0x40>
   8cf40:	f9400fe0 	ldr	x0, [sp, #24]
   8cf44:	f9401400 	ldr	x0, [x0, #40]
   8cf48:	39401fe1 	ldrb	w1, [sp, #7]
   8cf4c:	39010001 	strb	w1, [x0, #64]
   8cf50:	52800000 	mov	w0, #0x0                   	// #0
   8cf54:	910083ff 	add	sp, sp, #0x20
   8cf58:	d65f03c0 	ret

000000000008cf5c <initCEcoInterfaceBus1_42757331>:
   8cf5c:	d10043ff 	sub	sp, sp, #0x10
   8cf60:	f90007e0 	str	x0, [sp, #8]
   8cf64:	f90003e1 	str	x1, [sp]
   8cf68:	f94007e0 	ldr	x0, [sp, #8]
   8cf6c:	f100001f 	cmp	x0, #0x0
   8cf70:	54000061 	b.ne	8cf7c <initCEcoInterfaceBus1_42757331+0x20>  // b.any
   8cf74:	12800220 	mov	w0, #0xffffffee            	// #-18
   8cf78:	14000002 	b	8cf80 <initCEcoInterfaceBus1_42757331+0x24>
   8cf7c:	52800000 	mov	w0, #0x0                   	// #0
   8cf80:	910043ff 	add	sp, sp, #0x10
   8cf84:	d65f03c0 	ret

000000000008cf88 <CEcoInterfaceBus1_42757331_init_virtual_table>:
   8cf88:	d10043ff 	sub	sp, sp, #0x10
   8cf8c:	f90007e0 	str	x0, [sp, #8]
   8cf90:	f94007e0 	ldr	x0, [sp, #8]
   8cf94:	b0000021 	adrp	x1, 91000 <g_xF10BC39A4F2143CF8A1E104650A2C302Factory+0x58>
   8cf98:	91142021 	add	x1, x1, #0x508
   8cf9c:	f9000001 	str	x1, [x0]
   8cfa0:	f94007e0 	ldr	x0, [sp, #8]
   8cfa4:	b0000021 	adrp	x1, 91000 <g_xF10BC39A4F2143CF8A1E104650A2C302Factory+0x58>
   8cfa8:	91152021 	add	x1, x1, #0x548
   8cfac:	f9000401 	str	x1, [x0, #8]
   8cfb0:	f94007e0 	ldr	x0, [sp, #8]
   8cfb4:	b0000021 	adrp	x1, 91000 <g_xF10BC39A4F2143CF8A1E104650A2C302Factory+0x58>
   8cfb8:	9115c021 	add	x1, x1, #0x570
   8cfbc:	f9000801 	str	x1, [x0, #16]
   8cfc0:	d503201f 	nop
   8cfc4:	910043ff 	add	sp, sp, #0x10
   8cfc8:	d65f03c0 	ret

000000000008cfcc <createCEcoInterfaceBus1_42757331>:
   8cfcc:	a9bc7bfd 	stp	x29, x30, [sp, #-64]!
   8cfd0:	910003fd 	mov	x29, sp
   8cfd4:	f90017e0 	str	x0, [sp, #40]
   8cfd8:	f90013e1 	str	x1, [sp, #32]
   8cfdc:	f9000fe2 	str	x2, [sp, #24]
   8cfe0:	f9001fff 	str	xzr, [sp, #56]
   8cfe4:	b0000020 	adrp	x0, 91000 <g_xF10BC39A4F2143CF8A1E104650A2C302Factory+0x58>
   8cfe8:	91202000 	add	x0, x0, #0x808
   8cfec:	f9001fe0 	str	x0, [sp, #56]
   8cff0:	f9401fe0 	ldr	x0, [sp, #56]
   8cff4:	b0000021 	adrp	x1, 91000 <g_xF10BC39A4F2143CF8A1E104650A2C302Factory+0x58>
   8cff8:	911f0021 	add	x1, x1, #0x7c0
   8cffc:	f9001401 	str	x1, [x0, #40]
   8d000:	f9401fe0 	ldr	x0, [sp, #56]
   8d004:	b9401800 	ldr	w0, [x0, #24]
   8d008:	7100001f 	cmp	w0, #0x0
   8d00c:	54000621 	b.ne	8d0d0 <createCEcoInterfaceBus1_42757331+0x104>  // b.any
   8d010:	f9401fe0 	ldr	x0, [sp, #56]
   8d014:	52800021 	mov	w1, #0x1                   	// #1
   8d018:	b9001801 	str	w1, [x0, #24]
   8d01c:	f9401fe0 	ldr	x0, [sp, #56]
   8d020:	90000421 	adrp	x1, 111000 <GID_IEcoSystem_AARCH64>
   8d024:	910a2021 	add	x1, x1, #0x288
   8d028:	f9001801 	str	x1, [x0, #48]
   8d02c:	f9401fe0 	ldr	x0, [sp, #56]
   8d030:	90000021 	adrp	x1, 91000 <g_xF10BC39A4F2143CF8A1E104650A2C302Factory+0x58>
   8d034:	9110e021 	add	x1, x1, #0x438
   8d038:	f9001c01 	str	x1, [x0, #56]
   8d03c:	f9401fe0 	ldr	x0, [sp, #56]
   8d040:	97ffffd2 	bl	8cf88 <CEcoInterfaceBus1_42757331_init_virtual_table>
   8d044:	f9401fe0 	ldr	x0, [sp, #56]
   8d048:	f9401400 	ldr	x0, [x0, #40]
   8d04c:	f900181f 	str	xzr, [x0, #48]
   8d050:	f9401fe0 	ldr	x0, [sp, #56]
   8d054:	f9401400 	ldr	x0, [x0, #40]
   8d058:	f9001c1f 	str	xzr, [x0, #56]
   8d05c:	f9401fe0 	ldr	x0, [sp, #56]
   8d060:	f9401400 	ldr	x0, [x0, #40]
   8d064:	f94017e1 	ldr	x1, [sp, #40]
   8d068:	f9000801 	str	x1, [x0, #16]
   8d06c:	f9401fe0 	ldr	x0, [sp, #56]
   8d070:	f9401400 	ldr	x0, [x0, #40]
   8d074:	90000021 	adrp	x1, 91000 <g_xF10BC39A4F2143CF8A1E104650A2C302Factory+0x58>
   8d078:	91202021 	add	x1, x1, #0x808
   8d07c:	f9000001 	str	x1, [x0]
   8d080:	f9401fe0 	ldr	x0, [sp, #56]
   8d084:	f9401400 	ldr	x0, [x0, #40]
   8d088:	f9400000 	ldr	x0, [x0]
   8d08c:	91012000 	add	x0, x0, #0x48
   8d090:	f9001c1f 	str	xzr, [x0, #56]
   8d094:	f9401fe0 	ldr	x0, [sp, #56]
   8d098:	f9401400 	ldr	x0, [x0, #40]
   8d09c:	f9400000 	ldr	x0, [x0]
   8d0a0:	91024000 	add	x0, x0, #0x90
   8d0a4:	f9001c1f 	str	xzr, [x0, #56]
   8d0a8:	f9401fe0 	ldr	x0, [sp, #56]
   8d0ac:	f9401400 	ldr	x0, [x0, #40]
   8d0b0:	f9400000 	ldr	x0, [x0]
   8d0b4:	91036000 	add	x0, x0, #0xd8
   8d0b8:	f9001c1f 	str	xzr, [x0, #56]
   8d0bc:	f9401fe0 	ldr	x0, [sp, #56]
   8d0c0:	f9401400 	ldr	x0, [x0, #40]
   8d0c4:	f9400000 	ldr	x0, [x0]
   8d0c8:	91048000 	add	x0, x0, #0x120
   8d0cc:	f9001c1f 	str	xzr, [x0, #56]
   8d0d0:	f9400fe0 	ldr	x0, [sp, #24]
   8d0d4:	f9401fe1 	ldr	x1, [sp, #56]
   8d0d8:	f9000001 	str	x1, [x0]
   8d0dc:	52800000 	mov	w0, #0x0                   	// #0
   8d0e0:	a8c47bfd 	ldp	x29, x30, [sp], #64
   8d0e4:	d65f03c0 	ret

000000000008d0e8 <deleteCEcoInterfaceBus1_42757331>:
   8d0e8:	a9bc7bfd 	stp	x29, x30, [sp, #-64]!
   8d0ec:	910003fd 	mov	x29, sp
   8d0f0:	f9000fe0 	str	x0, [sp, #24]
   8d0f4:	f9400fe0 	ldr	x0, [sp, #24]
   8d0f8:	f9001be0 	str	x0, [sp, #48]
   8d0fc:	f9001fff 	str	xzr, [sp, #56]
   8d100:	f90017ff 	str	xzr, [sp, #40]
   8d104:	f9400fe0 	ldr	x0, [sp, #24]
   8d108:	f100001f 	cmp	x0, #0x0
   8d10c:	54000640 	b.eq	8d1d4 <deleteCEcoInterfaceBus1_42757331+0xec>  // b.none
   8d110:	f9401be0 	ldr	x0, [sp, #48]
   8d114:	f9401400 	ldr	x0, [x0, #40]
   8d118:	f9401800 	ldr	x0, [x0, #48]
   8d11c:	f100001f 	cmp	x0, #0x0
   8d120:	540005a0 	b.eq	8d1d4 <deleteCEcoInterfaceBus1_42757331+0xec>  // b.none
   8d124:	f9401be0 	ldr	x0, [sp, #48]
   8d128:	f9401400 	ldr	x0, [x0, #40]
   8d12c:	f9400000 	ldr	x0, [x0]
   8d130:	91048000 	add	x0, x0, #0x120
   8d134:	f9001fe0 	str	x0, [sp, #56]
   8d138:	f9401fe0 	ldr	x0, [sp, #56]
   8d13c:	f100001f 	cmp	x0, #0x0
   8d140:	54000380 	b.eq	8d1b0 <deleteCEcoInterfaceBus1_42757331+0xc8>  // b.none
   8d144:	f9401fe0 	ldr	x0, [sp, #56]
   8d148:	f9402000 	ldr	x0, [x0, #64]
   8d14c:	f9001fe0 	str	x0, [sp, #56]
   8d150:	14000013 	b	8d19c <deleteCEcoInterfaceBus1_42757331+0xb4>
   8d154:	f9401fe0 	ldr	x0, [sp, #56]
   8d158:	f90017e0 	str	x0, [sp, #40]
   8d15c:	f94017e0 	ldr	x0, [sp, #40]
   8d160:	f100001f 	cmp	x0, #0x0
   8d164:	54000240 	b.eq	8d1ac <deleteCEcoInterfaceBus1_42757331+0xc4>  // b.none
   8d168:	f94017e0 	ldr	x0, [sp, #40]
   8d16c:	f9402000 	ldr	x0, [x0, #64]
   8d170:	f9001fe0 	str	x0, [sp, #56]
   8d174:	f9401be0 	ldr	x0, [sp, #48]
   8d178:	f9401400 	ldr	x0, [x0, #40]
   8d17c:	f9401800 	ldr	x0, [x0, #48]
   8d180:	f9400000 	ldr	x0, [x0]
   8d184:	f9401002 	ldr	x2, [x0, #32]
   8d188:	f9401be0 	ldr	x0, [sp, #48]
   8d18c:	f9401400 	ldr	x0, [x0, #40]
   8d190:	f9401800 	ldr	x0, [x0, #48]
   8d194:	f94017e1 	ldr	x1, [sp, #40]
   8d198:	d63f0040 	blr	x2
   8d19c:	f9401fe0 	ldr	x0, [sp, #56]
   8d1a0:	f100001f 	cmp	x0, #0x0
   8d1a4:	54fffd81 	b.ne	8d154 <deleteCEcoInterfaceBus1_42757331+0x6c>  // b.any
   8d1a8:	14000002 	b	8d1b0 <deleteCEcoInterfaceBus1_42757331+0xc8>
   8d1ac:	d503201f 	nop
   8d1b0:	f9401be0 	ldr	x0, [sp, #48]
   8d1b4:	f9401400 	ldr	x0, [x0, #40]
   8d1b8:	f9401800 	ldr	x0, [x0, #48]
   8d1bc:	f9400000 	ldr	x0, [x0]
   8d1c0:	f9400801 	ldr	x1, [x0, #16]
   8d1c4:	f9401be0 	ldr	x0, [sp, #48]
   8d1c8:	f9401400 	ldr	x0, [x0, #40]
   8d1cc:	f9401800 	ldr	x0, [x0, #48]
   8d1d0:	d63f0020 	blr	x1
   8d1d4:	d503201f 	nop
   8d1d8:	a8c47bfd 	ldp	x29, x30, [sp], #64
   8d1dc:	d65f03c0 	ret

000000000008d1e0 <CEcoMemoryManager1Lab_623E1838Factory_QueryInterface>:
   8d1e0:	a9bd7bfd 	stp	x29, x30, [sp, #-48]!
   8d1e4:	910003fd 	mov	x29, sp
   8d1e8:	f90017e0 	str	x0, [sp, #40]
   8d1ec:	f90013e1 	str	x1, [sp, #32]
   8d1f0:	f9000fe2 	str	x2, [sp, #24]
   8d1f4:	f94013e0 	ldr	x0, [sp, #32]
   8d1f8:	39400001 	ldrb	w1, [x0]
   8d1fc:	90000420 	adrp	x0, 111000 <GID_IEcoSystem_AARCH64>
   8d200:	910e2000 	add	x0, x0, #0x388
   8d204:	39400000 	ldrb	w0, [x0]
   8d208:	6b00003f 	cmp	w1, w0
   8d20c:	54001121 	b.ne	8d430 <CEcoMemoryManager1Lab_623E1838Factory_QueryInterface+0x250>  // b.any
   8d210:	f94013e0 	ldr	x0, [sp, #32]
   8d214:	91000400 	add	x0, x0, #0x1
   8d218:	39400001 	ldrb	w1, [x0]
   8d21c:	90000420 	adrp	x0, 111000 <GID_IEcoSystem_AARCH64>
   8d220:	910e2400 	add	x0, x0, #0x389
   8d224:	39400000 	ldrb	w0, [x0]
   8d228:	6b00003f 	cmp	w1, w0
   8d22c:	54001021 	b.ne	8d430 <CEcoMemoryManager1Lab_623E1838Factory_QueryInterface+0x250>  // b.any
   8d230:	f94013e0 	ldr	x0, [sp, #32]
   8d234:	91000800 	add	x0, x0, #0x2
   8d238:	39400001 	ldrb	w1, [x0]
   8d23c:	90000420 	adrp	x0, 111000 <GID_IEcoSystem_AARCH64>
   8d240:	910e2800 	add	x0, x0, #0x38a
   8d244:	39400000 	ldrb	w0, [x0]
   8d248:	6b00003f 	cmp	w1, w0
   8d24c:	54000f21 	b.ne	8d430 <CEcoMemoryManager1Lab_623E1838Factory_QueryInterface+0x250>  // b.any
   8d250:	f94013e0 	ldr	x0, [sp, #32]
   8d254:	91000c00 	add	x0, x0, #0x3
   8d258:	39400001 	ldrb	w1, [x0]
   8d25c:	90000420 	adrp	x0, 111000 <GID_IEcoSystem_AARCH64>
   8d260:	910e2c00 	add	x0, x0, #0x38b
   8d264:	39400000 	ldrb	w0, [x0]
   8d268:	6b00003f 	cmp	w1, w0
   8d26c:	54000e21 	b.ne	8d430 <CEcoMemoryManager1Lab_623E1838Factory_QueryInterface+0x250>  // b.any
   8d270:	f94013e0 	ldr	x0, [sp, #32]
   8d274:	91001000 	add	x0, x0, #0x4
   8d278:	39400001 	ldrb	w1, [x0]
   8d27c:	90000420 	adrp	x0, 111000 <GID_IEcoSystem_AARCH64>
   8d280:	910e3000 	add	x0, x0, #0x38c
   8d284:	39400000 	ldrb	w0, [x0]
   8d288:	6b00003f 	cmp	w1, w0
   8d28c:	54000d21 	b.ne	8d430 <CEcoMemoryManager1Lab_623E1838Factory_QueryInterface+0x250>  // b.any
   8d290:	f94013e0 	ldr	x0, [sp, #32]
   8d294:	91001400 	add	x0, x0, #0x5
   8d298:	39400001 	ldrb	w1, [x0]
   8d29c:	90000420 	adrp	x0, 111000 <GID_IEcoSystem_AARCH64>
   8d2a0:	910e3400 	add	x0, x0, #0x38d
   8d2a4:	39400000 	ldrb	w0, [x0]
   8d2a8:	6b00003f 	cmp	w1, w0
   8d2ac:	54000c21 	b.ne	8d430 <CEcoMemoryManager1Lab_623E1838Factory_QueryInterface+0x250>  // b.any
   8d2b0:	f94013e0 	ldr	x0, [sp, #32]
   8d2b4:	91001800 	add	x0, x0, #0x6
   8d2b8:	39400001 	ldrb	w1, [x0]
   8d2bc:	90000420 	adrp	x0, 111000 <GID_IEcoSystem_AARCH64>
   8d2c0:	910e3800 	add	x0, x0, #0x38e
   8d2c4:	39400000 	ldrb	w0, [x0]
   8d2c8:	6b00003f 	cmp	w1, w0
   8d2cc:	54000b21 	b.ne	8d430 <CEcoMemoryManager1Lab_623E1838Factory_QueryInterface+0x250>  // b.any
   8d2d0:	f94013e0 	ldr	x0, [sp, #32]
   8d2d4:	91001c00 	add	x0, x0, #0x7
   8d2d8:	39400001 	ldrb	w1, [x0]
   8d2dc:	90000420 	adrp	x0, 111000 <GID_IEcoSystem_AARCH64>
   8d2e0:	910e3c00 	add	x0, x0, #0x38f
   8d2e4:	39400000 	ldrb	w0, [x0]
   8d2e8:	6b00003f 	cmp	w1, w0
   8d2ec:	54000a21 	b.ne	8d430 <CEcoMemoryManager1Lab_623E1838Factory_QueryInterface+0x250>  // b.any
   8d2f0:	f94013e0 	ldr	x0, [sp, #32]
   8d2f4:	91002000 	add	x0, x0, #0x8
   8d2f8:	39400001 	ldrb	w1, [x0]
   8d2fc:	90000420 	adrp	x0, 111000 <GID_IEcoSystem_AARCH64>
   8d300:	910e4000 	add	x0, x0, #0x390
   8d304:	39400000 	ldrb	w0, [x0]
   8d308:	6b00003f 	cmp	w1, w0
   8d30c:	54000921 	b.ne	8d430 <CEcoMemoryManager1Lab_623E1838Factory_QueryInterface+0x250>  // b.any
   8d310:	f94013e0 	ldr	x0, [sp, #32]
   8d314:	91002400 	add	x0, x0, #0x9
   8d318:	39400001 	ldrb	w1, [x0]
   8d31c:	90000420 	adrp	x0, 111000 <GID_IEcoSystem_AARCH64>
   8d320:	910e4400 	add	x0, x0, #0x391
   8d324:	39400000 	ldrb	w0, [x0]
   8d328:	6b00003f 	cmp	w1, w0
   8d32c:	54000821 	b.ne	8d430 <CEcoMemoryManager1Lab_623E1838Factory_QueryInterface+0x250>  // b.any
   8d330:	f94013e0 	ldr	x0, [sp, #32]
   8d334:	91002800 	add	x0, x0, #0xa
   8d338:	39400001 	ldrb	w1, [x0]
   8d33c:	90000420 	adrp	x0, 111000 <GID_IEcoSystem_AARCH64>
   8d340:	910e4800 	add	x0, x0, #0x392
   8d344:	39400000 	ldrb	w0, [x0]
   8d348:	6b00003f 	cmp	w1, w0
   8d34c:	54000721 	b.ne	8d430 <CEcoMemoryManager1Lab_623E1838Factory_QueryInterface+0x250>  // b.any
   8d350:	f94013e0 	ldr	x0, [sp, #32]
   8d354:	91002c00 	add	x0, x0, #0xb
   8d358:	39400001 	ldrb	w1, [x0]
   8d35c:	90000420 	adrp	x0, 111000 <GID_IEcoSystem_AARCH64>
   8d360:	910e4c00 	add	x0, x0, #0x393
   8d364:	39400000 	ldrb	w0, [x0]
   8d368:	6b00003f 	cmp	w1, w0
   8d36c:	54000621 	b.ne	8d430 <CEcoMemoryManager1Lab_623E1838Factory_QueryInterface+0x250>  // b.any
   8d370:	f94013e0 	ldr	x0, [sp, #32]
   8d374:	91003000 	add	x0, x0, #0xc
   8d378:	39400001 	ldrb	w1, [x0]
   8d37c:	90000420 	adrp	x0, 111000 <GID_IEcoSystem_AARCH64>
   8d380:	910e5000 	add	x0, x0, #0x394
   8d384:	39400000 	ldrb	w0, [x0]
   8d388:	6b00003f 	cmp	w1, w0
   8d38c:	54000521 	b.ne	8d430 <CEcoMemoryManager1Lab_623E1838Factory_QueryInterface+0x250>  // b.any
   8d390:	f94013e0 	ldr	x0, [sp, #32]
   8d394:	91003400 	add	x0, x0, #0xd
   8d398:	39400001 	ldrb	w1, [x0]
   8d39c:	90000420 	adrp	x0, 111000 <GID_IEcoSystem_AARCH64>
   8d3a0:	910e5400 	add	x0, x0, #0x395
   8d3a4:	39400000 	ldrb	w0, [x0]
   8d3a8:	6b00003f 	cmp	w1, w0
   8d3ac:	54000421 	b.ne	8d430 <CEcoMemoryManager1Lab_623E1838Factory_QueryInterface+0x250>  // b.any
   8d3b0:	f94013e0 	ldr	x0, [sp, #32]
   8d3b4:	91003800 	add	x0, x0, #0xe
   8d3b8:	39400001 	ldrb	w1, [x0]
   8d3bc:	90000420 	adrp	x0, 111000 <GID_IEcoSystem_AARCH64>
   8d3c0:	910e5800 	add	x0, x0, #0x396
   8d3c4:	39400000 	ldrb	w0, [x0]
   8d3c8:	6b00003f 	cmp	w1, w0
   8d3cc:	54000321 	b.ne	8d430 <CEcoMemoryManager1Lab_623E1838Factory_QueryInterface+0x250>  // b.any
   8d3d0:	f94013e0 	ldr	x0, [sp, #32]
   8d3d4:	91003c00 	add	x0, x0, #0xf
   8d3d8:	39400001 	ldrb	w1, [x0]
   8d3dc:	90000420 	adrp	x0, 111000 <GID_IEcoSystem_AARCH64>
   8d3e0:	910e5c00 	add	x0, x0, #0x397
   8d3e4:	39400000 	ldrb	w0, [x0]
   8d3e8:	6b00003f 	cmp	w1, w0
   8d3ec:	54000221 	b.ne	8d430 <CEcoMemoryManager1Lab_623E1838Factory_QueryInterface+0x250>  // b.any
   8d3f0:	f94013e0 	ldr	x0, [sp, #32]
   8d3f4:	91004000 	add	x0, x0, #0x10
   8d3f8:	39400001 	ldrb	w1, [x0]
   8d3fc:	90000420 	adrp	x0, 111000 <GID_IEcoSystem_AARCH64>
   8d400:	910e6000 	add	x0, x0, #0x398
   8d404:	39400000 	ldrb	w0, [x0]
   8d408:	6b00003f 	cmp	w1, w0
   8d40c:	54000121 	b.ne	8d430 <CEcoMemoryManager1Lab_623E1838Factory_QueryInterface+0x250>  // b.any
   8d410:	f94013e0 	ldr	x0, [sp, #32]
   8d414:	91004400 	add	x0, x0, #0x11
   8d418:	39400001 	ldrb	w1, [x0]
   8d41c:	90000420 	adrp	x0, 111000 <GID_IEcoSystem_AARCH64>
   8d420:	910e6400 	add	x0, x0, #0x399
   8d424:	39400000 	ldrb	w0, [x0]
   8d428:	6b00003f 	cmp	w1, w0
   8d42c:	54001200 	b.eq	8d66c <CEcoMemoryManager1Lab_623E1838Factory_QueryInterface+0x48c>  // b.none
   8d430:	f94013e0 	ldr	x0, [sp, #32]
   8d434:	39400001 	ldrb	w1, [x0]
   8d438:	90000420 	adrp	x0, 111000 <GID_IEcoSystem_AARCH64>
   8d43c:	910e8000 	add	x0, x0, #0x3a0
   8d440:	39400000 	ldrb	w0, [x0]
   8d444:	6b00003f 	cmp	w1, w0
   8d448:	540012a1 	b.ne	8d69c <CEcoMemoryManager1Lab_623E1838Factory_QueryInterface+0x4bc>  // b.any
   8d44c:	f94013e0 	ldr	x0, [sp, #32]
   8d450:	91000400 	add	x0, x0, #0x1
   8d454:	39400001 	ldrb	w1, [x0]
   8d458:	90000420 	adrp	x0, 111000 <GID_IEcoSystem_AARCH64>
   8d45c:	910e8400 	add	x0, x0, #0x3a1
   8d460:	39400000 	ldrb	w0, [x0]
   8d464:	6b00003f 	cmp	w1, w0
   8d468:	540011a1 	b.ne	8d69c <CEcoMemoryManager1Lab_623E1838Factory_QueryInterface+0x4bc>  // b.any
   8d46c:	f94013e0 	ldr	x0, [sp, #32]
   8d470:	91000800 	add	x0, x0, #0x2
   8d474:	39400001 	ldrb	w1, [x0]
   8d478:	90000420 	adrp	x0, 111000 <GID_IEcoSystem_AARCH64>
   8d47c:	910e8800 	add	x0, x0, #0x3a2
   8d480:	39400000 	ldrb	w0, [x0]
   8d484:	6b00003f 	cmp	w1, w0
   8d488:	540010a1 	b.ne	8d69c <CEcoMemoryManager1Lab_623E1838Factory_QueryInterface+0x4bc>  // b.any
   8d48c:	f94013e0 	ldr	x0, [sp, #32]
   8d490:	91000c00 	add	x0, x0, #0x3
   8d494:	39400001 	ldrb	w1, [x0]
   8d498:	90000420 	adrp	x0, 111000 <GID_IEcoSystem_AARCH64>
   8d49c:	910e8c00 	add	x0, x0, #0x3a3
   8d4a0:	39400000 	ldrb	w0, [x0]
   8d4a4:	6b00003f 	cmp	w1, w0
   8d4a8:	54000fa1 	b.ne	8d69c <CEcoMemoryManager1Lab_623E1838Factory_QueryInterface+0x4bc>  // b.any
   8d4ac:	f94013e0 	ldr	x0, [sp, #32]
   8d4b0:	91001000 	add	x0, x0, #0x4
   8d4b4:	39400001 	ldrb	w1, [x0]
   8d4b8:	90000420 	adrp	x0, 111000 <GID_IEcoSystem_AARCH64>
   8d4bc:	910e9000 	add	x0, x0, #0x3a4
   8d4c0:	39400000 	ldrb	w0, [x0]
   8d4c4:	6b00003f 	cmp	w1, w0
   8d4c8:	54000ea1 	b.ne	8d69c <CEcoMemoryManager1Lab_623E1838Factory_QueryInterface+0x4bc>  // b.any
   8d4cc:	f94013e0 	ldr	x0, [sp, #32]
   8d4d0:	91001400 	add	x0, x0, #0x5
   8d4d4:	39400001 	ldrb	w1, [x0]
   8d4d8:	90000420 	adrp	x0, 111000 <GID_IEcoSystem_AARCH64>
   8d4dc:	910e9400 	add	x0, x0, #0x3a5
   8d4e0:	39400000 	ldrb	w0, [x0]
   8d4e4:	6b00003f 	cmp	w1, w0
   8d4e8:	54000da1 	b.ne	8d69c <CEcoMemoryManager1Lab_623E1838Factory_QueryInterface+0x4bc>  // b.any
   8d4ec:	f94013e0 	ldr	x0, [sp, #32]
   8d4f0:	91001800 	add	x0, x0, #0x6
   8d4f4:	39400001 	ldrb	w1, [x0]
   8d4f8:	90000420 	adrp	x0, 111000 <GID_IEcoSystem_AARCH64>
   8d4fc:	910e9800 	add	x0, x0, #0x3a6
   8d500:	39400000 	ldrb	w0, [x0]
   8d504:	6b00003f 	cmp	w1, w0
   8d508:	54000ca1 	b.ne	8d69c <CEcoMemoryManager1Lab_623E1838Factory_QueryInterface+0x4bc>  // b.any
   8d50c:	f94013e0 	ldr	x0, [sp, #32]
   8d510:	91001c00 	add	x0, x0, #0x7
   8d514:	39400001 	ldrb	w1, [x0]
   8d518:	90000420 	adrp	x0, 111000 <GID_IEcoSystem_AARCH64>
   8d51c:	910e9c00 	add	x0, x0, #0x3a7
   8d520:	39400000 	ldrb	w0, [x0]
   8d524:	6b00003f 	cmp	w1, w0
   8d528:	54000ba1 	b.ne	8d69c <CEcoMemoryManager1Lab_623E1838Factory_QueryInterface+0x4bc>  // b.any
   8d52c:	f94013e0 	ldr	x0, [sp, #32]
   8d530:	91002000 	add	x0, x0, #0x8
   8d534:	39400001 	ldrb	w1, [x0]
   8d538:	90000420 	adrp	x0, 111000 <GID_IEcoSystem_AARCH64>
   8d53c:	910ea000 	add	x0, x0, #0x3a8
   8d540:	39400000 	ldrb	w0, [x0]
   8d544:	6b00003f 	cmp	w1, w0
   8d548:	54000aa1 	b.ne	8d69c <CEcoMemoryManager1Lab_623E1838Factory_QueryInterface+0x4bc>  // b.any
   8d54c:	f94013e0 	ldr	x0, [sp, #32]
   8d550:	91002400 	add	x0, x0, #0x9
   8d554:	39400001 	ldrb	w1, [x0]
   8d558:	90000420 	adrp	x0, 111000 <GID_IEcoSystem_AARCH64>
   8d55c:	910ea400 	add	x0, x0, #0x3a9
   8d560:	39400000 	ldrb	w0, [x0]
   8d564:	6b00003f 	cmp	w1, w0
   8d568:	540009a1 	b.ne	8d69c <CEcoMemoryManager1Lab_623E1838Factory_QueryInterface+0x4bc>  // b.any
   8d56c:	f94013e0 	ldr	x0, [sp, #32]
   8d570:	91002800 	add	x0, x0, #0xa
   8d574:	39400001 	ldrb	w1, [x0]
   8d578:	90000420 	adrp	x0, 111000 <GID_IEcoSystem_AARCH64>
   8d57c:	910ea800 	add	x0, x0, #0x3aa
   8d580:	39400000 	ldrb	w0, [x0]
   8d584:	6b00003f 	cmp	w1, w0
   8d588:	540008a1 	b.ne	8d69c <CEcoMemoryManager1Lab_623E1838Factory_QueryInterface+0x4bc>  // b.any
   8d58c:	f94013e0 	ldr	x0, [sp, #32]
   8d590:	91002c00 	add	x0, x0, #0xb
   8d594:	39400001 	ldrb	w1, [x0]
   8d598:	90000420 	adrp	x0, 111000 <GID_IEcoSystem_AARCH64>
   8d59c:	910eac00 	add	x0, x0, #0x3ab
   8d5a0:	39400000 	ldrb	w0, [x0]
   8d5a4:	6b00003f 	cmp	w1, w0
   8d5a8:	540007a1 	b.ne	8d69c <CEcoMemoryManager1Lab_623E1838Factory_QueryInterface+0x4bc>  // b.any
   8d5ac:	f94013e0 	ldr	x0, [sp, #32]
   8d5b0:	91003000 	add	x0, x0, #0xc
   8d5b4:	39400001 	ldrb	w1, [x0]
   8d5b8:	90000420 	adrp	x0, 111000 <GID_IEcoSystem_AARCH64>
   8d5bc:	910eb000 	add	x0, x0, #0x3ac
   8d5c0:	39400000 	ldrb	w0, [x0]
   8d5c4:	6b00003f 	cmp	w1, w0
   8d5c8:	540006a1 	b.ne	8d69c <CEcoMemoryManager1Lab_623E1838Factory_QueryInterface+0x4bc>  // b.any
   8d5cc:	f94013e0 	ldr	x0, [sp, #32]
   8d5d0:	91003400 	add	x0, x0, #0xd
   8d5d4:	39400001 	ldrb	w1, [x0]
   8d5d8:	90000420 	adrp	x0, 111000 <GID_IEcoSystem_AARCH64>
   8d5dc:	910eb400 	add	x0, x0, #0x3ad
   8d5e0:	39400000 	ldrb	w0, [x0]
   8d5e4:	6b00003f 	cmp	w1, w0
   8d5e8:	540005a1 	b.ne	8d69c <CEcoMemoryManager1Lab_623E1838Factory_QueryInterface+0x4bc>  // b.any
   8d5ec:	f94013e0 	ldr	x0, [sp, #32]
   8d5f0:	91003800 	add	x0, x0, #0xe
   8d5f4:	39400001 	ldrb	w1, [x0]
   8d5f8:	90000420 	adrp	x0, 111000 <GID_IEcoSystem_AARCH64>
   8d5fc:	910eb800 	add	x0, x0, #0x3ae
   8d600:	39400000 	ldrb	w0, [x0]
   8d604:	6b00003f 	cmp	w1, w0
   8d608:	540004a1 	b.ne	8d69c <CEcoMemoryManager1Lab_623E1838Factory_QueryInterface+0x4bc>  // b.any
   8d60c:	f94013e0 	ldr	x0, [sp, #32]
   8d610:	91003c00 	add	x0, x0, #0xf
   8d614:	39400001 	ldrb	w1, [x0]
   8d618:	90000420 	adrp	x0, 111000 <GID_IEcoSystem_AARCH64>
   8d61c:	910ebc00 	add	x0, x0, #0x3af
   8d620:	39400000 	ldrb	w0, [x0]
   8d624:	6b00003f 	cmp	w1, w0
   8d628:	540003a1 	b.ne	8d69c <CEcoMemoryManager1Lab_623E1838Factory_QueryInterface+0x4bc>  // b.any
   8d62c:	f94013e0 	ldr	x0, [sp, #32]
   8d630:	91004000 	add	x0, x0, #0x10
   8d634:	39400001 	ldrb	w1, [x0]
   8d638:	90000420 	adrp	x0, 111000 <GID_IEcoSystem_AARCH64>
   8d63c:	910ec000 	add	x0, x0, #0x3b0
   8d640:	39400000 	ldrb	w0, [x0]
   8d644:	6b00003f 	cmp	w1, w0
   8d648:	540002a1 	b.ne	8d69c <CEcoMemoryManager1Lab_623E1838Factory_QueryInterface+0x4bc>  // b.any
   8d64c:	f94013e0 	ldr	x0, [sp, #32]
   8d650:	91004400 	add	x0, x0, #0x11
   8d654:	39400001 	ldrb	w1, [x0]
   8d658:	90000420 	adrp	x0, 111000 <GID_IEcoSystem_AARCH64>
   8d65c:	910ec400 	add	x0, x0, #0x3b1
   8d660:	39400000 	ldrb	w0, [x0]
   8d664:	6b00003f 	cmp	w1, w0
   8d668:	540001a1 	b.ne	8d69c <CEcoMemoryManager1Lab_623E1838Factory_QueryInterface+0x4bc>  // b.any
   8d66c:	f9400fe0 	ldr	x0, [sp, #24]
   8d670:	f94017e1 	ldr	x1, [sp, #40]
   8d674:	f9000001 	str	x1, [x0]
   8d678:	f9400fe0 	ldr	x0, [sp, #24]
   8d67c:	f9400000 	ldr	x0, [x0]
   8d680:	f9400000 	ldr	x0, [x0]
   8d684:	f9400401 	ldr	x1, [x0, #8]
   8d688:	f9400fe0 	ldr	x0, [sp, #24]
   8d68c:	f9400000 	ldr	x0, [x0]
   8d690:	d63f0020 	blr	x1
   8d694:	52800000 	mov	w0, #0x0                   	// #0
   8d698:	14000004 	b	8d6a8 <CEcoMemoryManager1Lab_623E1838Factory_QueryInterface+0x4c8>
   8d69c:	f9400fe0 	ldr	x0, [sp, #24]
   8d6a0:	f900001f 	str	xzr, [x0]
   8d6a4:	12800240 	mov	w0, #0xffffffed            	// #-19
   8d6a8:	a8c37bfd 	ldp	x29, x30, [sp], #48
   8d6ac:	d65f03c0 	ret

000000000008d6b0 <CEcoMemoryManager1Lab_623E1838Factory_AddRef>:
   8d6b0:	d10083ff 	sub	sp, sp, #0x20
   8d6b4:	f90007e0 	str	x0, [sp, #8]
   8d6b8:	f94007e0 	ldr	x0, [sp, #8]
   8d6bc:	f9000fe0 	str	x0, [sp, #24]
   8d6c0:	f94007e0 	ldr	x0, [sp, #8]
   8d6c4:	f100001f 	cmp	x0, #0x0
   8d6c8:	54000061 	b.ne	8d6d4 <CEcoMemoryManager1Lab_623E1838Factory_AddRef+0x24>  // b.any
   8d6cc:	12800000 	mov	w0, #0xffffffff            	// #-1
   8d6d0:	14000006 	b	8d6e8 <CEcoMemoryManager1Lab_623E1838Factory_AddRef+0x38>
   8d6d4:	f9400fe0 	ldr	x0, [sp, #24]
   8d6d8:	b9400800 	ldr	w0, [x0, #8]
   8d6dc:	11000402 	add	w2, w0, #0x1
   8d6e0:	f9400fe1 	ldr	x1, [sp, #24]
   8d6e4:	b9000822 	str	w2, [x1, #8]
   8d6e8:	910083ff 	add	sp, sp, #0x20
   8d6ec:	d65f03c0 	ret

000000000008d6f0 <CEcoMemoryManager1Lab_623E1838Factory_Release>:
   8d6f0:	d10083ff 	sub	sp, sp, #0x20
   8d6f4:	f90007e0 	str	x0, [sp, #8]
   8d6f8:	f94007e0 	ldr	x0, [sp, #8]
   8d6fc:	f9000fe0 	str	x0, [sp, #24]
   8d700:	f94007e0 	ldr	x0, [sp, #8]
   8d704:	f100001f 	cmp	x0, #0x0
   8d708:	54000061 	b.ne	8d714 <CEcoMemoryManager1Lab_623E1838Factory_Release+0x24>  // b.any
   8d70c:	12800000 	mov	w0, #0xffffffff            	// #-1
   8d710:	1400000e 	b	8d748 <CEcoMemoryManager1Lab_623E1838Factory_Release+0x58>
   8d714:	f9400fe0 	ldr	x0, [sp, #24]
   8d718:	b9400800 	ldr	w0, [x0, #8]
   8d71c:	51000401 	sub	w1, w0, #0x1
   8d720:	f9400fe0 	ldr	x0, [sp, #24]
   8d724:	b9000801 	str	w1, [x0, #8]
   8d728:	f9400fe0 	ldr	x0, [sp, #24]
   8d72c:	b9400800 	ldr	w0, [x0, #8]
   8d730:	7100001f 	cmp	w0, #0x0
   8d734:	54000061 	b.ne	8d740 <CEcoMemoryManager1Lab_623E1838Factory_Release+0x50>  // b.any
   8d738:	52800000 	mov	w0, #0x0                   	// #0
   8d73c:	14000003 	b	8d748 <CEcoMemoryManager1Lab_623E1838Factory_Release+0x58>
   8d740:	f9400fe0 	ldr	x0, [sp, #24]
   8d744:	b9400800 	ldr	w0, [x0, #8]
   8d748:	910083ff 	add	sp, sp, #0x20
   8d74c:	d65f03c0 	ret

000000000008d750 <CEcoMemoryManager1Lab_623E1838Factory_Init>:
   8d750:	a9bc7bfd 	stp	x29, x30, [sp, #-64]!
   8d754:	910003fd 	mov	x29, sp
   8d758:	f90017e0 	str	x0, [sp, #40]
   8d75c:	f90013e1 	str	x1, [sp, #32]
   8d760:	f9000fe2 	str	x2, [sp, #24]
   8d764:	f94017e0 	ldr	x0, [sp, #40]
   8d768:	f9001fe0 	str	x0, [sp, #56]
   8d76c:	12800220 	mov	w0, #0xffffffee            	// #-18
   8d770:	79006fe0 	strh	w0, [sp, #54]
   8d774:	f94017e0 	ldr	x0, [sp, #40]
   8d778:	f100001f 	cmp	x0, #0x0
   8d77c:	54000061 	b.ne	8d788 <CEcoMemoryManager1Lab_623E1838Factory_Init+0x38>  // b.any
   8d780:	79c06fe0 	ldrsh	w0, [sp, #54]
   8d784:	14000008 	b	8d7a4 <CEcoMemoryManager1Lab_623E1838Factory_Init+0x54>
   8d788:	f9401fe0 	ldr	x0, [sp, #56]
   8d78c:	f9400c02 	ldr	x2, [x0, #24]
   8d790:	f94013e1 	ldr	x1, [sp, #32]
   8d794:	f9400fe0 	ldr	x0, [sp, #24]
   8d798:	d63f0040 	blr	x2
   8d79c:	79006fe0 	strh	w0, [sp, #54]
   8d7a0:	79c06fe0 	ldrsh	w0, [sp, #54]
   8d7a4:	a8c47bfd 	ldp	x29, x30, [sp], #64
   8d7a8:	d65f03c0 	ret

000000000008d7ac <CEcoMemoryManager1Lab_623E1838Factory_Alloc>:
   8d7ac:	a9ba7bfd 	stp	x29, x30, [sp, #-96]!
   8d7b0:	910003fd 	mov	x29, sp
   8d7b4:	f9001fe0 	str	x0, [sp, #56]
   8d7b8:	f9001be1 	str	x1, [sp, #48]
   8d7bc:	f90017e2 	str	x2, [sp, #40]
   8d7c0:	f90013e3 	str	x3, [sp, #32]
   8d7c4:	f9000fe4 	str	x4, [sp, #24]
   8d7c8:	f9401fe0 	ldr	x0, [sp, #56]
   8d7cc:	f9002fe0 	str	x0, [sp, #88]
   8d7d0:	f90027ff 	str	xzr, [sp, #72]
   8d7d4:	12800220 	mov	w0, #0xffffffee            	// #-18
   8d7d8:	7900afe0 	strh	w0, [sp, #86]
   8d7dc:	f9401fe0 	ldr	x0, [sp, #56]
   8d7e0:	f100001f 	cmp	x0, #0x0
   8d7e4:	54000061 	b.ne	8d7f0 <CEcoMemoryManager1Lab_623E1838Factory_Alloc+0x44>  // b.any
   8d7e8:	79c0afe0 	ldrsh	w0, [sp, #86]
   8d7ec:	140000bc 	b	8dadc <CEcoMemoryManager1Lab_623E1838Factory_Alloc+0x330>
   8d7f0:	f94017e0 	ldr	x0, [sp, #40]
   8d7f4:	f100001f 	cmp	x0, #0x0
   8d7f8:	54001240 	b.eq	8da40 <CEcoMemoryManager1Lab_623E1838Factory_Alloc+0x294>  // b.none
   8d7fc:	f94013e0 	ldr	x0, [sp, #32]
   8d800:	39400001 	ldrb	w1, [x0]
   8d804:	90000420 	adrp	x0, 111000 <GID_IEcoSystem_AARCH64>
   8d808:	910e2000 	add	x0, x0, #0x388
   8d80c:	39400000 	ldrb	w0, [x0]
   8d810:	6b00003f 	cmp	w1, w0
   8d814:	54001121 	b.ne	8da38 <CEcoMemoryManager1Lab_623E1838Factory_Alloc+0x28c>  // b.any
   8d818:	f94013e0 	ldr	x0, [sp, #32]
   8d81c:	91000400 	add	x0, x0, #0x1
   8d820:	39400001 	ldrb	w1, [x0]
   8d824:	90000420 	adrp	x0, 111000 <GID_IEcoSystem_AARCH64>
   8d828:	910e2400 	add	x0, x0, #0x389
   8d82c:	39400000 	ldrb	w0, [x0]
   8d830:	6b00003f 	cmp	w1, w0
   8d834:	54001021 	b.ne	8da38 <CEcoMemoryManager1Lab_623E1838Factory_Alloc+0x28c>  // b.any
   8d838:	f94013e0 	ldr	x0, [sp, #32]
   8d83c:	91000800 	add	x0, x0, #0x2
   8d840:	39400001 	ldrb	w1, [x0]
   8d844:	90000420 	adrp	x0, 111000 <GID_IEcoSystem_AARCH64>
   8d848:	910e2800 	add	x0, x0, #0x38a
   8d84c:	39400000 	ldrb	w0, [x0]
   8d850:	6b00003f 	cmp	w1, w0
   8d854:	54000f21 	b.ne	8da38 <CEcoMemoryManager1Lab_623E1838Factory_Alloc+0x28c>  // b.any
   8d858:	f94013e0 	ldr	x0, [sp, #32]
   8d85c:	91000c00 	add	x0, x0, #0x3
   8d860:	39400001 	ldrb	w1, [x0]
   8d864:	90000420 	adrp	x0, 111000 <GID_IEcoSystem_AARCH64>
   8d868:	910e2c00 	add	x0, x0, #0x38b
   8d86c:	39400000 	ldrb	w0, [x0]
   8d870:	6b00003f 	cmp	w1, w0
   8d874:	54000e21 	b.ne	8da38 <CEcoMemoryManager1Lab_623E1838Factory_Alloc+0x28c>  // b.any
   8d878:	f94013e0 	ldr	x0, [sp, #32]
   8d87c:	91001000 	add	x0, x0, #0x4
   8d880:	39400001 	ldrb	w1, [x0]
   8d884:	90000420 	adrp	x0, 111000 <GID_IEcoSystem_AARCH64>
   8d888:	910e3000 	add	x0, x0, #0x38c
   8d88c:	39400000 	ldrb	w0, [x0]
   8d890:	6b00003f 	cmp	w1, w0
   8d894:	54000d21 	b.ne	8da38 <CEcoMemoryManager1Lab_623E1838Factory_Alloc+0x28c>  // b.any
   8d898:	f94013e0 	ldr	x0, [sp, #32]
   8d89c:	91001400 	add	x0, x0, #0x5
   8d8a0:	39400001 	ldrb	w1, [x0]
   8d8a4:	90000420 	adrp	x0, 111000 <GID_IEcoSystem_AARCH64>
   8d8a8:	910e3400 	add	x0, x0, #0x38d
   8d8ac:	39400000 	ldrb	w0, [x0]
   8d8b0:	6b00003f 	cmp	w1, w0
   8d8b4:	54000c21 	b.ne	8da38 <CEcoMemoryManager1Lab_623E1838Factory_Alloc+0x28c>  // b.any
   8d8b8:	f94013e0 	ldr	x0, [sp, #32]
   8d8bc:	91001800 	add	x0, x0, #0x6
   8d8c0:	39400001 	ldrb	w1, [x0]
   8d8c4:	90000420 	adrp	x0, 111000 <GID_IEcoSystem_AARCH64>
   8d8c8:	910e3800 	add	x0, x0, #0x38e
   8d8cc:	39400000 	ldrb	w0, [x0]
   8d8d0:	6b00003f 	cmp	w1, w0
   8d8d4:	54000b21 	b.ne	8da38 <CEcoMemoryManager1Lab_623E1838Factory_Alloc+0x28c>  // b.any
   8d8d8:	f94013e0 	ldr	x0, [sp, #32]
   8d8dc:	91001c00 	add	x0, x0, #0x7
   8d8e0:	39400001 	ldrb	w1, [x0]
   8d8e4:	90000420 	adrp	x0, 111000 <GID_IEcoSystem_AARCH64>
   8d8e8:	910e3c00 	add	x0, x0, #0x38f
   8d8ec:	39400000 	ldrb	w0, [x0]
   8d8f0:	6b00003f 	cmp	w1, w0
   8d8f4:	54000a21 	b.ne	8da38 <CEcoMemoryManager1Lab_623E1838Factory_Alloc+0x28c>  // b.any
   8d8f8:	f94013e0 	ldr	x0, [sp, #32]
   8d8fc:	91002000 	add	x0, x0, #0x8
   8d900:	39400001 	ldrb	w1, [x0]
   8d904:	90000420 	adrp	x0, 111000 <GID_IEcoSystem_AARCH64>
   8d908:	910e4000 	add	x0, x0, #0x390
   8d90c:	39400000 	ldrb	w0, [x0]
   8d910:	6b00003f 	cmp	w1, w0
   8d914:	54000921 	b.ne	8da38 <CEcoMemoryManager1Lab_623E1838Factory_Alloc+0x28c>  // b.any
   8d918:	f94013e0 	ldr	x0, [sp, #32]
   8d91c:	91002400 	add	x0, x0, #0x9
   8d920:	39400001 	ldrb	w1, [x0]
   8d924:	90000420 	adrp	x0, 111000 <GID_IEcoSystem_AARCH64>
   8d928:	910e4400 	add	x0, x0, #0x391
   8d92c:	39400000 	ldrb	w0, [x0]
   8d930:	6b00003f 	cmp	w1, w0
   8d934:	54000821 	b.ne	8da38 <CEcoMemoryManager1Lab_623E1838Factory_Alloc+0x28c>  // b.any
   8d938:	f94013e0 	ldr	x0, [sp, #32]
   8d93c:	91002800 	add	x0, x0, #0xa
   8d940:	39400001 	ldrb	w1, [x0]
   8d944:	90000420 	adrp	x0, 111000 <GID_IEcoSystem_AARCH64>
   8d948:	910e4800 	add	x0, x0, #0x392
   8d94c:	39400000 	ldrb	w0, [x0]
   8d950:	6b00003f 	cmp	w1, w0
   8d954:	54000721 	b.ne	8da38 <CEcoMemoryManager1Lab_623E1838Factory_Alloc+0x28c>  // b.any
   8d958:	f94013e0 	ldr	x0, [sp, #32]
   8d95c:	91002c00 	add	x0, x0, #0xb
   8d960:	39400001 	ldrb	w1, [x0]
   8d964:	90000420 	adrp	x0, 111000 <GID_IEcoSystem_AARCH64>
   8d968:	910e4c00 	add	x0, x0, #0x393
   8d96c:	39400000 	ldrb	w0, [x0]
   8d970:	6b00003f 	cmp	w1, w0
   8d974:	54000621 	b.ne	8da38 <CEcoMemoryManager1Lab_623E1838Factory_Alloc+0x28c>  // b.any
   8d978:	f94013e0 	ldr	x0, [sp, #32]
   8d97c:	91003000 	add	x0, x0, #0xc
   8d980:	39400001 	ldrb	w1, [x0]
   8d984:	90000420 	adrp	x0, 111000 <GID_IEcoSystem_AARCH64>
   8d988:	910e5000 	add	x0, x0, #0x394
   8d98c:	39400000 	ldrb	w0, [x0]
   8d990:	6b00003f 	cmp	w1, w0
   8d994:	54000521 	b.ne	8da38 <CEcoMemoryManager1Lab_623E1838Factory_Alloc+0x28c>  // b.any
   8d998:	f94013e0 	ldr	x0, [sp, #32]
   8d99c:	91003400 	add	x0, x0, #0xd
   8d9a0:	39400001 	ldrb	w1, [x0]
   8d9a4:	90000420 	adrp	x0, 111000 <GID_IEcoSystem_AARCH64>
   8d9a8:	910e5400 	add	x0, x0, #0x395
   8d9ac:	39400000 	ldrb	w0, [x0]
   8d9b0:	6b00003f 	cmp	w1, w0
   8d9b4:	54000421 	b.ne	8da38 <CEcoMemoryManager1Lab_623E1838Factory_Alloc+0x28c>  // b.any
   8d9b8:	f94013e0 	ldr	x0, [sp, #32]
   8d9bc:	91003800 	add	x0, x0, #0xe
   8d9c0:	39400001 	ldrb	w1, [x0]
   8d9c4:	90000420 	adrp	x0, 111000 <GID_IEcoSystem_AARCH64>
   8d9c8:	910e5800 	add	x0, x0, #0x396
   8d9cc:	39400000 	ldrb	w0, [x0]
   8d9d0:	6b00003f 	cmp	w1, w0
   8d9d4:	54000321 	b.ne	8da38 <CEcoMemoryManager1Lab_623E1838Factory_Alloc+0x28c>  // b.any
   8d9d8:	f94013e0 	ldr	x0, [sp, #32]
   8d9dc:	91003c00 	add	x0, x0, #0xf
   8d9e0:	39400001 	ldrb	w1, [x0]
   8d9e4:	90000420 	adrp	x0, 111000 <GID_IEcoSystem_AARCH64>
   8d9e8:	910e5c00 	add	x0, x0, #0x397
   8d9ec:	39400000 	ldrb	w0, [x0]
   8d9f0:	6b00003f 	cmp	w1, w0
   8d9f4:	54000221 	b.ne	8da38 <CEcoMemoryManager1Lab_623E1838Factory_Alloc+0x28c>  // b.any
   8d9f8:	f94013e0 	ldr	x0, [sp, #32]
   8d9fc:	91004000 	add	x0, x0, #0x10
   8da00:	39400001 	ldrb	w1, [x0]
   8da04:	90000420 	adrp	x0, 111000 <GID_IEcoSystem_AARCH64>
   8da08:	910e6000 	add	x0, x0, #0x398
   8da0c:	39400000 	ldrb	w0, [x0]
   8da10:	6b00003f 	cmp	w1, w0
   8da14:	54000121 	b.ne	8da38 <CEcoMemoryManager1Lab_623E1838Factory_Alloc+0x28c>  // b.any
   8da18:	f94013e0 	ldr	x0, [sp, #32]
   8da1c:	91004400 	add	x0, x0, #0x11
   8da20:	39400001 	ldrb	w1, [x0]
   8da24:	90000420 	adrp	x0, 111000 <GID_IEcoSystem_AARCH64>
   8da28:	910e6400 	add	x0, x0, #0x399
   8da2c:	39400000 	ldrb	w0, [x0]
   8da30:	6b00003f 	cmp	w1, w0
   8da34:	54000060 	b.eq	8da40 <CEcoMemoryManager1Lab_623E1838Factory_Alloc+0x294>  // b.none
   8da38:	128002a0 	mov	w0, #0xffffffea            	// #-22
   8da3c:	14000028 	b	8dadc <CEcoMemoryManager1Lab_623E1838Factory_Alloc+0x330>
   8da40:	f9402fe0 	ldr	x0, [sp, #88]
   8da44:	f9400803 	ldr	x3, [x0, #16]
   8da48:	910123e0 	add	x0, sp, #0x48
   8da4c:	aa0003e2 	mov	x2, x0
   8da50:	f94017e1 	ldr	x1, [sp, #40]
   8da54:	f9401be0 	ldr	x0, [sp, #48]
   8da58:	d63f0060 	blr	x3
   8da5c:	7900afe0 	strh	w0, [sp, #86]
   8da60:	79c0afe0 	ldrsh	w0, [sp, #86]
   8da64:	7100001f 	cmp	w0, #0x0
   8da68:	54000081 	b.ne	8da78 <CEcoMemoryManager1Lab_623E1838Factory_Alloc+0x2cc>  // b.any
   8da6c:	f94027e0 	ldr	x0, [sp, #72]
   8da70:	f100001f 	cmp	x0, #0x0
   8da74:	54000061 	b.ne	8da80 <CEcoMemoryManager1Lab_623E1838Factory_Alloc+0x2d4>  // b.any
   8da78:	79c0afe0 	ldrsh	w0, [sp, #86]
   8da7c:	14000018 	b	8dadc <CEcoMemoryManager1Lab_623E1838Factory_Alloc+0x330>
   8da80:	f9401fe0 	ldr	x0, [sp, #56]
   8da84:	f9400000 	ldr	x0, [x0]
   8da88:	f9401003 	ldr	x3, [x0, #32]
   8da8c:	f94027e0 	ldr	x0, [sp, #72]
   8da90:	aa0003e2 	mov	x2, x0
   8da94:	f9401be1 	ldr	x1, [sp, #48]
   8da98:	f9401fe0 	ldr	x0, [sp, #56]
   8da9c:	d63f0060 	blr	x3
   8daa0:	7900afe0 	strh	w0, [sp, #86]
   8daa4:	f94027e0 	ldr	x0, [sp, #72]
   8daa8:	f9400000 	ldr	x0, [x0]
   8daac:	f9400003 	ldr	x3, [x0]
   8dab0:	f94027e0 	ldr	x0, [sp, #72]
   8dab4:	f9400fe2 	ldr	x2, [sp, #24]
   8dab8:	f94013e1 	ldr	x1, [sp, #32]
   8dabc:	d63f0060 	blr	x3
   8dac0:	7900afe0 	strh	w0, [sp, #86]
   8dac4:	f94027e0 	ldr	x0, [sp, #72]
   8dac8:	f9400000 	ldr	x0, [x0]
   8dacc:	f9400801 	ldr	x1, [x0, #16]
   8dad0:	f94027e0 	ldr	x0, [sp, #72]
   8dad4:	d63f0020 	blr	x1
   8dad8:	79c0afe0 	ldrsh	w0, [sp, #86]
   8dadc:	a8c67bfd 	ldp	x29, x30, [sp], #96
   8dae0:	d65f03c0 	ret

000000000008dae4 <CEcoMemoryManager1Lab_623E1838Factory_get_Name>:
   8dae4:	d10083ff 	sub	sp, sp, #0x20
   8dae8:	f90007e0 	str	x0, [sp, #8]
   8daec:	f94007e0 	ldr	x0, [sp, #8]
   8daf0:	f9000fe0 	str	x0, [sp, #24]
   8daf4:	f94007e0 	ldr	x0, [sp, #8]
   8daf8:	f100001f 	cmp	x0, #0x0
   8dafc:	54000061 	b.ne	8db08 <CEcoMemoryManager1Lab_623E1838Factory_get_Name+0x24>  // b.any
   8db00:	d2800000 	mov	x0, #0x0                   	// #0
   8db04:	14000003 	b	8db10 <CEcoMemoryManager1Lab_623E1838Factory_get_Name+0x2c>
   8db08:	f9400fe0 	ldr	x0, [sp, #24]
   8db0c:	91008000 	add	x0, x0, #0x20
   8db10:	910083ff 	add	sp, sp, #0x20
   8db14:	d65f03c0 	ret

000000000008db18 <CEcoMemoryManager1Lab_623E1838Factory_get_Version>:
   8db18:	d10083ff 	sub	sp, sp, #0x20
   8db1c:	f90007e0 	str	x0, [sp, #8]
   8db20:	f94007e0 	ldr	x0, [sp, #8]
   8db24:	f9000fe0 	str	x0, [sp, #24]
   8db28:	f94007e0 	ldr	x0, [sp, #8]
   8db2c:	f100001f 	cmp	x0, #0x0
   8db30:	54000061 	b.ne	8db3c <CEcoMemoryManager1Lab_623E1838Factory_get_Version+0x24>  // b.any
   8db34:	d2800000 	mov	x0, #0x0                   	// #0
   8db38:	14000003 	b	8db44 <CEcoMemoryManager1Lab_623E1838Factory_get_Version+0x2c>
   8db3c:	f9400fe0 	ldr	x0, [sp, #24]
   8db40:	91018000 	add	x0, x0, #0x60
   8db44:	910083ff 	add	sp, sp, #0x20
   8db48:	d65f03c0 	ret

000000000008db4c <CEcoMemoryManager1Lab_623E1838Factory_get_Manufacturer>:
   8db4c:	d10083ff 	sub	sp, sp, #0x20
   8db50:	f90007e0 	str	x0, [sp, #8]
   8db54:	f94007e0 	ldr	x0, [sp, #8]
   8db58:	f9000fe0 	str	x0, [sp, #24]
   8db5c:	f94007e0 	ldr	x0, [sp, #8]
   8db60:	f100001f 	cmp	x0, #0x0
   8db64:	54000061 	b.ne	8db70 <CEcoMemoryManager1Lab_623E1838Factory_get_Manufacturer+0x24>  // b.any
   8db68:	d2800000 	mov	x0, #0x0                   	// #0
   8db6c:	14000003 	b	8db78 <CEcoMemoryManager1Lab_623E1838Factory_get_Manufacturer+0x2c>
   8db70:	f9400fe0 	ldr	x0, [sp, #24]
   8db74:	9101c000 	add	x0, x0, #0x70
   8db78:	910083ff 	add	sp, sp, #0x20
   8db7c:	d65f03c0 	ret

000000000008db80 <CEcoMemoryManager1Lab_623E1838_QueryInterface>:
   8db80:	a9bc7bfd 	stp	x29, x30, [sp, #-64]!
   8db84:	910003fd 	mov	x29, sp
   8db88:	f90017e0 	str	x0, [sp, #40]
   8db8c:	f90013e1 	str	x1, [sp, #32]
   8db90:	f9000fe2 	str	x2, [sp, #24]
   8db94:	f94017e0 	ldr	x0, [sp, #40]
   8db98:	f9001fe0 	str	x0, [sp, #56]
   8db9c:	f94017e0 	ldr	x0, [sp, #40]
   8dba0:	f100001f 	cmp	x0, #0x0
   8dba4:	54000080 	b.eq	8dbb4 <CEcoMemoryManager1Lab_623E1838_QueryInterface+0x34>  // b.none
   8dba8:	f9400fe0 	ldr	x0, [sp, #24]
   8dbac:	f100001f 	cmp	x0, #0x0
   8dbb0:	54000061 	b.ne	8dbbc <CEcoMemoryManager1Lab_623E1838_QueryInterface+0x3c>  // b.any
   8dbb4:	12800220 	mov	w0, #0xffffffee            	// #-18
   8dbb8:	14000268 	b	8e558 <CEcoMemoryManager1Lab_623E1838_QueryInterface+0x9d8>
   8dbbc:	f94013e0 	ldr	x0, [sp, #32]
   8dbc0:	39400001 	ldrb	w1, [x0]
   8dbc4:	90000420 	adrp	x0, 111000 <GID_IEcoSystem_AARCH64>
   8dbc8:	911d2000 	add	x0, x0, #0x748
   8dbcc:	39400000 	ldrb	w0, [x0]
   8dbd0:	6b00003f 	cmp	w1, w0
   8dbd4:	54001241 	b.ne	8de1c <CEcoMemoryManager1Lab_623E1838_QueryInterface+0x29c>  // b.any
   8dbd8:	f94013e0 	ldr	x0, [sp, #32]
   8dbdc:	91000400 	add	x0, x0, #0x1
   8dbe0:	39400001 	ldrb	w1, [x0]
   8dbe4:	90000420 	adrp	x0, 111000 <GID_IEcoSystem_AARCH64>
   8dbe8:	911d2400 	add	x0, x0, #0x749
   8dbec:	39400000 	ldrb	w0, [x0]
   8dbf0:	6b00003f 	cmp	w1, w0
   8dbf4:	54001141 	b.ne	8de1c <CEcoMemoryManager1Lab_623E1838_QueryInterface+0x29c>  // b.any
   8dbf8:	f94013e0 	ldr	x0, [sp, #32]
   8dbfc:	91000800 	add	x0, x0, #0x2
   8dc00:	39400001 	ldrb	w1, [x0]
   8dc04:	90000420 	adrp	x0, 111000 <GID_IEcoSystem_AARCH64>
   8dc08:	911d2800 	add	x0, x0, #0x74a
   8dc0c:	39400000 	ldrb	w0, [x0]
   8dc10:	6b00003f 	cmp	w1, w0
   8dc14:	54001041 	b.ne	8de1c <CEcoMemoryManager1Lab_623E1838_QueryInterface+0x29c>  // b.any
   8dc18:	f94013e0 	ldr	x0, [sp, #32]
   8dc1c:	91000c00 	add	x0, x0, #0x3
   8dc20:	39400001 	ldrb	w1, [x0]
   8dc24:	90000420 	adrp	x0, 111000 <GID_IEcoSystem_AARCH64>
   8dc28:	911d2c00 	add	x0, x0, #0x74b
   8dc2c:	39400000 	ldrb	w0, [x0]
   8dc30:	6b00003f 	cmp	w1, w0
   8dc34:	54000f41 	b.ne	8de1c <CEcoMemoryManager1Lab_623E1838_QueryInterface+0x29c>  // b.any
   8dc38:	f94013e0 	ldr	x0, [sp, #32]
   8dc3c:	91001000 	add	x0, x0, #0x4
   8dc40:	39400001 	ldrb	w1, [x0]
   8dc44:	90000420 	adrp	x0, 111000 <GID_IEcoSystem_AARCH64>
   8dc48:	911d3000 	add	x0, x0, #0x74c
   8dc4c:	39400000 	ldrb	w0, [x0]
   8dc50:	6b00003f 	cmp	w1, w0
   8dc54:	54000e41 	b.ne	8de1c <CEcoMemoryManager1Lab_623E1838_QueryInterface+0x29c>  // b.any
   8dc58:	f94013e0 	ldr	x0, [sp, #32]
   8dc5c:	91001400 	add	x0, x0, #0x5
   8dc60:	39400001 	ldrb	w1, [x0]
   8dc64:	90000420 	adrp	x0, 111000 <GID_IEcoSystem_AARCH64>
   8dc68:	911d3400 	add	x0, x0, #0x74d
   8dc6c:	39400000 	ldrb	w0, [x0]
   8dc70:	6b00003f 	cmp	w1, w0
   8dc74:	54000d41 	b.ne	8de1c <CEcoMemoryManager1Lab_623E1838_QueryInterface+0x29c>  // b.any
   8dc78:	f94013e0 	ldr	x0, [sp, #32]
   8dc7c:	91001800 	add	x0, x0, #0x6
   8dc80:	39400001 	ldrb	w1, [x0]
   8dc84:	90000420 	adrp	x0, 111000 <GID_IEcoSystem_AARCH64>
   8dc88:	911d3800 	add	x0, x0, #0x74e
   8dc8c:	39400000 	ldrb	w0, [x0]
   8dc90:	6b00003f 	cmp	w1, w0
   8dc94:	54000c41 	b.ne	8de1c <CEcoMemoryManager1Lab_623E1838_QueryInterface+0x29c>  // b.any
   8dc98:	f94013e0 	ldr	x0, [sp, #32]
   8dc9c:	91001c00 	add	x0, x0, #0x7
   8dca0:	39400001 	ldrb	w1, [x0]
   8dca4:	90000420 	adrp	x0, 111000 <GID_IEcoSystem_AARCH64>
   8dca8:	911d3c00 	add	x0, x0, #0x74f
   8dcac:	39400000 	ldrb	w0, [x0]
   8dcb0:	6b00003f 	cmp	w1, w0
   8dcb4:	54000b41 	b.ne	8de1c <CEcoMemoryManager1Lab_623E1838_QueryInterface+0x29c>  // b.any
   8dcb8:	f94013e0 	ldr	x0, [sp, #32]
   8dcbc:	91002000 	add	x0, x0, #0x8
   8dcc0:	39400001 	ldrb	w1, [x0]
   8dcc4:	90000420 	adrp	x0, 111000 <GID_IEcoSystem_AARCH64>
   8dcc8:	911d4000 	add	x0, x0, #0x750
   8dccc:	39400000 	ldrb	w0, [x0]
   8dcd0:	6b00003f 	cmp	w1, w0
   8dcd4:	54000a41 	b.ne	8de1c <CEcoMemoryManager1Lab_623E1838_QueryInterface+0x29c>  // b.any
   8dcd8:	f94013e0 	ldr	x0, [sp, #32]
   8dcdc:	91002400 	add	x0, x0, #0x9
   8dce0:	39400001 	ldrb	w1, [x0]
   8dce4:	90000420 	adrp	x0, 111000 <GID_IEcoSystem_AARCH64>
   8dce8:	911d4400 	add	x0, x0, #0x751
   8dcec:	39400000 	ldrb	w0, [x0]
   8dcf0:	6b00003f 	cmp	w1, w0
   8dcf4:	54000941 	b.ne	8de1c <CEcoMemoryManager1Lab_623E1838_QueryInterface+0x29c>  // b.any
   8dcf8:	f94013e0 	ldr	x0, [sp, #32]
   8dcfc:	91002800 	add	x0, x0, #0xa
   8dd00:	39400001 	ldrb	w1, [x0]
   8dd04:	90000420 	adrp	x0, 111000 <GID_IEcoSystem_AARCH64>
   8dd08:	911d4800 	add	x0, x0, #0x752
   8dd0c:	39400000 	ldrb	w0, [x0]
   8dd10:	6b00003f 	cmp	w1, w0
   8dd14:	54000841 	b.ne	8de1c <CEcoMemoryManager1Lab_623E1838_QueryInterface+0x29c>  // b.any
   8dd18:	f94013e0 	ldr	x0, [sp, #32]
   8dd1c:	91002c00 	add	x0, x0, #0xb
   8dd20:	39400001 	ldrb	w1, [x0]
   8dd24:	90000420 	adrp	x0, 111000 <GID_IEcoSystem_AARCH64>
   8dd28:	911d4c00 	add	x0, x0, #0x753
   8dd2c:	39400000 	ldrb	w0, [x0]
   8dd30:	6b00003f 	cmp	w1, w0
   8dd34:	54000741 	b.ne	8de1c <CEcoMemoryManager1Lab_623E1838_QueryInterface+0x29c>  // b.any
   8dd38:	f94013e0 	ldr	x0, [sp, #32]
   8dd3c:	91003000 	add	x0, x0, #0xc
   8dd40:	39400001 	ldrb	w1, [x0]
   8dd44:	90000420 	adrp	x0, 111000 <GID_IEcoSystem_AARCH64>
   8dd48:	911d5000 	add	x0, x0, #0x754
   8dd4c:	39400000 	ldrb	w0, [x0]
   8dd50:	6b00003f 	cmp	w1, w0
   8dd54:	54000641 	b.ne	8de1c <CEcoMemoryManager1Lab_623E1838_QueryInterface+0x29c>  // b.any
   8dd58:	f94013e0 	ldr	x0, [sp, #32]
   8dd5c:	91003400 	add	x0, x0, #0xd
   8dd60:	39400001 	ldrb	w1, [x0]
   8dd64:	90000420 	adrp	x0, 111000 <GID_IEcoSystem_AARCH64>
   8dd68:	911d5400 	add	x0, x0, #0x755
   8dd6c:	39400000 	ldrb	w0, [x0]
   8dd70:	6b00003f 	cmp	w1, w0
   8dd74:	54000541 	b.ne	8de1c <CEcoMemoryManager1Lab_623E1838_QueryInterface+0x29c>  // b.any
   8dd78:	f94013e0 	ldr	x0, [sp, #32]
   8dd7c:	91003800 	add	x0, x0, #0xe
   8dd80:	39400001 	ldrb	w1, [x0]
   8dd84:	90000420 	adrp	x0, 111000 <GID_IEcoSystem_AARCH64>
   8dd88:	911d5800 	add	x0, x0, #0x756
   8dd8c:	39400000 	ldrb	w0, [x0]
   8dd90:	6b00003f 	cmp	w1, w0
   8dd94:	54000441 	b.ne	8de1c <CEcoMemoryManager1Lab_623E1838_QueryInterface+0x29c>  // b.any
   8dd98:	f94013e0 	ldr	x0, [sp, #32]
   8dd9c:	91003c00 	add	x0, x0, #0xf
   8dda0:	39400001 	ldrb	w1, [x0]
   8dda4:	90000420 	adrp	x0, 111000 <GID_IEcoSystem_AARCH64>
   8dda8:	911d5c00 	add	x0, x0, #0x757
   8ddac:	39400000 	ldrb	w0, [x0]
   8ddb0:	6b00003f 	cmp	w1, w0
   8ddb4:	54000341 	b.ne	8de1c <CEcoMemoryManager1Lab_623E1838_QueryInterface+0x29c>  // b.any
   8ddb8:	f94013e0 	ldr	x0, [sp, #32]
   8ddbc:	91004000 	add	x0, x0, #0x10
   8ddc0:	39400001 	ldrb	w1, [x0]
   8ddc4:	90000420 	adrp	x0, 111000 <GID_IEcoSystem_AARCH64>
   8ddc8:	911d6000 	add	x0, x0, #0x758
   8ddcc:	39400000 	ldrb	w0, [x0]
   8ddd0:	6b00003f 	cmp	w1, w0
   8ddd4:	54000241 	b.ne	8de1c <CEcoMemoryManager1Lab_623E1838_QueryInterface+0x29c>  // b.any
   8ddd8:	f94013e0 	ldr	x0, [sp, #32]
   8dddc:	91004400 	add	x0, x0, #0x11
   8dde0:	39400001 	ldrb	w1, [x0]
   8dde4:	90000420 	adrp	x0, 111000 <GID_IEcoSystem_AARCH64>
   8dde8:	911d6400 	add	x0, x0, #0x759
   8ddec:	39400000 	ldrb	w0, [x0]
   8ddf0:	6b00003f 	cmp	w1, w0
   8ddf4:	54000141 	b.ne	8de1c <CEcoMemoryManager1Lab_623E1838_QueryInterface+0x29c>  // b.any
   8ddf8:	f9401fe1 	ldr	x1, [sp, #56]
   8ddfc:	f9400fe0 	ldr	x0, [sp, #24]
   8de00:	f9000001 	str	x1, [x0]
   8de04:	f9401fe0 	ldr	x0, [sp, #56]
   8de08:	f9400000 	ldr	x0, [x0]
   8de0c:	f9400401 	ldr	x1, [x0, #8]
   8de10:	f9401fe0 	ldr	x0, [sp, #56]
   8de14:	d63f0020 	blr	x1
   8de18:	140001cf 	b	8e554 <CEcoMemoryManager1Lab_623E1838_QueryInterface+0x9d4>
   8de1c:	f94013e0 	ldr	x0, [sp, #32]
   8de20:	39400001 	ldrb	w1, [x0]
   8de24:	90000420 	adrp	x0, 111000 <GID_IEcoSystem_AARCH64>
   8de28:	911cc000 	add	x0, x0, #0x730
   8de2c:	39400000 	ldrb	w0, [x0]
   8de30:	6b00003f 	cmp	w1, w0
   8de34:	54001261 	b.ne	8e080 <CEcoMemoryManager1Lab_623E1838_QueryInterface+0x500>  // b.any
   8de38:	f94013e0 	ldr	x0, [sp, #32]
   8de3c:	91000400 	add	x0, x0, #0x1
   8de40:	39400001 	ldrb	w1, [x0]
   8de44:	90000420 	adrp	x0, 111000 <GID_IEcoSystem_AARCH64>
   8de48:	911cc400 	add	x0, x0, #0x731
   8de4c:	39400000 	ldrb	w0, [x0]
   8de50:	6b00003f 	cmp	w1, w0
   8de54:	54001161 	b.ne	8e080 <CEcoMemoryManager1Lab_623E1838_QueryInterface+0x500>  // b.any
   8de58:	f94013e0 	ldr	x0, [sp, #32]
   8de5c:	91000800 	add	x0, x0, #0x2
   8de60:	39400001 	ldrb	w1, [x0]
   8de64:	90000420 	adrp	x0, 111000 <GID_IEcoSystem_AARCH64>
   8de68:	911cc800 	add	x0, x0, #0x732
   8de6c:	39400000 	ldrb	w0, [x0]
   8de70:	6b00003f 	cmp	w1, w0
   8de74:	54001061 	b.ne	8e080 <CEcoMemoryManager1Lab_623E1838_QueryInterface+0x500>  // b.any
   8de78:	f94013e0 	ldr	x0, [sp, #32]
   8de7c:	91000c00 	add	x0, x0, #0x3
   8de80:	39400001 	ldrb	w1, [x0]
   8de84:	90000420 	adrp	x0, 111000 <GID_IEcoSystem_AARCH64>
   8de88:	911ccc00 	add	x0, x0, #0x733
   8de8c:	39400000 	ldrb	w0, [x0]
   8de90:	6b00003f 	cmp	w1, w0
   8de94:	54000f61 	b.ne	8e080 <CEcoMemoryManager1Lab_623E1838_QueryInterface+0x500>  // b.any
   8de98:	f94013e0 	ldr	x0, [sp, #32]
   8de9c:	91001000 	add	x0, x0, #0x4
   8dea0:	39400001 	ldrb	w1, [x0]
   8dea4:	90000420 	adrp	x0, 111000 <GID_IEcoSystem_AARCH64>
   8dea8:	911cd000 	add	x0, x0, #0x734
   8deac:	39400000 	ldrb	w0, [x0]
   8deb0:	6b00003f 	cmp	w1, w0
   8deb4:	54000e61 	b.ne	8e080 <CEcoMemoryManager1Lab_623E1838_QueryInterface+0x500>  // b.any
   8deb8:	f94013e0 	ldr	x0, [sp, #32]
   8debc:	91001400 	add	x0, x0, #0x5
   8dec0:	39400001 	ldrb	w1, [x0]
   8dec4:	90000420 	adrp	x0, 111000 <GID_IEcoSystem_AARCH64>
   8dec8:	911cd400 	add	x0, x0, #0x735
   8decc:	39400000 	ldrb	w0, [x0]
   8ded0:	6b00003f 	cmp	w1, w0
   8ded4:	54000d61 	b.ne	8e080 <CEcoMemoryManager1Lab_623E1838_QueryInterface+0x500>  // b.any
   8ded8:	f94013e0 	ldr	x0, [sp, #32]
   8dedc:	91001800 	add	x0, x0, #0x6
   8dee0:	39400001 	ldrb	w1, [x0]
   8dee4:	90000420 	adrp	x0, 111000 <GID_IEcoSystem_AARCH64>
   8dee8:	911cd800 	add	x0, x0, #0x736
   8deec:	39400000 	ldrb	w0, [x0]
   8def0:	6b00003f 	cmp	w1, w0
   8def4:	54000c61 	b.ne	8e080 <CEcoMemoryManager1Lab_623E1838_QueryInterface+0x500>  // b.any
   8def8:	f94013e0 	ldr	x0, [sp, #32]
   8defc:	91001c00 	add	x0, x0, #0x7
   8df00:	39400001 	ldrb	w1, [x0]
   8df04:	90000420 	adrp	x0, 111000 <GID_IEcoSystem_AARCH64>
   8df08:	911cdc00 	add	x0, x0, #0x737
   8df0c:	39400000 	ldrb	w0, [x0]
   8df10:	6b00003f 	cmp	w1, w0
   8df14:	54000b61 	b.ne	8e080 <CEcoMemoryManager1Lab_623E1838_QueryInterface+0x500>  // b.any
   8df18:	f94013e0 	ldr	x0, [sp, #32]
   8df1c:	91002000 	add	x0, x0, #0x8
   8df20:	39400001 	ldrb	w1, [x0]
   8df24:	90000420 	adrp	x0, 111000 <GID_IEcoSystem_AARCH64>
   8df28:	911ce000 	add	x0, x0, #0x738
   8df2c:	39400000 	ldrb	w0, [x0]
   8df30:	6b00003f 	cmp	w1, w0
   8df34:	54000a61 	b.ne	8e080 <CEcoMemoryManager1Lab_623E1838_QueryInterface+0x500>  // b.any
   8df38:	f94013e0 	ldr	x0, [sp, #32]
   8df3c:	91002400 	add	x0, x0, #0x9
   8df40:	39400001 	ldrb	w1, [x0]
   8df44:	90000420 	adrp	x0, 111000 <GID_IEcoSystem_AARCH64>
   8df48:	911ce400 	add	x0, x0, #0x739
   8df4c:	39400000 	ldrb	w0, [x0]
   8df50:	6b00003f 	cmp	w1, w0
   8df54:	54000961 	b.ne	8e080 <CEcoMemoryManager1Lab_623E1838_QueryInterface+0x500>  // b.any
   8df58:	f94013e0 	ldr	x0, [sp, #32]
   8df5c:	91002800 	add	x0, x0, #0xa
   8df60:	39400001 	ldrb	w1, [x0]
   8df64:	90000420 	adrp	x0, 111000 <GID_IEcoSystem_AARCH64>
   8df68:	911ce800 	add	x0, x0, #0x73a
   8df6c:	39400000 	ldrb	w0, [x0]
   8df70:	6b00003f 	cmp	w1, w0
   8df74:	54000861 	b.ne	8e080 <CEcoMemoryManager1Lab_623E1838_QueryInterface+0x500>  // b.any
   8df78:	f94013e0 	ldr	x0, [sp, #32]
   8df7c:	91002c00 	add	x0, x0, #0xb
   8df80:	39400001 	ldrb	w1, [x0]
   8df84:	90000420 	adrp	x0, 111000 <GID_IEcoSystem_AARCH64>
   8df88:	911cec00 	add	x0, x0, #0x73b
   8df8c:	39400000 	ldrb	w0, [x0]
   8df90:	6b00003f 	cmp	w1, w0
   8df94:	54000761 	b.ne	8e080 <CEcoMemoryManager1Lab_623E1838_QueryInterface+0x500>  // b.any
   8df98:	f94013e0 	ldr	x0, [sp, #32]
   8df9c:	91003000 	add	x0, x0, #0xc
   8dfa0:	39400001 	ldrb	w1, [x0]
   8dfa4:	90000420 	adrp	x0, 111000 <GID_IEcoSystem_AARCH64>
   8dfa8:	911cf000 	add	x0, x0, #0x73c
   8dfac:	39400000 	ldrb	w0, [x0]
   8dfb0:	6b00003f 	cmp	w1, w0
   8dfb4:	54000661 	b.ne	8e080 <CEcoMemoryManager1Lab_623E1838_QueryInterface+0x500>  // b.any
   8dfb8:	f94013e0 	ldr	x0, [sp, #32]
   8dfbc:	91003400 	add	x0, x0, #0xd
   8dfc0:	39400001 	ldrb	w1, [x0]
   8dfc4:	90000420 	adrp	x0, 111000 <GID_IEcoSystem_AARCH64>
   8dfc8:	911cf400 	add	x0, x0, #0x73d
   8dfcc:	39400000 	ldrb	w0, [x0]
   8dfd0:	6b00003f 	cmp	w1, w0
   8dfd4:	54000561 	b.ne	8e080 <CEcoMemoryManager1Lab_623E1838_QueryInterface+0x500>  // b.any
   8dfd8:	f94013e0 	ldr	x0, [sp, #32]
   8dfdc:	91003800 	add	x0, x0, #0xe
   8dfe0:	39400001 	ldrb	w1, [x0]
   8dfe4:	90000420 	adrp	x0, 111000 <GID_IEcoSystem_AARCH64>
   8dfe8:	911cf800 	add	x0, x0, #0x73e
   8dfec:	39400000 	ldrb	w0, [x0]
   8dff0:	6b00003f 	cmp	w1, w0
   8dff4:	54000461 	b.ne	8e080 <CEcoMemoryManager1Lab_623E1838_QueryInterface+0x500>  // b.any
   8dff8:	f94013e0 	ldr	x0, [sp, #32]
   8dffc:	91003c00 	add	x0, x0, #0xf
   8e000:	39400001 	ldrb	w1, [x0]
   8e004:	f0000400 	adrp	x0, 111000 <GID_IEcoSystem_AARCH64>
   8e008:	911cfc00 	add	x0, x0, #0x73f
   8e00c:	39400000 	ldrb	w0, [x0]
   8e010:	6b00003f 	cmp	w1, w0
   8e014:	54000361 	b.ne	8e080 <CEcoMemoryManager1Lab_623E1838_QueryInterface+0x500>  // b.any
   8e018:	f94013e0 	ldr	x0, [sp, #32]
   8e01c:	91004000 	add	x0, x0, #0x10
   8e020:	39400001 	ldrb	w1, [x0]
   8e024:	f0000400 	adrp	x0, 111000 <GID_IEcoSystem_AARCH64>
   8e028:	911d0000 	add	x0, x0, #0x740
   8e02c:	39400000 	ldrb	w0, [x0]
   8e030:	6b00003f 	cmp	w1, w0
   8e034:	54000261 	b.ne	8e080 <CEcoMemoryManager1Lab_623E1838_QueryInterface+0x500>  // b.any
   8e038:	f94013e0 	ldr	x0, [sp, #32]
   8e03c:	91004400 	add	x0, x0, #0x11
   8e040:	39400001 	ldrb	w1, [x0]
   8e044:	f0000400 	adrp	x0, 111000 <GID_IEcoSystem_AARCH64>
   8e048:	911d0400 	add	x0, x0, #0x741
   8e04c:	39400000 	ldrb	w0, [x0]
   8e050:	6b00003f 	cmp	w1, w0
   8e054:	54000161 	b.ne	8e080 <CEcoMemoryManager1Lab_623E1838_QueryInterface+0x500>  // b.any
   8e058:	f9401fe0 	ldr	x0, [sp, #56]
   8e05c:	91002001 	add	x1, x0, #0x8
   8e060:	f9400fe0 	ldr	x0, [sp, #24]
   8e064:	f9000001 	str	x1, [x0]
   8e068:	f9401fe0 	ldr	x0, [sp, #56]
   8e06c:	f9400000 	ldr	x0, [x0]
   8e070:	f9400401 	ldr	x1, [x0, #8]
   8e074:	f9401fe0 	ldr	x0, [sp, #56]
   8e078:	d63f0020 	blr	x1
   8e07c:	14000136 	b	8e554 <CEcoMemoryManager1Lab_623E1838_QueryInterface+0x9d4>
   8e080:	f94013e0 	ldr	x0, [sp, #32]
   8e084:	39400001 	ldrb	w1, [x0]
   8e088:	f0000400 	adrp	x0, 111000 <GID_IEcoSystem_AARCH64>
   8e08c:	911de000 	add	x0, x0, #0x778
   8e090:	39400000 	ldrb	w0, [x0]
   8e094:	6b00003f 	cmp	w1, w0
   8e098:	54001261 	b.ne	8e2e4 <CEcoMemoryManager1Lab_623E1838_QueryInterface+0x764>  // b.any
   8e09c:	f94013e0 	ldr	x0, [sp, #32]
   8e0a0:	91000400 	add	x0, x0, #0x1
   8e0a4:	39400001 	ldrb	w1, [x0]
   8e0a8:	f0000400 	adrp	x0, 111000 <GID_IEcoSystem_AARCH64>
   8e0ac:	911de400 	add	x0, x0, #0x779
   8e0b0:	39400000 	ldrb	w0, [x0]
   8e0b4:	6b00003f 	cmp	w1, w0
   8e0b8:	54001161 	b.ne	8e2e4 <CEcoMemoryManager1Lab_623E1838_QueryInterface+0x764>  // b.any
   8e0bc:	f94013e0 	ldr	x0, [sp, #32]
   8e0c0:	91000800 	add	x0, x0, #0x2
   8e0c4:	39400001 	ldrb	w1, [x0]
   8e0c8:	f0000400 	adrp	x0, 111000 <GID_IEcoSystem_AARCH64>
   8e0cc:	911de800 	add	x0, x0, #0x77a
   8e0d0:	39400000 	ldrb	w0, [x0]
   8e0d4:	6b00003f 	cmp	w1, w0
   8e0d8:	54001061 	b.ne	8e2e4 <CEcoMemoryManager1Lab_623E1838_QueryInterface+0x764>  // b.any
   8e0dc:	f94013e0 	ldr	x0, [sp, #32]
   8e0e0:	91000c00 	add	x0, x0, #0x3
   8e0e4:	39400001 	ldrb	w1, [x0]
   8e0e8:	f0000400 	adrp	x0, 111000 <GID_IEcoSystem_AARCH64>
   8e0ec:	911dec00 	add	x0, x0, #0x77b
   8e0f0:	39400000 	ldrb	w0, [x0]
   8e0f4:	6b00003f 	cmp	w1, w0
   8e0f8:	54000f61 	b.ne	8e2e4 <CEcoMemoryManager1Lab_623E1838_QueryInterface+0x764>  // b.any
   8e0fc:	f94013e0 	ldr	x0, [sp, #32]
   8e100:	91001000 	add	x0, x0, #0x4
   8e104:	39400001 	ldrb	w1, [x0]
   8e108:	f0000400 	adrp	x0, 111000 <GID_IEcoSystem_AARCH64>
   8e10c:	911df000 	add	x0, x0, #0x77c
   8e110:	39400000 	ldrb	w0, [x0]
   8e114:	6b00003f 	cmp	w1, w0
   8e118:	54000e61 	b.ne	8e2e4 <CEcoMemoryManager1Lab_623E1838_QueryInterface+0x764>  // b.any
   8e11c:	f94013e0 	ldr	x0, [sp, #32]
   8e120:	91001400 	add	x0, x0, #0x5
   8e124:	39400001 	ldrb	w1, [x0]
   8e128:	f0000400 	adrp	x0, 111000 <GID_IEcoSystem_AARCH64>
   8e12c:	911df400 	add	x0, x0, #0x77d
   8e130:	39400000 	ldrb	w0, [x0]
   8e134:	6b00003f 	cmp	w1, w0
   8e138:	54000d61 	b.ne	8e2e4 <CEcoMemoryManager1Lab_623E1838_QueryInterface+0x764>  // b.any
   8e13c:	f94013e0 	ldr	x0, [sp, #32]
   8e140:	91001800 	add	x0, x0, #0x6
   8e144:	39400001 	ldrb	w1, [x0]
   8e148:	f0000400 	adrp	x0, 111000 <GID_IEcoSystem_AARCH64>
   8e14c:	911df800 	add	x0, x0, #0x77e
   8e150:	39400000 	ldrb	w0, [x0]
   8e154:	6b00003f 	cmp	w1, w0
   8e158:	54000c61 	b.ne	8e2e4 <CEcoMemoryManager1Lab_623E1838_QueryInterface+0x764>  // b.any
   8e15c:	f94013e0 	ldr	x0, [sp, #32]
   8e160:	91001c00 	add	x0, x0, #0x7
   8e164:	39400001 	ldrb	w1, [x0]
   8e168:	f0000400 	adrp	x0, 111000 <GID_IEcoSystem_AARCH64>
   8e16c:	911dfc00 	add	x0, x0, #0x77f
   8e170:	39400000 	ldrb	w0, [x0]
   8e174:	6b00003f 	cmp	w1, w0
   8e178:	54000b61 	b.ne	8e2e4 <CEcoMemoryManager1Lab_623E1838_QueryInterface+0x764>  // b.any
   8e17c:	f94013e0 	ldr	x0, [sp, #32]
   8e180:	91002000 	add	x0, x0, #0x8
   8e184:	39400001 	ldrb	w1, [x0]
   8e188:	f0000400 	adrp	x0, 111000 <GID_IEcoSystem_AARCH64>
   8e18c:	911e0000 	add	x0, x0, #0x780
   8e190:	39400000 	ldrb	w0, [x0]
   8e194:	6b00003f 	cmp	w1, w0
   8e198:	54000a61 	b.ne	8e2e4 <CEcoMemoryManager1Lab_623E1838_QueryInterface+0x764>  // b.any
   8e19c:	f94013e0 	ldr	x0, [sp, #32]
   8e1a0:	91002400 	add	x0, x0, #0x9
   8e1a4:	39400001 	ldrb	w1, [x0]
   8e1a8:	f0000400 	adrp	x0, 111000 <GID_IEcoSystem_AARCH64>
   8e1ac:	911e0400 	add	x0, x0, #0x781
   8e1b0:	39400000 	ldrb	w0, [x0]
   8e1b4:	6b00003f 	cmp	w1, w0
   8e1b8:	54000961 	b.ne	8e2e4 <CEcoMemoryManager1Lab_623E1838_QueryInterface+0x764>  // b.any
   8e1bc:	f94013e0 	ldr	x0, [sp, #32]
   8e1c0:	91002800 	add	x0, x0, #0xa
   8e1c4:	39400001 	ldrb	w1, [x0]
   8e1c8:	f0000400 	adrp	x0, 111000 <GID_IEcoSystem_AARCH64>
   8e1cc:	911e0800 	add	x0, x0, #0x782
   8e1d0:	39400000 	ldrb	w0, [x0]
   8e1d4:	6b00003f 	cmp	w1, w0
   8e1d8:	54000861 	b.ne	8e2e4 <CEcoMemoryManager1Lab_623E1838_QueryInterface+0x764>  // b.any
   8e1dc:	f94013e0 	ldr	x0, [sp, #32]
   8e1e0:	91002c00 	add	x0, x0, #0xb
   8e1e4:	39400001 	ldrb	w1, [x0]
   8e1e8:	f0000400 	adrp	x0, 111000 <GID_IEcoSystem_AARCH64>
   8e1ec:	911e0c00 	add	x0, x0, #0x783
   8e1f0:	39400000 	ldrb	w0, [x0]
   8e1f4:	6b00003f 	cmp	w1, w0
   8e1f8:	54000761 	b.ne	8e2e4 <CEcoMemoryManager1Lab_623E1838_QueryInterface+0x764>  // b.any
   8e1fc:	f94013e0 	ldr	x0, [sp, #32]
   8e200:	91003000 	add	x0, x0, #0xc
   8e204:	39400001 	ldrb	w1, [x0]
   8e208:	f0000400 	adrp	x0, 111000 <GID_IEcoSystem_AARCH64>
   8e20c:	911e1000 	add	x0, x0, #0x784
   8e210:	39400000 	ldrb	w0, [x0]
   8e214:	6b00003f 	cmp	w1, w0
   8e218:	54000661 	b.ne	8e2e4 <CEcoMemoryManager1Lab_623E1838_QueryInterface+0x764>  // b.any
   8e21c:	f94013e0 	ldr	x0, [sp, #32]
   8e220:	91003400 	add	x0, x0, #0xd
   8e224:	39400001 	ldrb	w1, [x0]
   8e228:	f0000400 	adrp	x0, 111000 <GID_IEcoSystem_AARCH64>
   8e22c:	911e1400 	add	x0, x0, #0x785
   8e230:	39400000 	ldrb	w0, [x0]
   8e234:	6b00003f 	cmp	w1, w0
   8e238:	54000561 	b.ne	8e2e4 <CEcoMemoryManager1Lab_623E1838_QueryInterface+0x764>  // b.any
   8e23c:	f94013e0 	ldr	x0, [sp, #32]
   8e240:	91003800 	add	x0, x0, #0xe
   8e244:	39400001 	ldrb	w1, [x0]
   8e248:	f0000400 	adrp	x0, 111000 <GID_IEcoSystem_AARCH64>
   8e24c:	911e1800 	add	x0, x0, #0x786
   8e250:	39400000 	ldrb	w0, [x0]
   8e254:	6b00003f 	cmp	w1, w0
   8e258:	54000461 	b.ne	8e2e4 <CEcoMemoryManager1Lab_623E1838_QueryInterface+0x764>  // b.any
   8e25c:	f94013e0 	ldr	x0, [sp, #32]
   8e260:	91003c00 	add	x0, x0, #0xf
   8e264:	39400001 	ldrb	w1, [x0]
   8e268:	f0000400 	adrp	x0, 111000 <GID_IEcoSystem_AARCH64>
   8e26c:	911e1c00 	add	x0, x0, #0x787
   8e270:	39400000 	ldrb	w0, [x0]
   8e274:	6b00003f 	cmp	w1, w0
   8e278:	54000361 	b.ne	8e2e4 <CEcoMemoryManager1Lab_623E1838_QueryInterface+0x764>  // b.any
   8e27c:	f94013e0 	ldr	x0, [sp, #32]
   8e280:	91004000 	add	x0, x0, #0x10
   8e284:	39400001 	ldrb	w1, [x0]
   8e288:	f0000400 	adrp	x0, 111000 <GID_IEcoSystem_AARCH64>
   8e28c:	911e2000 	add	x0, x0, #0x788
   8e290:	39400000 	ldrb	w0, [x0]
   8e294:	6b00003f 	cmp	w1, w0
   8e298:	54000261 	b.ne	8e2e4 <CEcoMemoryManager1Lab_623E1838_QueryInterface+0x764>  // b.any
   8e29c:	f94013e0 	ldr	x0, [sp, #32]
   8e2a0:	91004400 	add	x0, x0, #0x11
   8e2a4:	39400001 	ldrb	w1, [x0]
   8e2a8:	f0000400 	adrp	x0, 111000 <GID_IEcoSystem_AARCH64>
   8e2ac:	911e2400 	add	x0, x0, #0x789
   8e2b0:	39400000 	ldrb	w0, [x0]
   8e2b4:	6b00003f 	cmp	w1, w0
   8e2b8:	54000161 	b.ne	8e2e4 <CEcoMemoryManager1Lab_623E1838_QueryInterface+0x764>  // b.any
   8e2bc:	f9401fe0 	ldr	x0, [sp, #56]
   8e2c0:	91004001 	add	x1, x0, #0x10
   8e2c4:	f9400fe0 	ldr	x0, [sp, #24]
   8e2c8:	f9000001 	str	x1, [x0]
   8e2cc:	f9401fe0 	ldr	x0, [sp, #56]
   8e2d0:	f9400000 	ldr	x0, [x0]
   8e2d4:	f9400401 	ldr	x1, [x0, #8]
   8e2d8:	f9401fe0 	ldr	x0, [sp, #56]
   8e2dc:	d63f0020 	blr	x1
   8e2e0:	1400009d 	b	8e554 <CEcoMemoryManager1Lab_623E1838_QueryInterface+0x9d4>
   8e2e4:	f94013e0 	ldr	x0, [sp, #32]
   8e2e8:	39400001 	ldrb	w1, [x0]
   8e2ec:	f0000400 	adrp	x0, 111000 <GID_IEcoSystem_AARCH64>
   8e2f0:	91160000 	add	x0, x0, #0x580
   8e2f4:	39400000 	ldrb	w0, [x0]
   8e2f8:	6b00003f 	cmp	w1, w0
   8e2fc:	54001241 	b.ne	8e544 <CEcoMemoryManager1Lab_623E1838_QueryInterface+0x9c4>  // b.any
   8e300:	f94013e0 	ldr	x0, [sp, #32]
   8e304:	91000400 	add	x0, x0, #0x1
   8e308:	39400001 	ldrb	w1, [x0]
   8e30c:	f0000400 	adrp	x0, 111000 <GID_IEcoSystem_AARCH64>
   8e310:	91160400 	add	x0, x0, #0x581
   8e314:	39400000 	ldrb	w0, [x0]
   8e318:	6b00003f 	cmp	w1, w0
   8e31c:	54001141 	b.ne	8e544 <CEcoMemoryManager1Lab_623E1838_QueryInterface+0x9c4>  // b.any
   8e320:	f94013e0 	ldr	x0, [sp, #32]
   8e324:	91000800 	add	x0, x0, #0x2
   8e328:	39400001 	ldrb	w1, [x0]
   8e32c:	f0000400 	adrp	x0, 111000 <GID_IEcoSystem_AARCH64>
   8e330:	91160800 	add	x0, x0, #0x582
   8e334:	39400000 	ldrb	w0, [x0]
   8e338:	6b00003f 	cmp	w1, w0
   8e33c:	54001041 	b.ne	8e544 <CEcoMemoryManager1Lab_623E1838_QueryInterface+0x9c4>  // b.any
   8e340:	f94013e0 	ldr	x0, [sp, #32]
   8e344:	91000c00 	add	x0, x0, #0x3
   8e348:	39400001 	ldrb	w1, [x0]
   8e34c:	f0000400 	adrp	x0, 111000 <GID_IEcoSystem_AARCH64>
   8e350:	91160c00 	add	x0, x0, #0x583
   8e354:	39400000 	ldrb	w0, [x0]
   8e358:	6b00003f 	cmp	w1, w0
   8e35c:	54000f41 	b.ne	8e544 <CEcoMemoryManager1Lab_623E1838_QueryInterface+0x9c4>  // b.any
   8e360:	f94013e0 	ldr	x0, [sp, #32]
   8e364:	91001000 	add	x0, x0, #0x4
   8e368:	39400001 	ldrb	w1, [x0]
   8e36c:	f0000400 	adrp	x0, 111000 <GID_IEcoSystem_AARCH64>
   8e370:	91161000 	add	x0, x0, #0x584
   8e374:	39400000 	ldrb	w0, [x0]
   8e378:	6b00003f 	cmp	w1, w0
   8e37c:	54000e41 	b.ne	8e544 <CEcoMemoryManager1Lab_623E1838_QueryInterface+0x9c4>  // b.any
   8e380:	f94013e0 	ldr	x0, [sp, #32]
   8e384:	91001400 	add	x0, x0, #0x5
   8e388:	39400001 	ldrb	w1, [x0]
   8e38c:	f0000400 	adrp	x0, 111000 <GID_IEcoSystem_AARCH64>
   8e390:	91161400 	add	x0, x0, #0x585
   8e394:	39400000 	ldrb	w0, [x0]
   8e398:	6b00003f 	cmp	w1, w0
   8e39c:	54000d41 	b.ne	8e544 <CEcoMemoryManager1Lab_623E1838_QueryInterface+0x9c4>  // b.any
   8e3a0:	f94013e0 	ldr	x0, [sp, #32]
   8e3a4:	91001800 	add	x0, x0, #0x6
   8e3a8:	39400001 	ldrb	w1, [x0]
   8e3ac:	f0000400 	adrp	x0, 111000 <GID_IEcoSystem_AARCH64>
   8e3b0:	91161800 	add	x0, x0, #0x586
   8e3b4:	39400000 	ldrb	w0, [x0]
   8e3b8:	6b00003f 	cmp	w1, w0
   8e3bc:	54000c41 	b.ne	8e544 <CEcoMemoryManager1Lab_623E1838_QueryInterface+0x9c4>  // b.any
   8e3c0:	f94013e0 	ldr	x0, [sp, #32]
   8e3c4:	91001c00 	add	x0, x0, #0x7
   8e3c8:	39400001 	ldrb	w1, [x0]
   8e3cc:	f0000400 	adrp	x0, 111000 <GID_IEcoSystem_AARCH64>
   8e3d0:	91161c00 	add	x0, x0, #0x587
   8e3d4:	39400000 	ldrb	w0, [x0]
   8e3d8:	6b00003f 	cmp	w1, w0
   8e3dc:	54000b41 	b.ne	8e544 <CEcoMemoryManager1Lab_623E1838_QueryInterface+0x9c4>  // b.any
   8e3e0:	f94013e0 	ldr	x0, [sp, #32]
   8e3e4:	91002000 	add	x0, x0, #0x8
   8e3e8:	39400001 	ldrb	w1, [x0]
   8e3ec:	f0000400 	adrp	x0, 111000 <GID_IEcoSystem_AARCH64>
   8e3f0:	91162000 	add	x0, x0, #0x588
   8e3f4:	39400000 	ldrb	w0, [x0]
   8e3f8:	6b00003f 	cmp	w1, w0
   8e3fc:	54000a41 	b.ne	8e544 <CEcoMemoryManager1Lab_623E1838_QueryInterface+0x9c4>  // b.any
   8e400:	f94013e0 	ldr	x0, [sp, #32]
   8e404:	91002400 	add	x0, x0, #0x9
   8e408:	39400001 	ldrb	w1, [x0]
   8e40c:	f0000400 	adrp	x0, 111000 <GID_IEcoSystem_AARCH64>
   8e410:	91162400 	add	x0, x0, #0x589
   8e414:	39400000 	ldrb	w0, [x0]
   8e418:	6b00003f 	cmp	w1, w0
   8e41c:	54000941 	b.ne	8e544 <CEcoMemoryManager1Lab_623E1838_QueryInterface+0x9c4>  // b.any
   8e420:	f94013e0 	ldr	x0, [sp, #32]
   8e424:	91002800 	add	x0, x0, #0xa
   8e428:	39400001 	ldrb	w1, [x0]
   8e42c:	f0000400 	adrp	x0, 111000 <GID_IEcoSystem_AARCH64>
   8e430:	91162800 	add	x0, x0, #0x58a
   8e434:	39400000 	ldrb	w0, [x0]
   8e438:	6b00003f 	cmp	w1, w0
   8e43c:	54000841 	b.ne	8e544 <CEcoMemoryManager1Lab_623E1838_QueryInterface+0x9c4>  // b.any
   8e440:	f94013e0 	ldr	x0, [sp, #32]
   8e444:	91002c00 	add	x0, x0, #0xb
   8e448:	39400001 	ldrb	w1, [x0]
   8e44c:	f0000400 	adrp	x0, 111000 <GID_IEcoSystem_AARCH64>
   8e450:	91162c00 	add	x0, x0, #0x58b
   8e454:	39400000 	ldrb	w0, [x0]
   8e458:	6b00003f 	cmp	w1, w0
   8e45c:	54000741 	b.ne	8e544 <CEcoMemoryManager1Lab_623E1838_QueryInterface+0x9c4>  // b.any
   8e460:	f94013e0 	ldr	x0, [sp, #32]
   8e464:	91003000 	add	x0, x0, #0xc
   8e468:	39400001 	ldrb	w1, [x0]
   8e46c:	f0000400 	adrp	x0, 111000 <GID_IEcoSystem_AARCH64>
   8e470:	91163000 	add	x0, x0, #0x58c
   8e474:	39400000 	ldrb	w0, [x0]
   8e478:	6b00003f 	cmp	w1, w0
   8e47c:	54000641 	b.ne	8e544 <CEcoMemoryManager1Lab_623E1838_QueryInterface+0x9c4>  // b.any
   8e480:	f94013e0 	ldr	x0, [sp, #32]
   8e484:	91003400 	add	x0, x0, #0xd
   8e488:	39400001 	ldrb	w1, [x0]
   8e48c:	f0000400 	adrp	x0, 111000 <GID_IEcoSystem_AARCH64>
   8e490:	91163400 	add	x0, x0, #0x58d
   8e494:	39400000 	ldrb	w0, [x0]
   8e498:	6b00003f 	cmp	w1, w0
   8e49c:	54000541 	b.ne	8e544 <CEcoMemoryManager1Lab_623E1838_QueryInterface+0x9c4>  // b.any
   8e4a0:	f94013e0 	ldr	x0, [sp, #32]
   8e4a4:	91003800 	add	x0, x0, #0xe
   8e4a8:	39400001 	ldrb	w1, [x0]
   8e4ac:	f0000400 	adrp	x0, 111000 <GID_IEcoSystem_AARCH64>
   8e4b0:	91163800 	add	x0, x0, #0x58e
   8e4b4:	39400000 	ldrb	w0, [x0]
   8e4b8:	6b00003f 	cmp	w1, w0
   8e4bc:	54000441 	b.ne	8e544 <CEcoMemoryManager1Lab_623E1838_QueryInterface+0x9c4>  // b.any
   8e4c0:	f94013e0 	ldr	x0, [sp, #32]
   8e4c4:	91003c00 	add	x0, x0, #0xf
   8e4c8:	39400001 	ldrb	w1, [x0]
   8e4cc:	f0000400 	adrp	x0, 111000 <GID_IEcoSystem_AARCH64>
   8e4d0:	91163c00 	add	x0, x0, #0x58f
   8e4d4:	39400000 	ldrb	w0, [x0]
   8e4d8:	6b00003f 	cmp	w1, w0
   8e4dc:	54000341 	b.ne	8e544 <CEcoMemoryManager1Lab_623E1838_QueryInterface+0x9c4>  // b.any
   8e4e0:	f94013e0 	ldr	x0, [sp, #32]
   8e4e4:	91004000 	add	x0, x0, #0x10
   8e4e8:	39400001 	ldrb	w1, [x0]
   8e4ec:	f0000400 	adrp	x0, 111000 <GID_IEcoSystem_AARCH64>
   8e4f0:	91164000 	add	x0, x0, #0x590
   8e4f4:	39400000 	ldrb	w0, [x0]
   8e4f8:	6b00003f 	cmp	w1, w0
   8e4fc:	54000241 	b.ne	8e544 <CEcoMemoryManager1Lab_623E1838_QueryInterface+0x9c4>  // b.any
   8e500:	f94013e0 	ldr	x0, [sp, #32]
   8e504:	91004400 	add	x0, x0, #0x11
   8e508:	39400001 	ldrb	w1, [x0]
   8e50c:	f0000400 	adrp	x0, 111000 <GID_IEcoSystem_AARCH64>
   8e510:	91164400 	add	x0, x0, #0x591
   8e514:	39400000 	ldrb	w0, [x0]
   8e518:	6b00003f 	cmp	w1, w0
   8e51c:	54000141 	b.ne	8e544 <CEcoMemoryManager1Lab_623E1838_QueryInterface+0x9c4>  // b.any
   8e520:	f9401fe1 	ldr	x1, [sp, #56]
   8e524:	f9400fe0 	ldr	x0, [sp, #24]
   8e528:	f9000001 	str	x1, [x0]
   8e52c:	f9401fe0 	ldr	x0, [sp, #56]
   8e530:	f9400000 	ldr	x0, [x0]
   8e534:	f9400401 	ldr	x1, [x0, #8]
   8e538:	f9401fe0 	ldr	x0, [sp, #56]
   8e53c:	d63f0020 	blr	x1
   8e540:	14000005 	b	8e554 <CEcoMemoryManager1Lab_623E1838_QueryInterface+0x9d4>
   8e544:	f9400fe0 	ldr	x0, [sp, #24]
   8e548:	f900001f 	str	xzr, [x0]
   8e54c:	12800240 	mov	w0, #0xffffffed            	// #-19
   8e550:	14000002 	b	8e558 <CEcoMemoryManager1Lab_623E1838_QueryInterface+0x9d8>
   8e554:	52800000 	mov	w0, #0x0                   	// #0
   8e558:	a8c47bfd 	ldp	x29, x30, [sp], #64
   8e55c:	d65f03c0 	ret

000000000008e560 <CEcoMemoryManager1Lab_623E1838_AddRef>:
   8e560:	d10083ff 	sub	sp, sp, #0x20
   8e564:	f90007e0 	str	x0, [sp, #8]
   8e568:	f94007e0 	ldr	x0, [sp, #8]
   8e56c:	f9000fe0 	str	x0, [sp, #24]
   8e570:	f94007e0 	ldr	x0, [sp, #8]
   8e574:	f100001f 	cmp	x0, #0x0
   8e578:	54000061 	b.ne	8e584 <CEcoMemoryManager1Lab_623E1838_AddRef+0x24>  // b.any
   8e57c:	12800000 	mov	w0, #0xffffffff            	// #-1
   8e580:	14000006 	b	8e598 <CEcoMemoryManager1Lab_623E1838_AddRef+0x38>
   8e584:	f9400fe0 	ldr	x0, [sp, #24]
   8e588:	b9401800 	ldr	w0, [x0, #24]
   8e58c:	11000402 	add	w2, w0, #0x1
   8e590:	f9400fe1 	ldr	x1, [sp, #24]
   8e594:	b9001822 	str	w2, [x1, #24]
   8e598:	910083ff 	add	sp, sp, #0x20
   8e59c:	d65f03c0 	ret

000000000008e5a0 <CEcoMemoryManager1Lab_623E1838_Release>:
   8e5a0:	a9bd7bfd 	stp	x29, x30, [sp, #-48]!
   8e5a4:	910003fd 	mov	x29, sp
   8e5a8:	f9000fe0 	str	x0, [sp, #24]
   8e5ac:	f9400fe0 	ldr	x0, [sp, #24]
   8e5b0:	f90017e0 	str	x0, [sp, #40]
   8e5b4:	f9400fe0 	ldr	x0, [sp, #24]
   8e5b8:	f100001f 	cmp	x0, #0x0
   8e5bc:	54000061 	b.ne	8e5c8 <CEcoMemoryManager1Lab_623E1838_Release+0x28>  // b.any
   8e5c0:	12800000 	mov	w0, #0xffffffff            	// #-1
   8e5c4:	14000010 	b	8e604 <CEcoMemoryManager1Lab_623E1838_Release+0x64>
   8e5c8:	f94017e0 	ldr	x0, [sp, #40]
   8e5cc:	b9401800 	ldr	w0, [x0, #24]
   8e5d0:	51000401 	sub	w1, w0, #0x1
   8e5d4:	f94017e0 	ldr	x0, [sp, #40]
   8e5d8:	b9001801 	str	w1, [x0, #24]
   8e5dc:	f94017e0 	ldr	x0, [sp, #40]
   8e5e0:	b9401800 	ldr	w0, [x0, #24]
   8e5e4:	7100001f 	cmp	w0, #0x0
   8e5e8:	540000a1 	b.ne	8e5fc <CEcoMemoryManager1Lab_623E1838_Release+0x5c>  // b.any
   8e5ec:	f94017e0 	ldr	x0, [sp, #40]
   8e5f0:	94000125 	bl	8ea84 <deleteCEcoMemoryManager1Lab_623E1838>
   8e5f4:	52800000 	mov	w0, #0x0                   	// #0
   8e5f8:	14000003 	b	8e604 <CEcoMemoryManager1Lab_623E1838_Release+0x64>
   8e5fc:	f94017e0 	ldr	x0, [sp, #40]
   8e600:	b9401800 	ldr	w0, [x0, #24]
   8e604:	a8c37bfd 	ldp	x29, x30, [sp], #48
   8e608:	d65f03c0 	ret

000000000008e60c <CEcoMemoryManager1Lab_623E1838_Init>:
   8e60c:	d10143ff 	sub	sp, sp, #0x50
   8e610:	f9000fe0 	str	x0, [sp, #24]
   8e614:	f9000be1 	str	x1, [sp, #16]
   8e618:	b9000fe2 	str	w2, [sp, #12]
   8e61c:	f9400fe0 	ldr	x0, [sp, #24]
   8e620:	f90027e0 	str	x0, [sp, #72]
   8e624:	f90023ff 	str	xzr, [sp, #64]
   8e628:	f9001fff 	str	xzr, [sp, #56]
   8e62c:	b90037ff 	str	wzr, [sp, #52]
   8e630:	b90033ff 	str	wzr, [sp, #48]
   8e634:	f9400fe0 	ldr	x0, [sp, #24]
   8e638:	f100001f 	cmp	x0, #0x0
   8e63c:	54000061 	b.ne	8e648 <CEcoMemoryManager1Lab_623E1838_Init+0x3c>  // b.any
   8e640:	12800000 	mov	w0, #0xffffffff            	// #-1
   8e644:	14000055 	b	8e798 <CEcoMemoryManager1Lab_623E1838_Init+0x18c>
   8e648:	f9400be0 	ldr	x0, [sp, #16]
   8e64c:	f100001f 	cmp	x0, #0x0
   8e650:	54000061 	b.ne	8e65c <CEcoMemoryManager1Lab_623E1838_Init+0x50>  // b.any
   8e654:	12800000 	mov	w0, #0xffffffff            	// #-1
   8e658:	14000050 	b	8e798 <CEcoMemoryManager1Lab_623E1838_Init+0x18c>
   8e65c:	52800100 	mov	w0, #0x8                   	// #8
   8e660:	b90037e0 	str	w0, [sp, #52]
   8e664:	f9400be0 	ldr	x0, [sp, #16]
   8e668:	f9001fe0 	str	x0, [sp, #56]
   8e66c:	b94037e0 	ldr	w0, [sp, #52]
   8e670:	51000400 	sub	w0, w0, #0x1
   8e674:	2a0003e1 	mov	w1, w0
   8e678:	f9401fe0 	ldr	x0, [sp, #56]
   8e67c:	8a000020 	and	x0, x1, x0
   8e680:	f100001f 	cmp	x0, #0x0
   8e684:	540003a0 	b.eq	8e6f8 <CEcoMemoryManager1Lab_623E1838_Init+0xec>  // b.none
   8e688:	b94037e0 	ldr	w0, [sp, #52]
   8e68c:	51000400 	sub	w0, w0, #0x1
   8e690:	2a0003e1 	mov	w1, w0
   8e694:	f9401fe0 	ldr	x0, [sp, #56]
   8e698:	8b000021 	add	x1, x1, x0
   8e69c:	b94037e0 	ldr	w0, [sp, #52]
   8e6a0:	51000400 	sub	w0, w0, #0x1
   8e6a4:	2a0003e0 	mov	w0, w0
   8e6a8:	aa2003e0 	mvn	x0, x0
   8e6ac:	8a000020 	and	x0, x1, x0
   8e6b0:	f90017e0 	str	x0, [sp, #40]
   8e6b4:	f94017e0 	ldr	x0, [sp, #40]
   8e6b8:	2a0003e1 	mov	w1, w0
   8e6bc:	f9401fe0 	ldr	x0, [sp, #56]
   8e6c0:	4b000020 	sub	w0, w1, w0
   8e6c4:	b90033e0 	str	w0, [sp, #48]
   8e6c8:	b9400fe1 	ldr	w1, [sp, #12]
   8e6cc:	b94033e0 	ldr	w0, [sp, #48]
   8e6d0:	6b00003f 	cmp	w1, w0
   8e6d4:	54000068 	b.hi	8e6e0 <CEcoMemoryManager1Lab_623E1838_Init+0xd4>  // b.pmore
   8e6d8:	12800000 	mov	w0, #0xffffffff            	// #-1
   8e6dc:	1400002f 	b	8e798 <CEcoMemoryManager1Lab_623E1838_Init+0x18c>
   8e6e0:	f94017e0 	ldr	x0, [sp, #40]
   8e6e4:	f9000be0 	str	x0, [sp, #16]
   8e6e8:	b9400fe1 	ldr	w1, [sp, #12]
   8e6ec:	b94033e0 	ldr	w0, [sp, #48]
   8e6f0:	4b000020 	sub	w0, w1, w0
   8e6f4:	b9000fe0 	str	w0, [sp, #12]
   8e6f8:	b9400fe0 	ldr	w0, [sp, #12]
   8e6fc:	7100601f 	cmp	w0, #0x18
   8e700:	54000068 	b.hi	8e70c <CEcoMemoryManager1Lab_623E1838_Init+0x100>  // b.pmore
   8e704:	12800000 	mov	w0, #0xffffffff            	// #-1
   8e708:	14000024 	b	8e798 <CEcoMemoryManager1Lab_623E1838_Init+0x18c>
   8e70c:	f94027e0 	ldr	x0, [sp, #72]
   8e710:	f9400be1 	ldr	x1, [sp, #16]
   8e714:	f9003001 	str	x1, [x0, #96]
   8e718:	b9400fe0 	ldr	w0, [sp, #12]
   8e71c:	f9400be1 	ldr	x1, [sp, #16]
   8e720:	8b000021 	add	x1, x1, x0
   8e724:	f94027e0 	ldr	x0, [sp, #72]
   8e728:	f9003801 	str	x1, [x0, #112]
   8e72c:	f94027e0 	ldr	x0, [sp, #72]
   8e730:	f9403001 	ldr	x1, [x0, #96]
   8e734:	f94027e0 	ldr	x0, [sp, #72]
   8e738:	f9003401 	str	x1, [x0, #104]
   8e73c:	f94027e0 	ldr	x0, [sp, #72]
   8e740:	b9400fe1 	ldr	w1, [sp, #12]
   8e744:	b9005401 	str	w1, [x0, #84]
   8e748:	f94027e0 	ldr	x0, [sp, #72]
   8e74c:	b900581f 	str	wzr, [x0, #88]
   8e750:	f94027e0 	ldr	x0, [sp, #72]
   8e754:	b900501f 	str	wzr, [x0, #80]
   8e758:	f9400be0 	ldr	x0, [sp, #16]
   8e75c:	f90023e0 	str	x0, [sp, #64]
   8e760:	f94023e0 	ldr	x0, [sp, #64]
   8e764:	f900041f 	str	xzr, [x0, #8]
   8e768:	f94023e0 	ldr	x0, [sp, #64]
   8e76c:	f900001f 	str	xzr, [x0]
   8e770:	f94023e0 	ldr	x0, [sp, #64]
   8e774:	52800021 	mov	w1, #0x1                   	// #1
   8e778:	39005001 	strb	w1, [x0, #20]
   8e77c:	b9400fe0 	ldr	w0, [sp, #12]
   8e780:	51006001 	sub	w1, w0, #0x18
   8e784:	f94023e0 	ldr	x0, [sp, #64]
   8e788:	b9001001 	str	w1, [x0, #16]
   8e78c:	f94027e0 	ldr	x0, [sp, #72]
   8e790:	3901e01f 	strb	wzr, [x0, #120]
   8e794:	52800000 	mov	w0, #0x0                   	// #0
   8e798:	910143ff 	add	sp, sp, #0x50
   8e79c:	d65f03c0 	ret

000000000008e7a0 <CEcoMemoryManager1Lab_623E1838_get_Status>:
   8e7a0:	d10083ff 	sub	sp, sp, #0x20
   8e7a4:	f90007e0 	str	x0, [sp, #8]
   8e7a8:	f90003e1 	str	x1, [sp]
   8e7ac:	f94007e0 	ldr	x0, [sp, #8]
   8e7b0:	f9000fe0 	str	x0, [sp, #24]
   8e7b4:	f94007e0 	ldr	x0, [sp, #8]
   8e7b8:	f100001f 	cmp	x0, #0x0
   8e7bc:	54000080 	b.eq	8e7cc <CEcoMemoryManager1Lab_623E1838_get_Status+0x2c>  // b.none
   8e7c0:	f94003e0 	ldr	x0, [sp]
   8e7c4:	f100001f 	cmp	x0, #0x0
   8e7c8:	54000061 	b.ne	8e7d4 <CEcoMemoryManager1Lab_623E1838_get_Status+0x34>  // b.any
   8e7cc:	52800000 	mov	w0, #0x0                   	// #0
   8e7d0:	1400001c 	b	8e840 <CEcoMemoryManager1Lab_623E1838_get_Status+0xa0>
   8e7d4:	f9400fe0 	ldr	x0, [sp, #24]
   8e7d8:	f9403000 	ldr	x0, [x0, #96]
   8e7dc:	2a0003e1 	mov	w1, w0
   8e7e0:	f94003e0 	ldr	x0, [sp]
   8e7e4:	b9000001 	str	w1, [x0]
   8e7e8:	f9400fe0 	ldr	x0, [sp, #24]
   8e7ec:	f9403000 	ldr	x0, [x0, #96]
   8e7f0:	d360fc00 	lsr	x0, x0, #32
   8e7f4:	2a0003e1 	mov	w1, w0
   8e7f8:	f94003e0 	ldr	x0, [sp]
   8e7fc:	b9000401 	str	w1, [x0, #4]
   8e800:	f9400fe0 	ldr	x0, [sp, #24]
   8e804:	b9405401 	ldr	w1, [x0, #84]
   8e808:	f94003e0 	ldr	x0, [sp]
   8e80c:	b9000801 	str	w1, [x0, #8]
   8e810:	f94003e0 	ldr	x0, [sp]
   8e814:	b9400801 	ldr	w1, [x0, #8]
   8e818:	f9400fe0 	ldr	x0, [sp, #24]
   8e81c:	b9405800 	ldr	w0, [x0, #88]
   8e820:	4b000021 	sub	w1, w1, w0
   8e824:	f94003e0 	ldr	x0, [sp]
   8e828:	b9000c01 	str	w1, [x0, #12]
   8e82c:	f9400fe0 	ldr	x0, [sp, #24]
   8e830:	b9405001 	ldr	w1, [x0, #80]
   8e834:	f94003e0 	ldr	x0, [sp]
   8e838:	b9001001 	str	w1, [x0, #16]
   8e83c:	52800020 	mov	w0, #0x1                   	// #1
   8e840:	910083ff 	add	sp, sp, #0x20
   8e844:	d65f03c0 	ret

000000000008e848 <CEcoMemoryManager1Lab_623E1838_get_UsedBlocks>:
   8e848:	d10083ff 	sub	sp, sp, #0x20
   8e84c:	f9000fe0 	str	x0, [sp, #24]
   8e850:	f9000be1 	str	x1, [sp, #16]
   8e854:	f90007e2 	str	x2, [sp, #8]
   8e858:	f9400fe0 	ldr	x0, [sp, #24]
   8e85c:	f100001f 	cmp	x0, #0x0
   8e860:	54000061 	b.ne	8e86c <CEcoMemoryManager1Lab_623E1838_get_UsedBlocks+0x24>  // b.any
   8e864:	52801fe0 	mov	w0, #0xff                  	// #255
   8e868:	14000002 	b	8e870 <CEcoMemoryManager1Lab_623E1838_get_UsedBlocks+0x28>
   8e86c:	52800000 	mov	w0, #0x0                   	// #0
   8e870:	910083ff 	add	sp, sp, #0x20
   8e874:	d65f03c0 	ret

000000000008e878 <initCEcoMemoryManager1Lab_623E1838>:
   8e878:	d10043ff 	sub	sp, sp, #0x10
   8e87c:	f90007e0 	str	x0, [sp, #8]
   8e880:	f90003e1 	str	x1, [sp]
   8e884:	f94007e0 	ldr	x0, [sp, #8]
   8e888:	f100001f 	cmp	x0, #0x0
   8e88c:	54000061 	b.ne	8e898 <initCEcoMemoryManager1Lab_623E1838+0x20>  // b.any
   8e890:	12800000 	mov	w0, #0xffffffff            	// #-1
   8e894:	14000002 	b	8e89c <initCEcoMemoryManager1Lab_623E1838+0x24>
   8e898:	52800000 	mov	w0, #0x0                   	// #0
   8e89c:	910043ff 	add	sp, sp, #0x10
   8e8a0:	d65f03c0 	ret

000000000008e8a4 <createCEcoMemoryManager1Lab_623E1838>:
   8e8a4:	a9bb7bfd 	stp	x29, x30, [sp, #-80]!
   8e8a8:	910003fd 	mov	x29, sp
   8e8ac:	f90017e0 	str	x0, [sp, #40]
   8e8b0:	f90013e1 	str	x1, [sp, #32]
   8e8b4:	f9000fe2 	str	x2, [sp, #24]
   8e8b8:	f90027ff 	str	xzr, [sp, #72]
   8e8bc:	12800000 	mov	w0, #0xffffffff            	// #-1
   8e8c0:	79008fe0 	strh	w0, [sp, #70]
   8e8c4:	f9001fff 	str	xzr, [sp, #56]
   8e8c8:	f9400fe0 	ldr	x0, [sp, #24]
   8e8cc:	f100001f 	cmp	x0, #0x0
   8e8d0:	54000061 	b.ne	8e8dc <createCEcoMemoryManager1Lab_623E1838+0x38>  // b.any
   8e8d4:	79c08fe0 	ldrsh	w0, [sp, #70]
   8e8d8:	14000069 	b	8ea7c <createCEcoMemoryManager1Lab_623E1838+0x1d8>
   8e8dc:	f0000000 	adrp	x0, 91000 <g_xF10BC39A4F2143CF8A1E104650A2C302Factory+0x58>
   8e8e0:	9125c000 	add	x0, x0, #0x970
   8e8e4:	f90027e0 	str	x0, [sp, #72]
   8e8e8:	f94027e0 	ldr	x0, [sp, #72]
   8e8ec:	b9401800 	ldr	w0, [x0, #24]
   8e8f0:	7100001f 	cmp	w0, #0x0
   8e8f4:	54000b21 	b.ne	8ea58 <createCEcoMemoryManager1Lab_623E1838+0x1b4>  // b.any
   8e8f8:	f94027e0 	ldr	x0, [sp, #72]
   8e8fc:	52800021 	mov	w1, #0x1                   	// #1
   8e900:	b9001801 	str	w1, [x0, #24]
   8e904:	f94027e0 	ldr	x0, [sp, #72]
   8e908:	f94017e1 	ldr	x1, [sp, #40]
   8e90c:	f9001801 	str	x1, [x0, #48]
   8e910:	f94027e0 	ldr	x0, [sp, #72]
   8e914:	f0000001 	adrp	x1, 91000 <g_xF10BC39A4F2143CF8A1E104650A2C302Factory+0x58>
   8e918:	911a6021 	add	x1, x1, #0x698
   8e91c:	f9000001 	str	x1, [x0]
   8e920:	f94027e0 	ldr	x0, [sp, #72]
   8e924:	f0000001 	adrp	x1, 91000 <g_xF10BC39A4F2143CF8A1E104650A2C302Factory+0x58>
   8e928:	911b2021 	add	x1, x1, #0x6c8
   8e92c:	f9000401 	str	x1, [x0, #8]
   8e930:	f94027e0 	ldr	x0, [sp, #72]
   8e934:	f0000001 	adrp	x1, 91000 <g_xF10BC39A4F2143CF8A1E104650A2C302Factory+0x58>
   8e938:	911c6021 	add	x1, x1, #0x718
   8e93c:	f9000801 	str	x1, [x0, #16]
   8e940:	f94027e0 	ldr	x0, [sp, #72]
   8e944:	b900501f 	str	wzr, [x0, #80]
   8e948:	f94027e0 	ldr	x0, [sp, #72]
   8e94c:	b900541f 	str	wzr, [x0, #84]
   8e950:	f94027e0 	ldr	x0, [sp, #72]
   8e954:	b900581f 	str	wzr, [x0, #88]
   8e958:	f94027e0 	ldr	x0, [sp, #72]
   8e95c:	f900301f 	str	xzr, [x0, #96]
   8e960:	f94027e0 	ldr	x0, [sp, #72]
   8e964:	f900341f 	str	xzr, [x0, #104]
   8e968:	f94027e0 	ldr	x0, [sp, #72]
   8e96c:	f900381f 	str	xzr, [x0, #112]
   8e970:	f94027e0 	ldr	x0, [sp, #72]
   8e974:	3901e01f 	strb	wzr, [x0, #120]
   8e978:	f94027e0 	ldr	x0, [sp, #72]
   8e97c:	f9001c1f 	str	xzr, [x0, #56]
   8e980:	f94027e0 	ldr	x0, [sp, #72]
   8e984:	f9401800 	ldr	x0, [x0, #48]
   8e988:	f9400000 	ldr	x0, [x0]
   8e98c:	f9400003 	ldr	x3, [x0]
   8e990:	f94027e0 	ldr	x0, [sp, #72]
   8e994:	f9401804 	ldr	x4, [x0, #48]
   8e998:	9100e3e0 	add	x0, sp, #0x38
   8e99c:	aa0003e2 	mov	x2, x0
   8e9a0:	f0000400 	adrp	x0, 111000 <GID_IEcoSystem_AARCH64>
   8e9a4:	911ba001 	add	x1, x0, #0x6e8
   8e9a8:	aa0403e0 	mov	x0, x4
   8e9ac:	d63f0060 	blr	x3
   8e9b0:	f9401fe0 	ldr	x0, [sp, #56]
   8e9b4:	f9400000 	ldr	x0, [x0]
   8e9b8:	f9401c05 	ldr	x5, [x0, #56]
   8e9bc:	f9401fe6 	ldr	x6, [sp, #56]
   8e9c0:	f94027e0 	ldr	x0, [sp, #72]
   8e9c4:	9100e000 	add	x0, x0, #0x38
   8e9c8:	aa0003e4 	mov	x4, x0
   8e9cc:	f0000400 	adrp	x0, 111000 <GID_IEcoSystem_AARCH64>
   8e9d0:	911d2003 	add	x3, x0, #0x748
   8e9d4:	d2800002 	mov	x2, #0x0                   	// #0
   8e9d8:	f0000400 	adrp	x0, 111000 <GID_IEcoSystem_AARCH64>
   8e9dc:	911d8001 	add	x1, x0, #0x760
   8e9e0:	aa0603e0 	mov	x0, x6
   8e9e4:	d63f00a0 	blr	x5
   8e9e8:	79008fe0 	strh	w0, [sp, #70]
   8e9ec:	79c08fe0 	ldrsh	w0, [sp, #70]
   8e9f0:	7100001f 	cmp	w0, #0x0
   8e9f4:	540000a1 	b.ne	8ea08 <createCEcoMemoryManager1Lab_623E1838+0x164>  // b.any
   8e9f8:	f94027e0 	ldr	x0, [sp, #72]
   8e9fc:	f9401c00 	ldr	x0, [x0, #56]
   8ea00:	f100001f 	cmp	x0, #0x0
   8ea04:	54000061 	b.ne	8ea10 <createCEcoMemoryManager1Lab_623E1838+0x16c>  // b.any
   8ea08:	79c08fe0 	ldrsh	w0, [sp, #70]
   8ea0c:	1400001c 	b	8ea7c <createCEcoMemoryManager1Lab_623E1838+0x1d8>
   8ea10:	f94027e0 	ldr	x0, [sp, #72]
   8ea14:	f900241f 	str	xzr, [x0, #72]
   8ea18:	f9401fe0 	ldr	x0, [sp, #56]
   8ea1c:	f9400000 	ldr	x0, [x0]
   8ea20:	f9401c05 	ldr	x5, [x0, #56]
   8ea24:	f9401fe6 	ldr	x6, [sp, #56]
   8ea28:	f94027e0 	ldr	x0, [sp, #72]
   8ea2c:	91012000 	add	x0, x0, #0x48
   8ea30:	aa0003e4 	mov	x4, x0
   8ea34:	f0000400 	adrp	x0, 111000 <GID_IEcoSystem_AARCH64>
   8ea38:	911e4003 	add	x3, x0, #0x790
   8ea3c:	d2800002 	mov	x2, #0x0                   	// #0
   8ea40:	f0000400 	adrp	x0, 111000 <GID_IEcoSystem_AARCH64>
   8ea44:	911ea001 	add	x1, x0, #0x7a8
   8ea48:	aa0603e0 	mov	x0, x6
   8ea4c:	d63f00a0 	blr	x5
   8ea50:	79008fe0 	strh	w0, [sp, #70]
   8ea54:	14000006 	b	8ea6c <createCEcoMemoryManager1Lab_623E1838+0x1c8>
   8ea58:	f94027e0 	ldr	x0, [sp, #72]
   8ea5c:	b9401800 	ldr	w0, [x0, #24]
   8ea60:	11000401 	add	w1, w0, #0x1
   8ea64:	f94027e0 	ldr	x0, [sp, #72]
   8ea68:	b9001801 	str	w1, [x0, #24]
   8ea6c:	f9400fe0 	ldr	x0, [sp, #24]
   8ea70:	f94027e1 	ldr	x1, [sp, #72]
   8ea74:	f9000001 	str	x1, [x0]
   8ea78:	52800000 	mov	w0, #0x0                   	// #0
   8ea7c:	a8c57bfd 	ldp	x29, x30, [sp], #80
   8ea80:	d65f03c0 	ret

000000000008ea84 <deleteCEcoMemoryManager1Lab_623E1838>:
   8ea84:	d10043ff 	sub	sp, sp, #0x10
   8ea88:	f90007e0 	str	x0, [sp, #8]
   8ea8c:	d503201f 	nop
   8ea90:	910043ff 	add	sp, sp, #0x10
   8ea94:	d65f03c0 	ret

000000000008ea98 <CEcoMemoryAllocator1Lab_623E1838_QueryInterface>:
   8ea98:	a9bc7bfd 	stp	x29, x30, [sp, #-64]!
   8ea9c:	910003fd 	mov	x29, sp
   8eaa0:	f90017e0 	str	x0, [sp, #40]
   8eaa4:	f90013e1 	str	x1, [sp, #32]
   8eaa8:	f9000fe2 	str	x2, [sp, #24]
   8eaac:	f94017e0 	ldr	x0, [sp, #40]
   8eab0:	d1002000 	sub	x0, x0, #0x8
   8eab4:	f9001fe0 	str	x0, [sp, #56]
   8eab8:	f94017e0 	ldr	x0, [sp, #40]
   8eabc:	f100001f 	cmp	x0, #0x0
   8eac0:	54000080 	b.eq	8ead0 <CEcoMemoryAllocator1Lab_623E1838_QueryInterface+0x38>  // b.none
   8eac4:	f9400fe0 	ldr	x0, [sp, #24]
   8eac8:	f100001f 	cmp	x0, #0x0
   8eacc:	54000061 	b.ne	8ead8 <CEcoMemoryAllocator1Lab_623E1838_QueryInterface+0x40>  // b.any
   8ead0:	12800220 	mov	w0, #0xffffffee            	// #-18
   8ead4:	14000268 	b	8f474 <CEcoMemoryAllocator1Lab_623E1838_QueryInterface+0x9dc>
   8ead8:	f94013e0 	ldr	x0, [sp, #32]
   8eadc:	39400001 	ldrb	w1, [x0]
   8eae0:	f0000400 	adrp	x0, 111000 <GID_IEcoSystem_AARCH64>
   8eae4:	91250000 	add	x0, x0, #0x940
   8eae8:	39400000 	ldrb	w0, [x0]
   8eaec:	6b00003f 	cmp	w1, w0
   8eaf0:	54001241 	b.ne	8ed38 <CEcoMemoryAllocator1Lab_623E1838_QueryInterface+0x2a0>  // b.any
   8eaf4:	f94013e0 	ldr	x0, [sp, #32]
   8eaf8:	91000400 	add	x0, x0, #0x1
   8eafc:	39400001 	ldrb	w1, [x0]
   8eb00:	f0000400 	adrp	x0, 111000 <GID_IEcoSystem_AARCH64>
   8eb04:	91250400 	add	x0, x0, #0x941
   8eb08:	39400000 	ldrb	w0, [x0]
   8eb0c:	6b00003f 	cmp	w1, w0
   8eb10:	54001141 	b.ne	8ed38 <CEcoMemoryAllocator1Lab_623E1838_QueryInterface+0x2a0>  // b.any
   8eb14:	f94013e0 	ldr	x0, [sp, #32]
   8eb18:	91000800 	add	x0, x0, #0x2
   8eb1c:	39400001 	ldrb	w1, [x0]
   8eb20:	f0000400 	adrp	x0, 111000 <GID_IEcoSystem_AARCH64>
   8eb24:	91250800 	add	x0, x0, #0x942
   8eb28:	39400000 	ldrb	w0, [x0]
   8eb2c:	6b00003f 	cmp	w1, w0
   8eb30:	54001041 	b.ne	8ed38 <CEcoMemoryAllocator1Lab_623E1838_QueryInterface+0x2a0>  // b.any
   8eb34:	f94013e0 	ldr	x0, [sp, #32]
   8eb38:	91000c00 	add	x0, x0, #0x3
   8eb3c:	39400001 	ldrb	w1, [x0]
   8eb40:	f0000400 	adrp	x0, 111000 <GID_IEcoSystem_AARCH64>
   8eb44:	91250c00 	add	x0, x0, #0x943
   8eb48:	39400000 	ldrb	w0, [x0]
   8eb4c:	6b00003f 	cmp	w1, w0
   8eb50:	54000f41 	b.ne	8ed38 <CEcoMemoryAllocator1Lab_623E1838_QueryInterface+0x2a0>  // b.any
   8eb54:	f94013e0 	ldr	x0, [sp, #32]
   8eb58:	91001000 	add	x0, x0, #0x4
   8eb5c:	39400001 	ldrb	w1, [x0]
   8eb60:	f0000400 	adrp	x0, 111000 <GID_IEcoSystem_AARCH64>
   8eb64:	91251000 	add	x0, x0, #0x944
   8eb68:	39400000 	ldrb	w0, [x0]
   8eb6c:	6b00003f 	cmp	w1, w0
   8eb70:	54000e41 	b.ne	8ed38 <CEcoMemoryAllocator1Lab_623E1838_QueryInterface+0x2a0>  // b.any
   8eb74:	f94013e0 	ldr	x0, [sp, #32]
   8eb78:	91001400 	add	x0, x0, #0x5
   8eb7c:	39400001 	ldrb	w1, [x0]
   8eb80:	f0000400 	adrp	x0, 111000 <GID_IEcoSystem_AARCH64>
   8eb84:	91251400 	add	x0, x0, #0x945
   8eb88:	39400000 	ldrb	w0, [x0]
   8eb8c:	6b00003f 	cmp	w1, w0
   8eb90:	54000d41 	b.ne	8ed38 <CEcoMemoryAllocator1Lab_623E1838_QueryInterface+0x2a0>  // b.any
   8eb94:	f94013e0 	ldr	x0, [sp, #32]
   8eb98:	91001800 	add	x0, x0, #0x6
   8eb9c:	39400001 	ldrb	w1, [x0]
   8eba0:	f0000400 	adrp	x0, 111000 <GID_IEcoSystem_AARCH64>
   8eba4:	91251800 	add	x0, x0, #0x946
   8eba8:	39400000 	ldrb	w0, [x0]
   8ebac:	6b00003f 	cmp	w1, w0
   8ebb0:	54000c41 	b.ne	8ed38 <CEcoMemoryAllocator1Lab_623E1838_QueryInterface+0x2a0>  // b.any
   8ebb4:	f94013e0 	ldr	x0, [sp, #32]
   8ebb8:	91001c00 	add	x0, x0, #0x7
   8ebbc:	39400001 	ldrb	w1, [x0]
   8ebc0:	f0000400 	adrp	x0, 111000 <GID_IEcoSystem_AARCH64>
   8ebc4:	91251c00 	add	x0, x0, #0x947
   8ebc8:	39400000 	ldrb	w0, [x0]
   8ebcc:	6b00003f 	cmp	w1, w0
   8ebd0:	54000b41 	b.ne	8ed38 <CEcoMemoryAllocator1Lab_623E1838_QueryInterface+0x2a0>  // b.any
   8ebd4:	f94013e0 	ldr	x0, [sp, #32]
   8ebd8:	91002000 	add	x0, x0, #0x8
   8ebdc:	39400001 	ldrb	w1, [x0]
   8ebe0:	f0000400 	adrp	x0, 111000 <GID_IEcoSystem_AARCH64>
   8ebe4:	91252000 	add	x0, x0, #0x948
   8ebe8:	39400000 	ldrb	w0, [x0]
   8ebec:	6b00003f 	cmp	w1, w0
   8ebf0:	54000a41 	b.ne	8ed38 <CEcoMemoryAllocator1Lab_623E1838_QueryInterface+0x2a0>  // b.any
   8ebf4:	f94013e0 	ldr	x0, [sp, #32]
   8ebf8:	91002400 	add	x0, x0, #0x9
   8ebfc:	39400001 	ldrb	w1, [x0]
   8ec00:	f0000400 	adrp	x0, 111000 <GID_IEcoSystem_AARCH64>
   8ec04:	91252400 	add	x0, x0, #0x949
   8ec08:	39400000 	ldrb	w0, [x0]
   8ec0c:	6b00003f 	cmp	w1, w0
   8ec10:	54000941 	b.ne	8ed38 <CEcoMemoryAllocator1Lab_623E1838_QueryInterface+0x2a0>  // b.any
   8ec14:	f94013e0 	ldr	x0, [sp, #32]
   8ec18:	91002800 	add	x0, x0, #0xa
   8ec1c:	39400001 	ldrb	w1, [x0]
   8ec20:	f0000400 	adrp	x0, 111000 <GID_IEcoSystem_AARCH64>
   8ec24:	91252800 	add	x0, x0, #0x94a
   8ec28:	39400000 	ldrb	w0, [x0]
   8ec2c:	6b00003f 	cmp	w1, w0
   8ec30:	54000841 	b.ne	8ed38 <CEcoMemoryAllocator1Lab_623E1838_QueryInterface+0x2a0>  // b.any
   8ec34:	f94013e0 	ldr	x0, [sp, #32]
   8ec38:	91002c00 	add	x0, x0, #0xb
   8ec3c:	39400001 	ldrb	w1, [x0]
   8ec40:	f0000400 	adrp	x0, 111000 <GID_IEcoSystem_AARCH64>
   8ec44:	91252c00 	add	x0, x0, #0x94b
   8ec48:	39400000 	ldrb	w0, [x0]
   8ec4c:	6b00003f 	cmp	w1, w0
   8ec50:	54000741 	b.ne	8ed38 <CEcoMemoryAllocator1Lab_623E1838_QueryInterface+0x2a0>  // b.any
   8ec54:	f94013e0 	ldr	x0, [sp, #32]
   8ec58:	91003000 	add	x0, x0, #0xc
   8ec5c:	39400001 	ldrb	w1, [x0]
   8ec60:	f0000400 	adrp	x0, 111000 <GID_IEcoSystem_AARCH64>
   8ec64:	91253000 	add	x0, x0, #0x94c
   8ec68:	39400000 	ldrb	w0, [x0]
   8ec6c:	6b00003f 	cmp	w1, w0
   8ec70:	54000641 	b.ne	8ed38 <CEcoMemoryAllocator1Lab_623E1838_QueryInterface+0x2a0>  // b.any
   8ec74:	f94013e0 	ldr	x0, [sp, #32]
   8ec78:	91003400 	add	x0, x0, #0xd
   8ec7c:	39400001 	ldrb	w1, [x0]
   8ec80:	f0000400 	adrp	x0, 111000 <GID_IEcoSystem_AARCH64>
   8ec84:	91253400 	add	x0, x0, #0x94d
   8ec88:	39400000 	ldrb	w0, [x0]
   8ec8c:	6b00003f 	cmp	w1, w0
   8ec90:	54000541 	b.ne	8ed38 <CEcoMemoryAllocator1Lab_623E1838_QueryInterface+0x2a0>  // b.any
   8ec94:	f94013e0 	ldr	x0, [sp, #32]
   8ec98:	91003800 	add	x0, x0, #0xe
   8ec9c:	39400001 	ldrb	w1, [x0]
   8eca0:	f0000400 	adrp	x0, 111000 <GID_IEcoSystem_AARCH64>
   8eca4:	91253800 	add	x0, x0, #0x94e
   8eca8:	39400000 	ldrb	w0, [x0]
   8ecac:	6b00003f 	cmp	w1, w0
   8ecb0:	54000441 	b.ne	8ed38 <CEcoMemoryAllocator1Lab_623E1838_QueryInterface+0x2a0>  // b.any
   8ecb4:	f94013e0 	ldr	x0, [sp, #32]
   8ecb8:	91003c00 	add	x0, x0, #0xf
   8ecbc:	39400001 	ldrb	w1, [x0]
   8ecc0:	f0000400 	adrp	x0, 111000 <GID_IEcoSystem_AARCH64>
   8ecc4:	91253c00 	add	x0, x0, #0x94f
   8ecc8:	39400000 	ldrb	w0, [x0]
   8eccc:	6b00003f 	cmp	w1, w0
   8ecd0:	54000341 	b.ne	8ed38 <CEcoMemoryAllocator1Lab_623E1838_QueryInterface+0x2a0>  // b.any
   8ecd4:	f94013e0 	ldr	x0, [sp, #32]
   8ecd8:	91004000 	add	x0, x0, #0x10
   8ecdc:	39400001 	ldrb	w1, [x0]
   8ece0:	f0000400 	adrp	x0, 111000 <GID_IEcoSystem_AARCH64>
   8ece4:	91254000 	add	x0, x0, #0x950
   8ece8:	39400000 	ldrb	w0, [x0]
   8ecec:	6b00003f 	cmp	w1, w0
   8ecf0:	54000241 	b.ne	8ed38 <CEcoMemoryAllocator1Lab_623E1838_QueryInterface+0x2a0>  // b.any
   8ecf4:	f94013e0 	ldr	x0, [sp, #32]
   8ecf8:	91004400 	add	x0, x0, #0x11
   8ecfc:	39400001 	ldrb	w1, [x0]
   8ed00:	f0000400 	adrp	x0, 111000 <GID_IEcoSystem_AARCH64>
   8ed04:	91254400 	add	x0, x0, #0x951
   8ed08:	39400000 	ldrb	w0, [x0]
   8ed0c:	6b00003f 	cmp	w1, w0
   8ed10:	54000141 	b.ne	8ed38 <CEcoMemoryAllocator1Lab_623E1838_QueryInterface+0x2a0>  // b.any
   8ed14:	f9401fe1 	ldr	x1, [sp, #56]
   8ed18:	f9400fe0 	ldr	x0, [sp, #24]
   8ed1c:	f9000001 	str	x1, [x0]
   8ed20:	f9401fe0 	ldr	x0, [sp, #56]
   8ed24:	f9400000 	ldr	x0, [x0]
   8ed28:	f9400401 	ldr	x1, [x0, #8]
   8ed2c:	f9401fe0 	ldr	x0, [sp, #56]
   8ed30:	d63f0020 	blr	x1
   8ed34:	140001cf 	b	8f470 <CEcoMemoryAllocator1Lab_623E1838_QueryInterface+0x9d8>
   8ed38:	f94013e0 	ldr	x0, [sp, #32]
   8ed3c:	39400001 	ldrb	w1, [x0]
   8ed40:	f0000400 	adrp	x0, 111000 <GID_IEcoSystem_AARCH64>
   8ed44:	9124a000 	add	x0, x0, #0x928
   8ed48:	39400000 	ldrb	w0, [x0]
   8ed4c:	6b00003f 	cmp	w1, w0
   8ed50:	54001261 	b.ne	8ef9c <CEcoMemoryAllocator1Lab_623E1838_QueryInterface+0x504>  // b.any
   8ed54:	f94013e0 	ldr	x0, [sp, #32]
   8ed58:	91000400 	add	x0, x0, #0x1
   8ed5c:	39400001 	ldrb	w1, [x0]
   8ed60:	f0000400 	adrp	x0, 111000 <GID_IEcoSystem_AARCH64>
   8ed64:	9124a400 	add	x0, x0, #0x929
   8ed68:	39400000 	ldrb	w0, [x0]
   8ed6c:	6b00003f 	cmp	w1, w0
   8ed70:	54001161 	b.ne	8ef9c <CEcoMemoryAllocator1Lab_623E1838_QueryInterface+0x504>  // b.any
   8ed74:	f94013e0 	ldr	x0, [sp, #32]
   8ed78:	91000800 	add	x0, x0, #0x2
   8ed7c:	39400001 	ldrb	w1, [x0]
   8ed80:	f0000400 	adrp	x0, 111000 <GID_IEcoSystem_AARCH64>
   8ed84:	9124a800 	add	x0, x0, #0x92a
   8ed88:	39400000 	ldrb	w0, [x0]
   8ed8c:	6b00003f 	cmp	w1, w0
   8ed90:	54001061 	b.ne	8ef9c <CEcoMemoryAllocator1Lab_623E1838_QueryInterface+0x504>  // b.any
   8ed94:	f94013e0 	ldr	x0, [sp, #32]
   8ed98:	91000c00 	add	x0, x0, #0x3
   8ed9c:	39400001 	ldrb	w1, [x0]
   8eda0:	f0000400 	adrp	x0, 111000 <GID_IEcoSystem_AARCH64>
   8eda4:	9124ac00 	add	x0, x0, #0x92b
   8eda8:	39400000 	ldrb	w0, [x0]
   8edac:	6b00003f 	cmp	w1, w0
   8edb0:	54000f61 	b.ne	8ef9c <CEcoMemoryAllocator1Lab_623E1838_QueryInterface+0x504>  // b.any
   8edb4:	f94013e0 	ldr	x0, [sp, #32]
   8edb8:	91001000 	add	x0, x0, #0x4
   8edbc:	39400001 	ldrb	w1, [x0]
   8edc0:	f0000400 	adrp	x0, 111000 <GID_IEcoSystem_AARCH64>
   8edc4:	9124b000 	add	x0, x0, #0x92c
   8edc8:	39400000 	ldrb	w0, [x0]
   8edcc:	6b00003f 	cmp	w1, w0
   8edd0:	54000e61 	b.ne	8ef9c <CEcoMemoryAllocator1Lab_623E1838_QueryInterface+0x504>  // b.any
   8edd4:	f94013e0 	ldr	x0, [sp, #32]
   8edd8:	91001400 	add	x0, x0, #0x5
   8eddc:	39400001 	ldrb	w1, [x0]
   8ede0:	f0000400 	adrp	x0, 111000 <GID_IEcoSystem_AARCH64>
   8ede4:	9124b400 	add	x0, x0, #0x92d
   8ede8:	39400000 	ldrb	w0, [x0]
   8edec:	6b00003f 	cmp	w1, w0
   8edf0:	54000d61 	b.ne	8ef9c <CEcoMemoryAllocator1Lab_623E1838_QueryInterface+0x504>  // b.any
   8edf4:	f94013e0 	ldr	x0, [sp, #32]
   8edf8:	91001800 	add	x0, x0, #0x6
   8edfc:	39400001 	ldrb	w1, [x0]
   8ee00:	f0000400 	adrp	x0, 111000 <GID_IEcoSystem_AARCH64>
   8ee04:	9124b800 	add	x0, x0, #0x92e
   8ee08:	39400000 	ldrb	w0, [x0]
   8ee0c:	6b00003f 	cmp	w1, w0
   8ee10:	54000c61 	b.ne	8ef9c <CEcoMemoryAllocator1Lab_623E1838_QueryInterface+0x504>  // b.any
   8ee14:	f94013e0 	ldr	x0, [sp, #32]
   8ee18:	91001c00 	add	x0, x0, #0x7
   8ee1c:	39400001 	ldrb	w1, [x0]
   8ee20:	f0000400 	adrp	x0, 111000 <GID_IEcoSystem_AARCH64>
   8ee24:	9124bc00 	add	x0, x0, #0x92f
   8ee28:	39400000 	ldrb	w0, [x0]
   8ee2c:	6b00003f 	cmp	w1, w0
   8ee30:	54000b61 	b.ne	8ef9c <CEcoMemoryAllocator1Lab_623E1838_QueryInterface+0x504>  // b.any
   8ee34:	f94013e0 	ldr	x0, [sp, #32]
   8ee38:	91002000 	add	x0, x0, #0x8
   8ee3c:	39400001 	ldrb	w1, [x0]
   8ee40:	f0000400 	adrp	x0, 111000 <GID_IEcoSystem_AARCH64>
   8ee44:	9124c000 	add	x0, x0, #0x930
   8ee48:	39400000 	ldrb	w0, [x0]
   8ee4c:	6b00003f 	cmp	w1, w0
   8ee50:	54000a61 	b.ne	8ef9c <CEcoMemoryAllocator1Lab_623E1838_QueryInterface+0x504>  // b.any
   8ee54:	f94013e0 	ldr	x0, [sp, #32]
   8ee58:	91002400 	add	x0, x0, #0x9
   8ee5c:	39400001 	ldrb	w1, [x0]
   8ee60:	f0000400 	adrp	x0, 111000 <GID_IEcoSystem_AARCH64>
   8ee64:	9124c400 	add	x0, x0, #0x931
   8ee68:	39400000 	ldrb	w0, [x0]
   8ee6c:	6b00003f 	cmp	w1, w0
   8ee70:	54000961 	b.ne	8ef9c <CEcoMemoryAllocator1Lab_623E1838_QueryInterface+0x504>  // b.any
   8ee74:	f94013e0 	ldr	x0, [sp, #32]
   8ee78:	91002800 	add	x0, x0, #0xa
   8ee7c:	39400001 	ldrb	w1, [x0]
   8ee80:	f0000400 	adrp	x0, 111000 <GID_IEcoSystem_AARCH64>
   8ee84:	9124c800 	add	x0, x0, #0x932
   8ee88:	39400000 	ldrb	w0, [x0]
   8ee8c:	6b00003f 	cmp	w1, w0
   8ee90:	54000861 	b.ne	8ef9c <CEcoMemoryAllocator1Lab_623E1838_QueryInterface+0x504>  // b.any
   8ee94:	f94013e0 	ldr	x0, [sp, #32]
   8ee98:	91002c00 	add	x0, x0, #0xb
   8ee9c:	39400001 	ldrb	w1, [x0]
   8eea0:	f0000400 	adrp	x0, 111000 <GID_IEcoSystem_AARCH64>
   8eea4:	9124cc00 	add	x0, x0, #0x933
   8eea8:	39400000 	ldrb	w0, [x0]
   8eeac:	6b00003f 	cmp	w1, w0
   8eeb0:	54000761 	b.ne	8ef9c <CEcoMemoryAllocator1Lab_623E1838_QueryInterface+0x504>  // b.any
   8eeb4:	f94013e0 	ldr	x0, [sp, #32]
   8eeb8:	91003000 	add	x0, x0, #0xc
   8eebc:	39400001 	ldrb	w1, [x0]
   8eec0:	f0000400 	adrp	x0, 111000 <GID_IEcoSystem_AARCH64>
   8eec4:	9124d000 	add	x0, x0, #0x934
   8eec8:	39400000 	ldrb	w0, [x0]
   8eecc:	6b00003f 	cmp	w1, w0
   8eed0:	54000661 	b.ne	8ef9c <CEcoMemoryAllocator1Lab_623E1838_QueryInterface+0x504>  // b.any
   8eed4:	f94013e0 	ldr	x0, [sp, #32]
   8eed8:	91003400 	add	x0, x0, #0xd
   8eedc:	39400001 	ldrb	w1, [x0]
   8eee0:	f0000400 	adrp	x0, 111000 <GID_IEcoSystem_AARCH64>
   8eee4:	9124d400 	add	x0, x0, #0x935
   8eee8:	39400000 	ldrb	w0, [x0]
   8eeec:	6b00003f 	cmp	w1, w0
   8eef0:	54000561 	b.ne	8ef9c <CEcoMemoryAllocator1Lab_623E1838_QueryInterface+0x504>  // b.any
   8eef4:	f94013e0 	ldr	x0, [sp, #32]
   8eef8:	91003800 	add	x0, x0, #0xe
   8eefc:	39400001 	ldrb	w1, [x0]
   8ef00:	f0000400 	adrp	x0, 111000 <GID_IEcoSystem_AARCH64>
   8ef04:	9124d800 	add	x0, x0, #0x936
   8ef08:	39400000 	ldrb	w0, [x0]
   8ef0c:	6b00003f 	cmp	w1, w0
   8ef10:	54000461 	b.ne	8ef9c <CEcoMemoryAllocator1Lab_623E1838_QueryInterface+0x504>  // b.any
   8ef14:	f94013e0 	ldr	x0, [sp, #32]
   8ef18:	91003c00 	add	x0, x0, #0xf
   8ef1c:	39400001 	ldrb	w1, [x0]
   8ef20:	f0000400 	adrp	x0, 111000 <GID_IEcoSystem_AARCH64>
   8ef24:	9124dc00 	add	x0, x0, #0x937
   8ef28:	39400000 	ldrb	w0, [x0]
   8ef2c:	6b00003f 	cmp	w1, w0
   8ef30:	54000361 	b.ne	8ef9c <CEcoMemoryAllocator1Lab_623E1838_QueryInterface+0x504>  // b.any
   8ef34:	f94013e0 	ldr	x0, [sp, #32]
   8ef38:	91004000 	add	x0, x0, #0x10
   8ef3c:	39400001 	ldrb	w1, [x0]
   8ef40:	f0000400 	adrp	x0, 111000 <GID_IEcoSystem_AARCH64>
   8ef44:	9124e000 	add	x0, x0, #0x938
   8ef48:	39400000 	ldrb	w0, [x0]
   8ef4c:	6b00003f 	cmp	w1, w0
   8ef50:	54000261 	b.ne	8ef9c <CEcoMemoryAllocator1Lab_623E1838_QueryInterface+0x504>  // b.any
   8ef54:	f94013e0 	ldr	x0, [sp, #32]
   8ef58:	91004400 	add	x0, x0, #0x11
   8ef5c:	39400001 	ldrb	w1, [x0]
   8ef60:	f0000400 	adrp	x0, 111000 <GID_IEcoSystem_AARCH64>
   8ef64:	9124e400 	add	x0, x0, #0x939
   8ef68:	39400000 	ldrb	w0, [x0]
   8ef6c:	6b00003f 	cmp	w1, w0
   8ef70:	54000161 	b.ne	8ef9c <CEcoMemoryAllocator1Lab_623E1838_QueryInterface+0x504>  // b.any
   8ef74:	f9401fe0 	ldr	x0, [sp, #56]
   8ef78:	91002001 	add	x1, x0, #0x8
   8ef7c:	f9400fe0 	ldr	x0, [sp, #24]
   8ef80:	f9000001 	str	x1, [x0]
   8ef84:	f9401fe0 	ldr	x0, [sp, #56]
   8ef88:	f9400000 	ldr	x0, [x0]
   8ef8c:	f9400401 	ldr	x1, [x0, #8]
   8ef90:	f9401fe0 	ldr	x0, [sp, #56]
   8ef94:	d63f0020 	blr	x1
   8ef98:	14000136 	b	8f470 <CEcoMemoryAllocator1Lab_623E1838_QueryInterface+0x9d8>
   8ef9c:	f94013e0 	ldr	x0, [sp, #32]
   8efa0:	39400001 	ldrb	w1, [x0]
   8efa4:	f0000400 	adrp	x0, 111000 <GID_IEcoSystem_AARCH64>
   8efa8:	9125c000 	add	x0, x0, #0x970
   8efac:	39400000 	ldrb	w0, [x0]
   8efb0:	6b00003f 	cmp	w1, w0
   8efb4:	54001261 	b.ne	8f200 <CEcoMemoryAllocator1Lab_623E1838_QueryInterface+0x768>  // b.any
   8efb8:	f94013e0 	ldr	x0, [sp, #32]
   8efbc:	91000400 	add	x0, x0, #0x1
   8efc0:	39400001 	ldrb	w1, [x0]
   8efc4:	f0000400 	adrp	x0, 111000 <GID_IEcoSystem_AARCH64>
   8efc8:	9125c400 	add	x0, x0, #0x971
   8efcc:	39400000 	ldrb	w0, [x0]
   8efd0:	6b00003f 	cmp	w1, w0
   8efd4:	54001161 	b.ne	8f200 <CEcoMemoryAllocator1Lab_623E1838_QueryInterface+0x768>  // b.any
   8efd8:	f94013e0 	ldr	x0, [sp, #32]
   8efdc:	91000800 	add	x0, x0, #0x2
   8efe0:	39400001 	ldrb	w1, [x0]
   8efe4:	f0000400 	adrp	x0, 111000 <GID_IEcoSystem_AARCH64>
   8efe8:	9125c800 	add	x0, x0, #0x972
   8efec:	39400000 	ldrb	w0, [x0]
   8eff0:	6b00003f 	cmp	w1, w0
   8eff4:	54001061 	b.ne	8f200 <CEcoMemoryAllocator1Lab_623E1838_QueryInterface+0x768>  // b.any
   8eff8:	f94013e0 	ldr	x0, [sp, #32]
   8effc:	91000c00 	add	x0, x0, #0x3
   8f000:	39400001 	ldrb	w1, [x0]
   8f004:	d0000400 	adrp	x0, 111000 <GID_IEcoSystem_AARCH64>
   8f008:	9125cc00 	add	x0, x0, #0x973
   8f00c:	39400000 	ldrb	w0, [x0]
   8f010:	6b00003f 	cmp	w1, w0
   8f014:	54000f61 	b.ne	8f200 <CEcoMemoryAllocator1Lab_623E1838_QueryInterface+0x768>  // b.any
   8f018:	f94013e0 	ldr	x0, [sp, #32]
   8f01c:	91001000 	add	x0, x0, #0x4
   8f020:	39400001 	ldrb	w1, [x0]
   8f024:	d0000400 	adrp	x0, 111000 <GID_IEcoSystem_AARCH64>
   8f028:	9125d000 	add	x0, x0, #0x974
   8f02c:	39400000 	ldrb	w0, [x0]
   8f030:	6b00003f 	cmp	w1, w0
   8f034:	54000e61 	b.ne	8f200 <CEcoMemoryAllocator1Lab_623E1838_QueryInterface+0x768>  // b.any
   8f038:	f94013e0 	ldr	x0, [sp, #32]
   8f03c:	91001400 	add	x0, x0, #0x5
   8f040:	39400001 	ldrb	w1, [x0]
   8f044:	d0000400 	adrp	x0, 111000 <GID_IEcoSystem_AARCH64>
   8f048:	9125d400 	add	x0, x0, #0x975
   8f04c:	39400000 	ldrb	w0, [x0]
   8f050:	6b00003f 	cmp	w1, w0
   8f054:	54000d61 	b.ne	8f200 <CEcoMemoryAllocator1Lab_623E1838_QueryInterface+0x768>  // b.any
   8f058:	f94013e0 	ldr	x0, [sp, #32]
   8f05c:	91001800 	add	x0, x0, #0x6
   8f060:	39400001 	ldrb	w1, [x0]
   8f064:	d0000400 	adrp	x0, 111000 <GID_IEcoSystem_AARCH64>
   8f068:	9125d800 	add	x0, x0, #0x976
   8f06c:	39400000 	ldrb	w0, [x0]
   8f070:	6b00003f 	cmp	w1, w0
   8f074:	54000c61 	b.ne	8f200 <CEcoMemoryAllocator1Lab_623E1838_QueryInterface+0x768>  // b.any
   8f078:	f94013e0 	ldr	x0, [sp, #32]
   8f07c:	91001c00 	add	x0, x0, #0x7
   8f080:	39400001 	ldrb	w1, [x0]
   8f084:	d0000400 	adrp	x0, 111000 <GID_IEcoSystem_AARCH64>
   8f088:	9125dc00 	add	x0, x0, #0x977
   8f08c:	39400000 	ldrb	w0, [x0]
   8f090:	6b00003f 	cmp	w1, w0
   8f094:	54000b61 	b.ne	8f200 <CEcoMemoryAllocator1Lab_623E1838_QueryInterface+0x768>  // b.any
   8f098:	f94013e0 	ldr	x0, [sp, #32]
   8f09c:	91002000 	add	x0, x0, #0x8
   8f0a0:	39400001 	ldrb	w1, [x0]
   8f0a4:	d0000400 	adrp	x0, 111000 <GID_IEcoSystem_AARCH64>
   8f0a8:	9125e000 	add	x0, x0, #0x978
   8f0ac:	39400000 	ldrb	w0, [x0]
   8f0b0:	6b00003f 	cmp	w1, w0
   8f0b4:	54000a61 	b.ne	8f200 <CEcoMemoryAllocator1Lab_623E1838_QueryInterface+0x768>  // b.any
   8f0b8:	f94013e0 	ldr	x0, [sp, #32]
   8f0bc:	91002400 	add	x0, x0, #0x9
   8f0c0:	39400001 	ldrb	w1, [x0]
   8f0c4:	d0000400 	adrp	x0, 111000 <GID_IEcoSystem_AARCH64>
   8f0c8:	9125e400 	add	x0, x0, #0x979
   8f0cc:	39400000 	ldrb	w0, [x0]
   8f0d0:	6b00003f 	cmp	w1, w0
   8f0d4:	54000961 	b.ne	8f200 <CEcoMemoryAllocator1Lab_623E1838_QueryInterface+0x768>  // b.any
   8f0d8:	f94013e0 	ldr	x0, [sp, #32]
   8f0dc:	91002800 	add	x0, x0, #0xa
   8f0e0:	39400001 	ldrb	w1, [x0]
   8f0e4:	d0000400 	adrp	x0, 111000 <GID_IEcoSystem_AARCH64>
   8f0e8:	9125e800 	add	x0, x0, #0x97a
   8f0ec:	39400000 	ldrb	w0, [x0]
   8f0f0:	6b00003f 	cmp	w1, w0
   8f0f4:	54000861 	b.ne	8f200 <CEcoMemoryAllocator1Lab_623E1838_QueryInterface+0x768>  // b.any
   8f0f8:	f94013e0 	ldr	x0, [sp, #32]
   8f0fc:	91002c00 	add	x0, x0, #0xb
   8f100:	39400001 	ldrb	w1, [x0]
   8f104:	d0000400 	adrp	x0, 111000 <GID_IEcoSystem_AARCH64>
   8f108:	9125ec00 	add	x0, x0, #0x97b
   8f10c:	39400000 	ldrb	w0, [x0]
   8f110:	6b00003f 	cmp	w1, w0
   8f114:	54000761 	b.ne	8f200 <CEcoMemoryAllocator1Lab_623E1838_QueryInterface+0x768>  // b.any
   8f118:	f94013e0 	ldr	x0, [sp, #32]
   8f11c:	91003000 	add	x0, x0, #0xc
   8f120:	39400001 	ldrb	w1, [x0]
   8f124:	d0000400 	adrp	x0, 111000 <GID_IEcoSystem_AARCH64>
   8f128:	9125f000 	add	x0, x0, #0x97c
   8f12c:	39400000 	ldrb	w0, [x0]
   8f130:	6b00003f 	cmp	w1, w0
   8f134:	54000661 	b.ne	8f200 <CEcoMemoryAllocator1Lab_623E1838_QueryInterface+0x768>  // b.any
   8f138:	f94013e0 	ldr	x0, [sp, #32]
   8f13c:	91003400 	add	x0, x0, #0xd
   8f140:	39400001 	ldrb	w1, [x0]
   8f144:	d0000400 	adrp	x0, 111000 <GID_IEcoSystem_AARCH64>
   8f148:	9125f400 	add	x0, x0, #0x97d
   8f14c:	39400000 	ldrb	w0, [x0]
   8f150:	6b00003f 	cmp	w1, w0
   8f154:	54000561 	b.ne	8f200 <CEcoMemoryAllocator1Lab_623E1838_QueryInterface+0x768>  // b.any
   8f158:	f94013e0 	ldr	x0, [sp, #32]
   8f15c:	91003800 	add	x0, x0, #0xe
   8f160:	39400001 	ldrb	w1, [x0]
   8f164:	d0000400 	adrp	x0, 111000 <GID_IEcoSystem_AARCH64>
   8f168:	9125f800 	add	x0, x0, #0x97e
   8f16c:	39400000 	ldrb	w0, [x0]
   8f170:	6b00003f 	cmp	w1, w0
   8f174:	54000461 	b.ne	8f200 <CEcoMemoryAllocator1Lab_623E1838_QueryInterface+0x768>  // b.any
   8f178:	f94013e0 	ldr	x0, [sp, #32]
   8f17c:	91003c00 	add	x0, x0, #0xf
   8f180:	39400001 	ldrb	w1, [x0]
   8f184:	d0000400 	adrp	x0, 111000 <GID_IEcoSystem_AARCH64>
   8f188:	9125fc00 	add	x0, x0, #0x97f
   8f18c:	39400000 	ldrb	w0, [x0]
   8f190:	6b00003f 	cmp	w1, w0
   8f194:	54000361 	b.ne	8f200 <CEcoMemoryAllocator1Lab_623E1838_QueryInterface+0x768>  // b.any
   8f198:	f94013e0 	ldr	x0, [sp, #32]
   8f19c:	91004000 	add	x0, x0, #0x10
   8f1a0:	39400001 	ldrb	w1, [x0]
   8f1a4:	d0000400 	adrp	x0, 111000 <GID_IEcoSystem_AARCH64>
   8f1a8:	91260000 	add	x0, x0, #0x980
   8f1ac:	39400000 	ldrb	w0, [x0]
   8f1b0:	6b00003f 	cmp	w1, w0
   8f1b4:	54000261 	b.ne	8f200 <CEcoMemoryAllocator1Lab_623E1838_QueryInterface+0x768>  // b.any
   8f1b8:	f94013e0 	ldr	x0, [sp, #32]
   8f1bc:	91004400 	add	x0, x0, #0x11
   8f1c0:	39400001 	ldrb	w1, [x0]
   8f1c4:	d0000400 	adrp	x0, 111000 <GID_IEcoSystem_AARCH64>
   8f1c8:	91260400 	add	x0, x0, #0x981
   8f1cc:	39400000 	ldrb	w0, [x0]
   8f1d0:	6b00003f 	cmp	w1, w0
   8f1d4:	54000161 	b.ne	8f200 <CEcoMemoryAllocator1Lab_623E1838_QueryInterface+0x768>  // b.any
   8f1d8:	f9401fe0 	ldr	x0, [sp, #56]
   8f1dc:	91004001 	add	x1, x0, #0x10
   8f1e0:	f9400fe0 	ldr	x0, [sp, #24]
   8f1e4:	f9000001 	str	x1, [x0]
   8f1e8:	f9401fe0 	ldr	x0, [sp, #56]
   8f1ec:	f9400000 	ldr	x0, [x0]
   8f1f0:	f9400401 	ldr	x1, [x0, #8]
   8f1f4:	f9401fe0 	ldr	x0, [sp, #56]
   8f1f8:	d63f0020 	blr	x1
   8f1fc:	1400009d 	b	8f470 <CEcoMemoryAllocator1Lab_623E1838_QueryInterface+0x9d8>
   8f200:	f94013e0 	ldr	x0, [sp, #32]
   8f204:	39400001 	ldrb	w1, [x0]
   8f208:	d0000400 	adrp	x0, 111000 <GID_IEcoSystem_AARCH64>
   8f20c:	911f0000 	add	x0, x0, #0x7c0
   8f210:	39400000 	ldrb	w0, [x0]
   8f214:	6b00003f 	cmp	w1, w0
   8f218:	54001241 	b.ne	8f460 <CEcoMemoryAllocator1Lab_623E1838_QueryInterface+0x9c8>  // b.any
   8f21c:	f94013e0 	ldr	x0, [sp, #32]
   8f220:	91000400 	add	x0, x0, #0x1
   8f224:	39400001 	ldrb	w1, [x0]
   8f228:	d0000400 	adrp	x0, 111000 <GID_IEcoSystem_AARCH64>
   8f22c:	911f0400 	add	x0, x0, #0x7c1
   8f230:	39400000 	ldrb	w0, [x0]
   8f234:	6b00003f 	cmp	w1, w0
   8f238:	54001141 	b.ne	8f460 <CEcoMemoryAllocator1Lab_623E1838_QueryInterface+0x9c8>  // b.any
   8f23c:	f94013e0 	ldr	x0, [sp, #32]
   8f240:	91000800 	add	x0, x0, #0x2
   8f244:	39400001 	ldrb	w1, [x0]
   8f248:	d0000400 	adrp	x0, 111000 <GID_IEcoSystem_AARCH64>
   8f24c:	911f0800 	add	x0, x0, #0x7c2
   8f250:	39400000 	ldrb	w0, [x0]
   8f254:	6b00003f 	cmp	w1, w0
   8f258:	54001041 	b.ne	8f460 <CEcoMemoryAllocator1Lab_623E1838_QueryInterface+0x9c8>  // b.any
   8f25c:	f94013e0 	ldr	x0, [sp, #32]
   8f260:	91000c00 	add	x0, x0, #0x3
   8f264:	39400001 	ldrb	w1, [x0]
   8f268:	d0000400 	adrp	x0, 111000 <GID_IEcoSystem_AARCH64>
   8f26c:	911f0c00 	add	x0, x0, #0x7c3
   8f270:	39400000 	ldrb	w0, [x0]
   8f274:	6b00003f 	cmp	w1, w0
   8f278:	54000f41 	b.ne	8f460 <CEcoMemoryAllocator1Lab_623E1838_QueryInterface+0x9c8>  // b.any
   8f27c:	f94013e0 	ldr	x0, [sp, #32]
   8f280:	91001000 	add	x0, x0, #0x4
   8f284:	39400001 	ldrb	w1, [x0]
   8f288:	d0000400 	adrp	x0, 111000 <GID_IEcoSystem_AARCH64>
   8f28c:	911f1000 	add	x0, x0, #0x7c4
   8f290:	39400000 	ldrb	w0, [x0]
   8f294:	6b00003f 	cmp	w1, w0
   8f298:	54000e41 	b.ne	8f460 <CEcoMemoryAllocator1Lab_623E1838_QueryInterface+0x9c8>  // b.any
   8f29c:	f94013e0 	ldr	x0, [sp, #32]
   8f2a0:	91001400 	add	x0, x0, #0x5
   8f2a4:	39400001 	ldrb	w1, [x0]
   8f2a8:	d0000400 	adrp	x0, 111000 <GID_IEcoSystem_AARCH64>
   8f2ac:	911f1400 	add	x0, x0, #0x7c5
   8f2b0:	39400000 	ldrb	w0, [x0]
   8f2b4:	6b00003f 	cmp	w1, w0
   8f2b8:	54000d41 	b.ne	8f460 <CEcoMemoryAllocator1Lab_623E1838_QueryInterface+0x9c8>  // b.any
   8f2bc:	f94013e0 	ldr	x0, [sp, #32]
   8f2c0:	91001800 	add	x0, x0, #0x6
   8f2c4:	39400001 	ldrb	w1, [x0]
   8f2c8:	d0000400 	adrp	x0, 111000 <GID_IEcoSystem_AARCH64>
   8f2cc:	911f1800 	add	x0, x0, #0x7c6
   8f2d0:	39400000 	ldrb	w0, [x0]
   8f2d4:	6b00003f 	cmp	w1, w0
   8f2d8:	54000c41 	b.ne	8f460 <CEcoMemoryAllocator1Lab_623E1838_QueryInterface+0x9c8>  // b.any
   8f2dc:	f94013e0 	ldr	x0, [sp, #32]
   8f2e0:	91001c00 	add	x0, x0, #0x7
   8f2e4:	39400001 	ldrb	w1, [x0]
   8f2e8:	d0000400 	adrp	x0, 111000 <GID_IEcoSystem_AARCH64>
   8f2ec:	911f1c00 	add	x0, x0, #0x7c7
   8f2f0:	39400000 	ldrb	w0, [x0]
   8f2f4:	6b00003f 	cmp	w1, w0
   8f2f8:	54000b41 	b.ne	8f460 <CEcoMemoryAllocator1Lab_623E1838_QueryInterface+0x9c8>  // b.any
   8f2fc:	f94013e0 	ldr	x0, [sp, #32]
   8f300:	91002000 	add	x0, x0, #0x8
   8f304:	39400001 	ldrb	w1, [x0]
   8f308:	d0000400 	adrp	x0, 111000 <GID_IEcoSystem_AARCH64>
   8f30c:	911f2000 	add	x0, x0, #0x7c8
   8f310:	39400000 	ldrb	w0, [x0]
   8f314:	6b00003f 	cmp	w1, w0
   8f318:	54000a41 	b.ne	8f460 <CEcoMemoryAllocator1Lab_623E1838_QueryInterface+0x9c8>  // b.any
   8f31c:	f94013e0 	ldr	x0, [sp, #32]
   8f320:	91002400 	add	x0, x0, #0x9
   8f324:	39400001 	ldrb	w1, [x0]
   8f328:	d0000400 	adrp	x0, 111000 <GID_IEcoSystem_AARCH64>
   8f32c:	911f2400 	add	x0, x0, #0x7c9
   8f330:	39400000 	ldrb	w0, [x0]
   8f334:	6b00003f 	cmp	w1, w0
   8f338:	54000941 	b.ne	8f460 <CEcoMemoryAllocator1Lab_623E1838_QueryInterface+0x9c8>  // b.any
   8f33c:	f94013e0 	ldr	x0, [sp, #32]
   8f340:	91002800 	add	x0, x0, #0xa
   8f344:	39400001 	ldrb	w1, [x0]
   8f348:	d0000400 	adrp	x0, 111000 <GID_IEcoSystem_AARCH64>
   8f34c:	911f2800 	add	x0, x0, #0x7ca
   8f350:	39400000 	ldrb	w0, [x0]
   8f354:	6b00003f 	cmp	w1, w0
   8f358:	54000841 	b.ne	8f460 <CEcoMemoryAllocator1Lab_623E1838_QueryInterface+0x9c8>  // b.any
   8f35c:	f94013e0 	ldr	x0, [sp, #32]
   8f360:	91002c00 	add	x0, x0, #0xb
   8f364:	39400001 	ldrb	w1, [x0]
   8f368:	d0000400 	adrp	x0, 111000 <GID_IEcoSystem_AARCH64>
   8f36c:	911f2c00 	add	x0, x0, #0x7cb
   8f370:	39400000 	ldrb	w0, [x0]
   8f374:	6b00003f 	cmp	w1, w0
   8f378:	54000741 	b.ne	8f460 <CEcoMemoryAllocator1Lab_623E1838_QueryInterface+0x9c8>  // b.any
   8f37c:	f94013e0 	ldr	x0, [sp, #32]
   8f380:	91003000 	add	x0, x0, #0xc
   8f384:	39400001 	ldrb	w1, [x0]
   8f388:	d0000400 	adrp	x0, 111000 <GID_IEcoSystem_AARCH64>
   8f38c:	911f3000 	add	x0, x0, #0x7cc
   8f390:	39400000 	ldrb	w0, [x0]
   8f394:	6b00003f 	cmp	w1, w0
   8f398:	54000641 	b.ne	8f460 <CEcoMemoryAllocator1Lab_623E1838_QueryInterface+0x9c8>  // b.any
   8f39c:	f94013e0 	ldr	x0, [sp, #32]
   8f3a0:	91003400 	add	x0, x0, #0xd
   8f3a4:	39400001 	ldrb	w1, [x0]
   8f3a8:	d0000400 	adrp	x0, 111000 <GID_IEcoSystem_AARCH64>
   8f3ac:	911f3400 	add	x0, x0, #0x7cd
   8f3b0:	39400000 	ldrb	w0, [x0]
   8f3b4:	6b00003f 	cmp	w1, w0
   8f3b8:	54000541 	b.ne	8f460 <CEcoMemoryAllocator1Lab_623E1838_QueryInterface+0x9c8>  // b.any
   8f3bc:	f94013e0 	ldr	x0, [sp, #32]
   8f3c0:	91003800 	add	x0, x0, #0xe
   8f3c4:	39400001 	ldrb	w1, [x0]
   8f3c8:	d0000400 	adrp	x0, 111000 <GID_IEcoSystem_AARCH64>
   8f3cc:	911f3800 	add	x0, x0, #0x7ce
   8f3d0:	39400000 	ldrb	w0, [x0]
   8f3d4:	6b00003f 	cmp	w1, w0
   8f3d8:	54000441 	b.ne	8f460 <CEcoMemoryAllocator1Lab_623E1838_QueryInterface+0x9c8>  // b.any
   8f3dc:	f94013e0 	ldr	x0, [sp, #32]
   8f3e0:	91003c00 	add	x0, x0, #0xf
   8f3e4:	39400001 	ldrb	w1, [x0]
   8f3e8:	d0000400 	adrp	x0, 111000 <GID_IEcoSystem_AARCH64>
   8f3ec:	911f3c00 	add	x0, x0, #0x7cf
   8f3f0:	39400000 	ldrb	w0, [x0]
   8f3f4:	6b00003f 	cmp	w1, w0
   8f3f8:	54000341 	b.ne	8f460 <CEcoMemoryAllocator1Lab_623E1838_QueryInterface+0x9c8>  // b.any
   8f3fc:	f94013e0 	ldr	x0, [sp, #32]
   8f400:	91004000 	add	x0, x0, #0x10
   8f404:	39400001 	ldrb	w1, [x0]
   8f408:	d0000400 	adrp	x0, 111000 <GID_IEcoSystem_AARCH64>
   8f40c:	911f4000 	add	x0, x0, #0x7d0
   8f410:	39400000 	ldrb	w0, [x0]
   8f414:	6b00003f 	cmp	w1, w0
   8f418:	54000241 	b.ne	8f460 <CEcoMemoryAllocator1Lab_623E1838_QueryInterface+0x9c8>  // b.any
   8f41c:	f94013e0 	ldr	x0, [sp, #32]
   8f420:	91004400 	add	x0, x0, #0x11
   8f424:	39400001 	ldrb	w1, [x0]
   8f428:	d0000400 	adrp	x0, 111000 <GID_IEcoSystem_AARCH64>
   8f42c:	911f4400 	add	x0, x0, #0x7d1
   8f430:	39400000 	ldrb	w0, [x0]
   8f434:	6b00003f 	cmp	w1, w0
   8f438:	54000141 	b.ne	8f460 <CEcoMemoryAllocator1Lab_623E1838_QueryInterface+0x9c8>  // b.any
   8f43c:	f9401fe1 	ldr	x1, [sp, #56]
   8f440:	f9400fe0 	ldr	x0, [sp, #24]
   8f444:	f9000001 	str	x1, [x0]
   8f448:	f9401fe0 	ldr	x0, [sp, #56]
   8f44c:	f9400000 	ldr	x0, [x0]
   8f450:	f9400401 	ldr	x1, [x0, #8]
   8f454:	f9401fe0 	ldr	x0, [sp, #56]
   8f458:	d63f0020 	blr	x1
   8f45c:	14000005 	b	8f470 <CEcoMemoryAllocator1Lab_623E1838_QueryInterface+0x9d8>
   8f460:	f9400fe0 	ldr	x0, [sp, #24]
   8f464:	f900001f 	str	xzr, [x0]
   8f468:	12800240 	mov	w0, #0xffffffed            	// #-19
   8f46c:	14000002 	b	8f474 <CEcoMemoryAllocator1Lab_623E1838_QueryInterface+0x9dc>
   8f470:	52800000 	mov	w0, #0x0                   	// #0
   8f474:	a8c47bfd 	ldp	x29, x30, [sp], #64
   8f478:	d65f03c0 	ret

000000000008f47c <CEcoMemoryAllocator1Lab_623E1838_AddRef>:
   8f47c:	d10083ff 	sub	sp, sp, #0x20
   8f480:	f90007e0 	str	x0, [sp, #8]
   8f484:	f94007e0 	ldr	x0, [sp, #8]
   8f488:	d1002000 	sub	x0, x0, #0x8
   8f48c:	f9000fe0 	str	x0, [sp, #24]
   8f490:	f94007e0 	ldr	x0, [sp, #8]
   8f494:	f100001f 	cmp	x0, #0x0
   8f498:	54000061 	b.ne	8f4a4 <CEcoMemoryAllocator1Lab_623E1838_AddRef+0x28>  // b.any
   8f49c:	12800000 	mov	w0, #0xffffffff            	// #-1
   8f4a0:	14000006 	b	8f4b8 <CEcoMemoryAllocator1Lab_623E1838_AddRef+0x3c>
   8f4a4:	f9400fe0 	ldr	x0, [sp, #24]
   8f4a8:	b9401800 	ldr	w0, [x0, #24]
   8f4ac:	11000402 	add	w2, w0, #0x1
   8f4b0:	f9400fe1 	ldr	x1, [sp, #24]
   8f4b4:	b9001822 	str	w2, [x1, #24]
   8f4b8:	910083ff 	add	sp, sp, #0x20
   8f4bc:	d65f03c0 	ret

000000000008f4c0 <CEcoMemoryAllocator1Lab_623E1838_Release>:
   8f4c0:	a9bd7bfd 	stp	x29, x30, [sp, #-48]!
   8f4c4:	910003fd 	mov	x29, sp
   8f4c8:	f9000fe0 	str	x0, [sp, #24]
   8f4cc:	f9400fe0 	ldr	x0, [sp, #24]
   8f4d0:	d1002000 	sub	x0, x0, #0x8
   8f4d4:	f90017e0 	str	x0, [sp, #40]
   8f4d8:	f9400fe0 	ldr	x0, [sp, #24]
   8f4dc:	f100001f 	cmp	x0, #0x0
   8f4e0:	54000061 	b.ne	8f4ec <CEcoMemoryAllocator1Lab_623E1838_Release+0x2c>  // b.any
   8f4e4:	12800000 	mov	w0, #0xffffffff            	// #-1
   8f4e8:	14000010 	b	8f528 <CEcoMemoryAllocator1Lab_623E1838_Release+0x68>
   8f4ec:	f94017e0 	ldr	x0, [sp, #40]
   8f4f0:	b9401800 	ldr	w0, [x0, #24]
   8f4f4:	51000401 	sub	w1, w0, #0x1
   8f4f8:	f94017e0 	ldr	x0, [sp, #40]
   8f4fc:	b9001801 	str	w1, [x0, #24]
   8f500:	f94017e0 	ldr	x0, [sp, #40]
   8f504:	b9401800 	ldr	w0, [x0, #24]
   8f508:	7100001f 	cmp	w0, #0x0
   8f50c:	540000a1 	b.ne	8f520 <CEcoMemoryAllocator1Lab_623E1838_Release+0x60>  // b.any
   8f510:	f94017e0 	ldr	x0, [sp, #40]
   8f514:	97fffd5c 	bl	8ea84 <deleteCEcoMemoryManager1Lab_623E1838>
   8f518:	52800000 	mov	w0, #0x0                   	// #0
   8f51c:	14000003 	b	8f528 <CEcoMemoryAllocator1Lab_623E1838_Release+0x68>
   8f520:	f94017e0 	ldr	x0, [sp, #40]
   8f524:	b9401800 	ldr	w0, [x0, #24]
   8f528:	a8c37bfd 	ldp	x29, x30, [sp], #48
   8f52c:	d65f03c0 	ret

000000000008f530 <CEcoMemoryAllocator1Lab_623E1838_Alloc>:
   8f530:	d10143ff 	sub	sp, sp, #0x50
   8f534:	f90007e0 	str	x0, [sp, #8]
   8f538:	b90007e1 	str	w1, [sp, #4]
   8f53c:	f94007e0 	ldr	x0, [sp, #8]
   8f540:	d1002000 	sub	x0, x0, #0x8
   8f544:	f9001be0 	str	x0, [sp, #48]
   8f548:	f90017ff 	str	xzr, [sp, #40]
   8f54c:	f90027ff 	str	xzr, [sp, #72]
   8f550:	f90023ff 	str	xzr, [sp, #64]
   8f554:	12800000 	mov	w0, #0xffffffff            	// #-1
   8f558:	b9003fe0 	str	w0, [sp, #60]
   8f55c:	f94007e0 	ldr	x0, [sp, #8]
   8f560:	f100001f 	cmp	x0, #0x0
   8f564:	54000080 	b.eq	8f574 <CEcoMemoryAllocator1Lab_623E1838_Alloc+0x44>  // b.none
   8f568:	b94007e0 	ldr	w0, [sp, #4]
   8f56c:	7100001f 	cmp	w0, #0x0
   8f570:	54000061 	b.ne	8f57c <CEcoMemoryAllocator1Lab_623E1838_Alloc+0x4c>  // b.any
   8f574:	d2800000 	mov	x0, #0x0                   	// #0
   8f578:	14000075 	b	8f74c <CEcoMemoryAllocator1Lab_623E1838_Alloc+0x21c>
   8f57c:	f9401be0 	ldr	x0, [sp, #48]
   8f580:	f9403000 	ldr	x0, [x0, #96]
   8f584:	f100001f 	cmp	x0, #0x0
   8f588:	54000061 	b.ne	8f594 <CEcoMemoryAllocator1Lab_623E1838_Alloc+0x64>  // b.any
   8f58c:	d2800000 	mov	x0, #0x0                   	// #0
   8f590:	1400006f 	b	8f74c <CEcoMemoryAllocator1Lab_623E1838_Alloc+0x21c>
   8f594:	b94007e0 	ldr	w0, [sp, #4]
   8f598:	11001c00 	add	w0, w0, #0x7
   8f59c:	121d7000 	and	w0, w0, #0xfffffff8
   8f5a0:	b90007e0 	str	w0, [sp, #4]
   8f5a4:	f9401be0 	ldr	x0, [sp, #48]
   8f5a8:	f9403000 	ldr	x0, [x0, #96]
   8f5ac:	f90017e0 	str	x0, [sp, #40]
   8f5b0:	f94017e0 	ldr	x0, [sp, #40]
   8f5b4:	f90027e0 	str	x0, [sp, #72]
   8f5b8:	1400001d 	b	8f62c <CEcoMemoryAllocator1Lab_623E1838_Alloc+0xfc>
   8f5bc:	f94027e0 	ldr	x0, [sp, #72]
   8f5c0:	39405000 	ldrb	w0, [x0, #20]
   8f5c4:	7100001f 	cmp	w0, #0x0
   8f5c8:	540002c0 	b.eq	8f620 <CEcoMemoryAllocator1Lab_623E1838_Alloc+0xf0>  // b.none
   8f5cc:	f94027e0 	ldr	x0, [sp, #72]
   8f5d0:	b9401000 	ldr	w0, [x0, #16]
   8f5d4:	b94007e1 	ldr	w1, [sp, #4]
   8f5d8:	6b00003f 	cmp	w1, w0
   8f5dc:	54000228 	b.hi	8f620 <CEcoMemoryAllocator1Lab_623E1838_Alloc+0xf0>  // b.pmore
   8f5e0:	f94027e0 	ldr	x0, [sp, #72]
   8f5e4:	b9401001 	ldr	w1, [x0, #16]
   8f5e8:	b94007e0 	ldr	w0, [sp, #4]
   8f5ec:	4b000020 	sub	w0, w1, w0
   8f5f0:	b90027e0 	str	w0, [sp, #36]
   8f5f4:	b94027e1 	ldr	w1, [sp, #36]
   8f5f8:	b9403fe0 	ldr	w0, [sp, #60]
   8f5fc:	6b00003f 	cmp	w1, w0
   8f600:	54000102 	b.cs	8f620 <CEcoMemoryAllocator1Lab_623E1838_Alloc+0xf0>  // b.hs, b.nlast
   8f604:	b94027e0 	ldr	w0, [sp, #36]
   8f608:	b9003fe0 	str	w0, [sp, #60]
   8f60c:	f94027e0 	ldr	x0, [sp, #72]
   8f610:	f90023e0 	str	x0, [sp, #64]
   8f614:	b9403fe0 	ldr	w0, [sp, #60]
   8f618:	7100001f 	cmp	w0, #0x0
   8f61c:	54000100 	b.eq	8f63c <CEcoMemoryAllocator1Lab_623E1838_Alloc+0x10c>  // b.none
   8f620:	f94027e0 	ldr	x0, [sp, #72]
   8f624:	f9400000 	ldr	x0, [x0]
   8f628:	f90027e0 	str	x0, [sp, #72]
   8f62c:	f94027e0 	ldr	x0, [sp, #72]
   8f630:	f100001f 	cmp	x0, #0x0
   8f634:	54fffc41 	b.ne	8f5bc <CEcoMemoryAllocator1Lab_623E1838_Alloc+0x8c>  // b.any
   8f638:	14000002 	b	8f640 <CEcoMemoryAllocator1Lab_623E1838_Alloc+0x110>
   8f63c:	d503201f 	nop
   8f640:	f94023e0 	ldr	x0, [sp, #64]
   8f644:	f100001f 	cmp	x0, #0x0
   8f648:	54000061 	b.ne	8f654 <CEcoMemoryAllocator1Lab_623E1838_Alloc+0x124>  // b.any
   8f64c:	d2800000 	mov	x0, #0x0                   	// #0
   8f650:	1400003f 	b	8f74c <CEcoMemoryAllocator1Lab_623E1838_Alloc+0x21c>
   8f654:	f94023e0 	ldr	x0, [sp, #64]
   8f658:	b9401000 	ldr	w0, [x0, #16]
   8f65c:	b94007e1 	ldr	w1, [sp, #4]
   8f660:	6b00003f 	cmp	w1, w0
   8f664:	54000542 	b.cs	8f70c <CEcoMemoryAllocator1Lab_623E1838_Alloc+0x1dc>  // b.hs, b.nlast
   8f668:	f94023e0 	ldr	x0, [sp, #64]
   8f66c:	b9401001 	ldr	w1, [x0, #16]
   8f670:	b94007e0 	ldr	w0, [sp, #4]
   8f674:	4b000020 	sub	w0, w1, w0
   8f678:	b90023e0 	str	w0, [sp, #32]
   8f67c:	b94023e0 	ldr	w0, [sp, #32]
   8f680:	71007c1f 	cmp	w0, #0x1f
   8f684:	54000449 	b.ls	8f70c <CEcoMemoryAllocator1Lab_623E1838_Alloc+0x1dc>  // b.plast
   8f688:	b94007e0 	ldr	w0, [sp, #4]
   8f68c:	91006000 	add	x0, x0, #0x18
   8f690:	f94023e1 	ldr	x1, [sp, #64]
   8f694:	8b000020 	add	x0, x1, x0
   8f698:	f9000fe0 	str	x0, [sp, #24]
   8f69c:	b94023e0 	ldr	w0, [sp, #32]
   8f6a0:	51006001 	sub	w1, w0, #0x18
   8f6a4:	f9400fe0 	ldr	x0, [sp, #24]
   8f6a8:	b9001001 	str	w1, [x0, #16]
   8f6ac:	f9400fe0 	ldr	x0, [sp, #24]
   8f6b0:	52800021 	mov	w1, #0x1                   	// #1
   8f6b4:	39005001 	strb	w1, [x0, #20]
   8f6b8:	f9400fe0 	ldr	x0, [sp, #24]
   8f6bc:	f94023e1 	ldr	x1, [sp, #64]
   8f6c0:	f9000401 	str	x1, [x0, #8]
   8f6c4:	f94023e0 	ldr	x0, [sp, #64]
   8f6c8:	f9400001 	ldr	x1, [x0]
   8f6cc:	f9400fe0 	ldr	x0, [sp, #24]
   8f6d0:	f9000001 	str	x1, [x0]
   8f6d4:	f9400fe0 	ldr	x0, [sp, #24]
   8f6d8:	f9400000 	ldr	x0, [x0]
   8f6dc:	f100001f 	cmp	x0, #0x0
   8f6e0:	540000a0 	b.eq	8f6f4 <CEcoMemoryAllocator1Lab_623E1838_Alloc+0x1c4>  // b.none
   8f6e4:	f9400fe0 	ldr	x0, [sp, #24]
   8f6e8:	f9400000 	ldr	x0, [x0]
   8f6ec:	f9400fe1 	ldr	x1, [sp, #24]
   8f6f0:	f9000401 	str	x1, [x0, #8]
   8f6f4:	f94023e0 	ldr	x0, [sp, #64]
   8f6f8:	f9400fe1 	ldr	x1, [sp, #24]
   8f6fc:	f9000001 	str	x1, [x0]
   8f700:	f94023e0 	ldr	x0, [sp, #64]
   8f704:	b94007e1 	ldr	w1, [sp, #4]
   8f708:	b9001001 	str	w1, [x0, #16]
   8f70c:	f94023e0 	ldr	x0, [sp, #64]
   8f710:	3900501f 	strb	wzr, [x0, #20]
   8f714:	f9401be0 	ldr	x0, [sp, #48]
   8f718:	b9405801 	ldr	w1, [x0, #88]
   8f71c:	f94023e0 	ldr	x0, [sp, #64]
   8f720:	b9401000 	ldr	w0, [x0, #16]
   8f724:	0b000021 	add	w1, w1, w0
   8f728:	f9401be0 	ldr	x0, [sp, #48]
   8f72c:	b9005801 	str	w1, [x0, #88]
   8f730:	f9401be0 	ldr	x0, [sp, #48]
   8f734:	b9405000 	ldr	w0, [x0, #80]
   8f738:	11000401 	add	w1, w0, #0x1
   8f73c:	f9401be0 	ldr	x0, [sp, #48]
   8f740:	b9005001 	str	w1, [x0, #80]
   8f744:	f94023e0 	ldr	x0, [sp, #64]
   8f748:	91006000 	add	x0, x0, #0x18
   8f74c:	910143ff 	add	sp, sp, #0x50
   8f750:	d65f03c0 	ret

000000000008f754 <CEcoMemoryAllocator1Lab_623E1838_Free>:
   8f754:	d10103ff 	sub	sp, sp, #0x40
   8f758:	f90007e0 	str	x0, [sp, #8]
   8f75c:	f90003e1 	str	x1, [sp]
   8f760:	f94007e0 	ldr	x0, [sp, #8]
   8f764:	d1002000 	sub	x0, x0, #0x8
   8f768:	f9001fe0 	str	x0, [sp, #56]
   8f76c:	f9001bff 	str	xzr, [sp, #48]
   8f770:	f94007e0 	ldr	x0, [sp, #8]
   8f774:	f100001f 	cmp	x0, #0x0
   8f778:	54001520 	b.eq	8fa1c <CEcoMemoryAllocator1Lab_623E1838_Free+0x2c8>  // b.none
   8f77c:	f94003e0 	ldr	x0, [sp]
   8f780:	f100001f 	cmp	x0, #0x0
   8f784:	540014c0 	b.eq	8fa1c <CEcoMemoryAllocator1Lab_623E1838_Free+0x2c8>  // b.none
   8f788:	f9401fe0 	ldr	x0, [sp, #56]
   8f78c:	f9403000 	ldr	x0, [x0, #96]
   8f790:	f100001f 	cmp	x0, #0x0
   8f794:	54001480 	b.eq	8fa24 <CEcoMemoryAllocator1Lab_623E1838_Free+0x2d0>  // b.none
   8f798:	f9401fe0 	ldr	x0, [sp, #56]
   8f79c:	f9403800 	ldr	x0, [x0, #112]
   8f7a0:	f100001f 	cmp	x0, #0x0
   8f7a4:	54001400 	b.eq	8fa24 <CEcoMemoryAllocator1Lab_623E1838_Free+0x2d0>  // b.none
   8f7a8:	f9401fe0 	ldr	x0, [sp, #56]
   8f7ac:	f9403000 	ldr	x0, [x0, #96]
   8f7b0:	91006000 	add	x0, x0, #0x18
   8f7b4:	f94003e1 	ldr	x1, [sp]
   8f7b8:	eb00003f 	cmp	x1, x0
   8f7bc:	54001383 	b.cc	8fa2c <CEcoMemoryAllocator1Lab_623E1838_Free+0x2d8>  // b.lo, b.ul, b.last
   8f7c0:	f9401fe0 	ldr	x0, [sp, #56]
   8f7c4:	f9403800 	ldr	x0, [x0, #112]
   8f7c8:	f94003e1 	ldr	x1, [sp]
   8f7cc:	eb00003f 	cmp	x1, x0
   8f7d0:	540012e2 	b.cs	8fa2c <CEcoMemoryAllocator1Lab_623E1838_Free+0x2d8>  // b.hs, b.nlast
   8f7d4:	f94003e0 	ldr	x0, [sp]
   8f7d8:	d1006000 	sub	x0, x0, #0x18
   8f7dc:	f9001be0 	str	x0, [sp, #48]
   8f7e0:	f9401fe0 	ldr	x0, [sp, #56]
   8f7e4:	f9403000 	ldr	x0, [x0, #96]
   8f7e8:	f9401be1 	ldr	x1, [sp, #48]
   8f7ec:	eb00003f 	cmp	x1, x0
   8f7f0:	54001223 	b.cc	8fa34 <CEcoMemoryAllocator1Lab_623E1838_Free+0x2e0>  // b.lo, b.ul, b.last
   8f7f4:	f9401fe0 	ldr	x0, [sp, #56]
   8f7f8:	f9403800 	ldr	x0, [x0, #112]
   8f7fc:	f9401be1 	ldr	x1, [sp, #48]
   8f800:	eb00003f 	cmp	x1, x0
   8f804:	54001182 	b.cs	8fa34 <CEcoMemoryAllocator1Lab_623E1838_Free+0x2e0>  // b.hs, b.nlast
   8f808:	f9401be0 	ldr	x0, [sp, #48]
   8f80c:	39405000 	ldrb	w0, [x0, #20]
   8f810:	7100001f 	cmp	w0, #0x0
   8f814:	54001141 	b.ne	8fa3c <CEcoMemoryAllocator1Lab_623E1838_Free+0x2e8>  // b.any
   8f818:	f9401be0 	ldr	x0, [sp, #48]
   8f81c:	52800021 	mov	w1, #0x1                   	// #1
   8f820:	39005001 	strb	w1, [x0, #20]
   8f824:	f9401fe0 	ldr	x0, [sp, #56]
   8f828:	b9405801 	ldr	w1, [x0, #88]
   8f82c:	f9401be0 	ldr	x0, [sp, #48]
   8f830:	b9401000 	ldr	w0, [x0, #16]
   8f834:	6b00003f 	cmp	w1, w0
   8f838:	54000123 	b.cc	8f85c <CEcoMemoryAllocator1Lab_623E1838_Free+0x108>  // b.lo, b.ul, b.last
   8f83c:	f9401fe0 	ldr	x0, [sp, #56]
   8f840:	b9405801 	ldr	w1, [x0, #88]
   8f844:	f9401be0 	ldr	x0, [sp, #48]
   8f848:	b9401000 	ldr	w0, [x0, #16]
   8f84c:	4b000021 	sub	w1, w1, w0
   8f850:	f9401fe0 	ldr	x0, [sp, #56]
   8f854:	b9005801 	str	w1, [x0, #88]
   8f858:	14000003 	b	8f864 <CEcoMemoryAllocator1Lab_623E1838_Free+0x110>
   8f85c:	f9401fe0 	ldr	x0, [sp, #56]
   8f860:	b900581f 	str	wzr, [x0, #88]
   8f864:	f9401fe0 	ldr	x0, [sp, #56]
   8f868:	b9405000 	ldr	w0, [x0, #80]
   8f86c:	7100001f 	cmp	w0, #0x0
   8f870:	540003c0 	b.eq	8f8e8 <CEcoMemoryAllocator1Lab_623E1838_Free+0x194>  // b.none
   8f874:	f9401fe0 	ldr	x0, [sp, #56]
   8f878:	b9405000 	ldr	w0, [x0, #80]
   8f87c:	51000401 	sub	w1, w0, #0x1
   8f880:	f9401fe0 	ldr	x0, [sp, #56]
   8f884:	b9005001 	str	w1, [x0, #80]
   8f888:	14000018 	b	8f8e8 <CEcoMemoryAllocator1Lab_623E1838_Free+0x194>
   8f88c:	f9401be0 	ldr	x0, [sp, #48]
   8f890:	f9400000 	ldr	x0, [x0]
   8f894:	f90017e0 	str	x0, [sp, #40]
   8f898:	f9401be0 	ldr	x0, [sp, #48]
   8f89c:	b9401001 	ldr	w1, [x0, #16]
   8f8a0:	f94017e0 	ldr	x0, [sp, #40]
   8f8a4:	b9401000 	ldr	w0, [x0, #16]
   8f8a8:	0b000020 	add	w0, w1, w0
   8f8ac:	11006001 	add	w1, w0, #0x18
   8f8b0:	f9401be0 	ldr	x0, [sp, #48]
   8f8b4:	b9001001 	str	w1, [x0, #16]
   8f8b8:	f94017e0 	ldr	x0, [sp, #40]
   8f8bc:	f9400001 	ldr	x1, [x0]
   8f8c0:	f9401be0 	ldr	x0, [sp, #48]
   8f8c4:	f9000001 	str	x1, [x0]
   8f8c8:	f9401be0 	ldr	x0, [sp, #48]
   8f8cc:	f9400000 	ldr	x0, [x0]
   8f8d0:	f100001f 	cmp	x0, #0x0
   8f8d4:	540000a0 	b.eq	8f8e8 <CEcoMemoryAllocator1Lab_623E1838_Free+0x194>  // b.none
   8f8d8:	f9401be0 	ldr	x0, [sp, #48]
   8f8dc:	f9400000 	ldr	x0, [x0]
   8f8e0:	f9401be1 	ldr	x1, [sp, #48]
   8f8e4:	f9000401 	str	x1, [x0, #8]
   8f8e8:	f9401be0 	ldr	x0, [sp, #48]
   8f8ec:	f9400000 	ldr	x0, [x0]
   8f8f0:	f100001f 	cmp	x0, #0x0
   8f8f4:	540000c0 	b.eq	8f90c <CEcoMemoryAllocator1Lab_623E1838_Free+0x1b8>  // b.none
   8f8f8:	f9401be0 	ldr	x0, [sp, #48]
   8f8fc:	f9400000 	ldr	x0, [x0]
   8f900:	39405000 	ldrb	w0, [x0, #20]
   8f904:	7100001f 	cmp	w0, #0x0
   8f908:	54fffc21 	b.ne	8f88c <CEcoMemoryAllocator1Lab_623E1838_Free+0x138>  // b.any
   8f90c:	f9401be0 	ldr	x0, [sp, #48]
   8f910:	f9400400 	ldr	x0, [x0, #8]
   8f914:	f100001f 	cmp	x0, #0x0
   8f918:	54000940 	b.eq	8fa40 <CEcoMemoryAllocator1Lab_623E1838_Free+0x2ec>  // b.none
   8f91c:	f9401be0 	ldr	x0, [sp, #48]
   8f920:	f9400400 	ldr	x0, [x0, #8]
   8f924:	39405000 	ldrb	w0, [x0, #20]
   8f928:	7100001f 	cmp	w0, #0x0
   8f92c:	540008a0 	b.eq	8fa40 <CEcoMemoryAllocator1Lab_623E1838_Free+0x2ec>  // b.none
   8f930:	f9401be0 	ldr	x0, [sp, #48]
   8f934:	f9400400 	ldr	x0, [x0, #8]
   8f938:	f90013e0 	str	x0, [sp, #32]
   8f93c:	f94013e0 	ldr	x0, [sp, #32]
   8f940:	b9401001 	ldr	w1, [x0, #16]
   8f944:	f9401be0 	ldr	x0, [sp, #48]
   8f948:	b9401000 	ldr	w0, [x0, #16]
   8f94c:	0b000020 	add	w0, w1, w0
   8f950:	11006001 	add	w1, w0, #0x18
   8f954:	f94013e0 	ldr	x0, [sp, #32]
   8f958:	b9001001 	str	w1, [x0, #16]
   8f95c:	f9401be0 	ldr	x0, [sp, #48]
   8f960:	f9400001 	ldr	x1, [x0]
   8f964:	f94013e0 	ldr	x0, [sp, #32]
   8f968:	f9000001 	str	x1, [x0]
   8f96c:	f94013e0 	ldr	x0, [sp, #32]
   8f970:	f9400000 	ldr	x0, [x0]
   8f974:	f100001f 	cmp	x0, #0x0
   8f978:	540000a0 	b.eq	8f98c <CEcoMemoryAllocator1Lab_623E1838_Free+0x238>  // b.none
   8f97c:	f94013e0 	ldr	x0, [sp, #32]
   8f980:	f9400000 	ldr	x0, [x0]
   8f984:	f94013e1 	ldr	x1, [sp, #32]
   8f988:	f9000401 	str	x1, [x0, #8]
   8f98c:	f94013e0 	ldr	x0, [sp, #32]
   8f990:	f9001be0 	str	x0, [sp, #48]
   8f994:	14000018 	b	8f9f4 <CEcoMemoryAllocator1Lab_623E1838_Free+0x2a0>
   8f998:	f9401be0 	ldr	x0, [sp, #48]
   8f99c:	f9400000 	ldr	x0, [x0]
   8f9a0:	f9000fe0 	str	x0, [sp, #24]
   8f9a4:	f9401be0 	ldr	x0, [sp, #48]
   8f9a8:	b9401001 	ldr	w1, [x0, #16]
   8f9ac:	f9400fe0 	ldr	x0, [sp, #24]
   8f9b0:	b9401000 	ldr	w0, [x0, #16]
   8f9b4:	0b000020 	add	w0, w1, w0
   8f9b8:	11006001 	add	w1, w0, #0x18
   8f9bc:	f9401be0 	ldr	x0, [sp, #48]
   8f9c0:	b9001001 	str	w1, [x0, #16]
   8f9c4:	f9400fe0 	ldr	x0, [sp, #24]
   8f9c8:	f9400001 	ldr	x1, [x0]
   8f9cc:	f9401be0 	ldr	x0, [sp, #48]
   8f9d0:	f9000001 	str	x1, [x0]
   8f9d4:	f9401be0 	ldr	x0, [sp, #48]
   8f9d8:	f9400000 	ldr	x0, [x0]
   8f9dc:	f100001f 	cmp	x0, #0x0
   8f9e0:	540000a0 	b.eq	8f9f4 <CEcoMemoryAllocator1Lab_623E1838_Free+0x2a0>  // b.none
   8f9e4:	f9401be0 	ldr	x0, [sp, #48]
   8f9e8:	f9400000 	ldr	x0, [x0]
   8f9ec:	f9401be1 	ldr	x1, [sp, #48]
   8f9f0:	f9000401 	str	x1, [x0, #8]
   8f9f4:	f9401be0 	ldr	x0, [sp, #48]
   8f9f8:	f9400000 	ldr	x0, [x0]
   8f9fc:	f100001f 	cmp	x0, #0x0
   8fa00:	54000200 	b.eq	8fa40 <CEcoMemoryAllocator1Lab_623E1838_Free+0x2ec>  // b.none
   8fa04:	f9401be0 	ldr	x0, [sp, #48]
   8fa08:	f9400000 	ldr	x0, [x0]
   8fa0c:	39405000 	ldrb	w0, [x0, #20]
   8fa10:	7100001f 	cmp	w0, #0x0
   8fa14:	54fffc21 	b.ne	8f998 <CEcoMemoryAllocator1Lab_623E1838_Free+0x244>  // b.any
   8fa18:	1400000a 	b	8fa40 <CEcoMemoryAllocator1Lab_623E1838_Free+0x2ec>
   8fa1c:	d503201f 	nop
   8fa20:	14000008 	b	8fa40 <CEcoMemoryAllocator1Lab_623E1838_Free+0x2ec>
   8fa24:	d503201f 	nop
   8fa28:	14000006 	b	8fa40 <CEcoMemoryAllocator1Lab_623E1838_Free+0x2ec>
   8fa2c:	d503201f 	nop
   8fa30:	14000004 	b	8fa40 <CEcoMemoryAllocator1Lab_623E1838_Free+0x2ec>
   8fa34:	d503201f 	nop
   8fa38:	14000002 	b	8fa40 <CEcoMemoryAllocator1Lab_623E1838_Free+0x2ec>
   8fa3c:	d503201f 	nop
   8fa40:	910103ff 	add	sp, sp, #0x40
   8fa44:	d65f03c0 	ret

000000000008fa48 <CEcoMemoryAllocator1Lab_623E1838_Copy>:
   8fa48:	d10103ff 	sub	sp, sp, #0x40
   8fa4c:	f9000fe0 	str	x0, [sp, #24]
   8fa50:	f9000be1 	str	x1, [sp, #16]
   8fa54:	f90007e2 	str	x2, [sp, #8]
   8fa58:	b90007e3 	str	w3, [sp, #4]
   8fa5c:	f9001bff 	str	xzr, [sp, #48]
   8fa60:	f90017ff 	str	xzr, [sp, #40]
   8fa64:	b9003fff 	str	wzr, [sp, #60]
   8fa68:	f9400be0 	ldr	x0, [sp, #16]
   8fa6c:	f100001f 	cmp	x0, #0x0
   8fa70:	54000080 	b.eq	8fa80 <CEcoMemoryAllocator1Lab_623E1838_Copy+0x38>  // b.none
   8fa74:	f94007e0 	ldr	x0, [sp, #8]
   8fa78:	f100001f 	cmp	x0, #0x0
   8fa7c:	54000061 	b.ne	8fa88 <CEcoMemoryAllocator1Lab_623E1838_Copy+0x40>  // b.any
   8fa80:	f9400be0 	ldr	x0, [sp, #16]
   8fa84:	14000040 	b	8fb84 <CEcoMemoryAllocator1Lab_623E1838_Copy+0x13c>
   8fa88:	b94007e0 	ldr	w0, [sp, #4]
   8fa8c:	7100001f 	cmp	w0, #0x0
   8fa90:	540000a0 	b.eq	8faa4 <CEcoMemoryAllocator1Lab_623E1838_Copy+0x5c>  // b.none
   8fa94:	f9400be1 	ldr	x1, [sp, #16]
   8fa98:	f94007e0 	ldr	x0, [sp, #8]
   8fa9c:	eb00003f 	cmp	x1, x0
   8faa0:	54000061 	b.ne	8faac <CEcoMemoryAllocator1Lab_623E1838_Copy+0x64>  // b.any
   8faa4:	f9400be0 	ldr	x0, [sp, #16]
   8faa8:	14000037 	b	8fb84 <CEcoMemoryAllocator1Lab_623E1838_Copy+0x13c>
   8faac:	f9400be0 	ldr	x0, [sp, #16]
   8fab0:	f9001be0 	str	x0, [sp, #48]
   8fab4:	f94007e0 	ldr	x0, [sp, #8]
   8fab8:	f90017e0 	str	x0, [sp, #40]
   8fabc:	f9401be1 	ldr	x1, [sp, #48]
   8fac0:	f94017e0 	ldr	x0, [sp, #40]
   8fac4:	eb00003f 	cmp	x1, x0
   8fac8:	540000e3 	b.cc	8fae4 <CEcoMemoryAllocator1Lab_623E1838_Copy+0x9c>  // b.lo, b.ul, b.last
   8facc:	b94007e0 	ldr	w0, [sp, #4]
   8fad0:	f94017e1 	ldr	x1, [sp, #40]
   8fad4:	8b000020 	add	x0, x1, x0
   8fad8:	f9401be1 	ldr	x1, [sp, #48]
   8fadc:	eb00003f 	cmp	x1, x0
   8fae0:	54000263 	b.cc	8fb2c <CEcoMemoryAllocator1Lab_623E1838_Copy+0xe4>  // b.lo, b.ul, b.last
   8fae4:	b9003fff 	str	wzr, [sp, #60]
   8fae8:	1400000c 	b	8fb18 <CEcoMemoryAllocator1Lab_623E1838_Copy+0xd0>
   8faec:	b9403fe0 	ldr	w0, [sp, #60]
   8faf0:	f94017e1 	ldr	x1, [sp, #40]
   8faf4:	8b000021 	add	x1, x1, x0
   8faf8:	b9403fe0 	ldr	w0, [sp, #60]
   8fafc:	f9401be2 	ldr	x2, [sp, #48]
   8fb00:	8b000040 	add	x0, x2, x0
   8fb04:	39400021 	ldrb	w1, [x1]
   8fb08:	39000001 	strb	w1, [x0]
   8fb0c:	b9403fe0 	ldr	w0, [sp, #60]
   8fb10:	11000400 	add	w0, w0, #0x1
   8fb14:	b9003fe0 	str	w0, [sp, #60]
   8fb18:	b9403fe1 	ldr	w1, [sp, #60]
   8fb1c:	b94007e0 	ldr	w0, [sp, #4]
   8fb20:	6b00003f 	cmp	w1, w0
   8fb24:	54fffe43 	b.cc	8faec <CEcoMemoryAllocator1Lab_623E1838_Copy+0xa4>  // b.lo, b.ul, b.last
   8fb28:	14000016 	b	8fb80 <CEcoMemoryAllocator1Lab_623E1838_Copy+0x138>
   8fb2c:	b94007e0 	ldr	w0, [sp, #4]
   8fb30:	b9003fe0 	str	w0, [sp, #60]
   8fb34:	14000010 	b	8fb74 <CEcoMemoryAllocator1Lab_623E1838_Copy+0x12c>
   8fb38:	b9403fe0 	ldr	w0, [sp, #60]
   8fb3c:	51000400 	sub	w0, w0, #0x1
   8fb40:	2a0003e0 	mov	w0, w0
   8fb44:	f94017e1 	ldr	x1, [sp, #40]
   8fb48:	8b000021 	add	x1, x1, x0
   8fb4c:	b9403fe0 	ldr	w0, [sp, #60]
   8fb50:	51000400 	sub	w0, w0, #0x1
   8fb54:	2a0003e0 	mov	w0, w0
   8fb58:	f9401be2 	ldr	x2, [sp, #48]
   8fb5c:	8b000040 	add	x0, x2, x0
   8fb60:	39400021 	ldrb	w1, [x1]
   8fb64:	39000001 	strb	w1, [x0]
   8fb68:	b9403fe0 	ldr	w0, [sp, #60]
   8fb6c:	51000400 	sub	w0, w0, #0x1
   8fb70:	b9003fe0 	str	w0, [sp, #60]
   8fb74:	b9403fe0 	ldr	w0, [sp, #60]
   8fb78:	7100001f 	cmp	w0, #0x0
   8fb7c:	54fffde1 	b.ne	8fb38 <CEcoMemoryAllocator1Lab_623E1838_Copy+0xf0>  // b.any
   8fb80:	f9400be0 	ldr	x0, [sp, #16]
   8fb84:	910103ff 	add	sp, sp, #0x40
   8fb88:	d65f03c0 	ret

000000000008fb8c <CEcoMemoryAllocator1Lab_623E1838_Realloc>:
   8fb8c:	a9b87bfd 	stp	x29, x30, [sp, #-128]!
   8fb90:	910003fd 	mov	x29, sp
   8fb94:	f90017e0 	str	x0, [sp, #40]
   8fb98:	f90013e1 	str	x1, [sp, #32]
   8fb9c:	b9001fe2 	str	w2, [sp, #28]
   8fba0:	f94017e0 	ldr	x0, [sp, #40]
   8fba4:	d1002000 	sub	x0, x0, #0x8
   8fba8:	f9003be0 	str	x0, [sp, #112]
   8fbac:	f90037ff 	str	xzr, [sp, #104]
   8fbb0:	b90067ff 	str	wzr, [sp, #100]
   8fbb4:	f9002fff 	str	xzr, [sp, #88]
   8fbb8:	f94017e0 	ldr	x0, [sp, #40]
   8fbbc:	f100001f 	cmp	x0, #0x0
   8fbc0:	54000061 	b.ne	8fbcc <CEcoMemoryAllocator1Lab_623E1838_Realloc+0x40>  // b.any
   8fbc4:	d2800000 	mov	x0, #0x0                   	// #0
   8fbc8:	140000d0 	b	8ff08 <CEcoMemoryAllocator1Lab_623E1838_Realloc+0x37c>
   8fbcc:	f94013e0 	ldr	x0, [sp, #32]
   8fbd0:	f100001f 	cmp	x0, #0x0
   8fbd4:	540000a1 	b.ne	8fbe8 <CEcoMemoryAllocator1Lab_623E1838_Realloc+0x5c>  // b.any
   8fbd8:	b9401fe1 	ldr	w1, [sp, #28]
   8fbdc:	f94017e0 	ldr	x0, [sp, #40]
   8fbe0:	97fffe54 	bl	8f530 <CEcoMemoryAllocator1Lab_623E1838_Alloc>
   8fbe4:	140000c9 	b	8ff08 <CEcoMemoryAllocator1Lab_623E1838_Realloc+0x37c>
   8fbe8:	b9401fe0 	ldr	w0, [sp, #28]
   8fbec:	7100001f 	cmp	w0, #0x0
   8fbf0:	540000c1 	b.ne	8fc08 <CEcoMemoryAllocator1Lab_623E1838_Realloc+0x7c>  // b.any
   8fbf4:	f94013e1 	ldr	x1, [sp, #32]
   8fbf8:	f94017e0 	ldr	x0, [sp, #40]
   8fbfc:	97fffed6 	bl	8f754 <CEcoMemoryAllocator1Lab_623E1838_Free>
   8fc00:	d2800000 	mov	x0, #0x0                   	// #0
   8fc04:	140000c1 	b	8ff08 <CEcoMemoryAllocator1Lab_623E1838_Realloc+0x37c>
   8fc08:	b9401fe0 	ldr	w0, [sp, #28]
   8fc0c:	11001c00 	add	w0, w0, #0x7
   8fc10:	121d7000 	and	w0, w0, #0xfffffff8
   8fc14:	b9001fe0 	str	w0, [sp, #28]
   8fc18:	f94013e0 	ldr	x0, [sp, #32]
   8fc1c:	d1006000 	sub	x0, x0, #0x18
   8fc20:	f90037e0 	str	x0, [sp, #104]
   8fc24:	f94037e0 	ldr	x0, [sp, #104]
   8fc28:	b9401000 	ldr	w0, [x0, #16]
   8fc2c:	b90067e0 	str	w0, [sp, #100]
   8fc30:	b9401fe1 	ldr	w1, [sp, #28]
   8fc34:	b94067e0 	ldr	w0, [sp, #100]
   8fc38:	6b00003f 	cmp	w1, w0
   8fc3c:	54000808 	b.hi	8fd3c <CEcoMemoryAllocator1Lab_623E1838_Realloc+0x1b0>  // b.pmore
   8fc40:	b94067e1 	ldr	w1, [sp, #100]
   8fc44:	b9401fe0 	ldr	w0, [sp, #28]
   8fc48:	4b000020 	sub	w0, w1, w0
   8fc4c:	b9003fe0 	str	w0, [sp, #60]
   8fc50:	b9403fe0 	ldr	w0, [sp, #60]
   8fc54:	71007c1f 	cmp	w0, #0x1f
   8fc58:	540006e9 	b.ls	8fd34 <CEcoMemoryAllocator1Lab_623E1838_Realloc+0x1a8>  // b.plast
   8fc5c:	b9401fe0 	ldr	w0, [sp, #28]
   8fc60:	91006000 	add	x0, x0, #0x18
   8fc64:	f94037e1 	ldr	x1, [sp, #104]
   8fc68:	8b000020 	add	x0, x1, x0
   8fc6c:	f9001be0 	str	x0, [sp, #48]
   8fc70:	b9403fe0 	ldr	w0, [sp, #60]
   8fc74:	51006001 	sub	w1, w0, #0x18
   8fc78:	f9401be0 	ldr	x0, [sp, #48]
   8fc7c:	b9001001 	str	w1, [x0, #16]
   8fc80:	f9401be0 	ldr	x0, [sp, #48]
   8fc84:	52800021 	mov	w1, #0x1                   	// #1
   8fc88:	39005001 	strb	w1, [x0, #20]
   8fc8c:	f9401be0 	ldr	x0, [sp, #48]
   8fc90:	f94037e1 	ldr	x1, [sp, #104]
   8fc94:	f9000401 	str	x1, [x0, #8]
   8fc98:	f94037e0 	ldr	x0, [sp, #104]
   8fc9c:	f9400001 	ldr	x1, [x0]
   8fca0:	f9401be0 	ldr	x0, [sp, #48]
   8fca4:	f9000001 	str	x1, [x0]
   8fca8:	f9401be0 	ldr	x0, [sp, #48]
   8fcac:	f9400000 	ldr	x0, [x0]
   8fcb0:	f100001f 	cmp	x0, #0x0
   8fcb4:	540000a0 	b.eq	8fcc8 <CEcoMemoryAllocator1Lab_623E1838_Realloc+0x13c>  // b.none
   8fcb8:	f9401be0 	ldr	x0, [sp, #48]
   8fcbc:	f9400000 	ldr	x0, [x0]
   8fcc0:	f9401be1 	ldr	x1, [sp, #48]
   8fcc4:	f9000401 	str	x1, [x0, #8]
   8fcc8:	f94037e0 	ldr	x0, [sp, #104]
   8fccc:	f9401be1 	ldr	x1, [sp, #48]
   8fcd0:	f9000001 	str	x1, [x0]
   8fcd4:	f94037e0 	ldr	x0, [sp, #104]
   8fcd8:	b9401fe1 	ldr	w1, [sp, #28]
   8fcdc:	b9001001 	str	w1, [x0, #16]
   8fce0:	f9403be0 	ldr	x0, [sp, #112]
   8fce4:	b9405800 	ldr	w0, [x0, #88]
   8fce8:	b9403fe1 	ldr	w1, [sp, #60]
   8fcec:	6b00003f 	cmp	w1, w0
   8fcf0:	54000108 	b.hi	8fd10 <CEcoMemoryAllocator1Lab_623E1838_Realloc+0x184>  // b.pmore
   8fcf4:	f9403be0 	ldr	x0, [sp, #112]
   8fcf8:	b9405801 	ldr	w1, [x0, #88]
   8fcfc:	b9403fe0 	ldr	w0, [sp, #60]
   8fd00:	4b000021 	sub	w1, w1, w0
   8fd04:	f9403be0 	ldr	x0, [sp, #112]
   8fd08:	b9005801 	str	w1, [x0, #88]
   8fd0c:	14000003 	b	8fd18 <CEcoMemoryAllocator1Lab_623E1838_Realloc+0x18c>
   8fd10:	f9403be0 	ldr	x0, [sp, #112]
   8fd14:	b900581f 	str	wzr, [x0, #88]
   8fd18:	f9401be0 	ldr	x0, [sp, #48]
   8fd1c:	91006000 	add	x0, x0, #0x18
   8fd20:	aa0003e1 	mov	x1, x0
   8fd24:	f94017e0 	ldr	x0, [sp, #40]
   8fd28:	97fffe8b 	bl	8f754 <CEcoMemoryAllocator1Lab_623E1838_Free>
   8fd2c:	f94037e0 	ldr	x0, [sp, #104]
   8fd30:	3900501f 	strb	wzr, [x0, #20]
   8fd34:	f94013e0 	ldr	x0, [sp, #32]
   8fd38:	14000074 	b	8ff08 <CEcoMemoryAllocator1Lab_623E1838_Realloc+0x37c>
   8fd3c:	f94037e0 	ldr	x0, [sp, #104]
   8fd40:	f9400000 	ldr	x0, [x0]
   8fd44:	f100001f 	cmp	x0, #0x0
   8fd48:	54000bc0 	b.eq	8fec0 <CEcoMemoryAllocator1Lab_623E1838_Realloc+0x334>  // b.none
   8fd4c:	f94037e0 	ldr	x0, [sp, #104]
   8fd50:	f9400000 	ldr	x0, [x0]
   8fd54:	39405000 	ldrb	w0, [x0, #20]
   8fd58:	7100001f 	cmp	w0, #0x0
   8fd5c:	54000b20 	b.eq	8fec0 <CEcoMemoryAllocator1Lab_623E1838_Realloc+0x334>  // b.none
   8fd60:	f94037e0 	ldr	x0, [sp, #104]
   8fd64:	f9400000 	ldr	x0, [x0]
   8fd68:	f9002be0 	str	x0, [sp, #80]
   8fd6c:	f94037e0 	ldr	x0, [sp, #104]
   8fd70:	b9401001 	ldr	w1, [x0, #16]
   8fd74:	f9402be0 	ldr	x0, [sp, #80]
   8fd78:	b9401000 	ldr	w0, [x0, #16]
   8fd7c:	0b000020 	add	w0, w1, w0
   8fd80:	11006000 	add	w0, w0, #0x18
   8fd84:	b9004fe0 	str	w0, [sp, #76]
   8fd88:	b9404fe1 	ldr	w1, [sp, #76]
   8fd8c:	b9401fe0 	ldr	w0, [sp, #28]
   8fd90:	6b00003f 	cmp	w1, w0
   8fd94:	54000963 	b.cc	8fec0 <CEcoMemoryAllocator1Lab_623E1838_Realloc+0x334>  // b.lo, b.ul, b.last
   8fd98:	f94037e0 	ldr	x0, [sp, #104]
   8fd9c:	b9401000 	ldr	w0, [x0, #16]
   8fda0:	b9401fe1 	ldr	w1, [sp, #28]
   8fda4:	4b000020 	sub	w0, w1, w0
   8fda8:	b9007fe0 	str	w0, [sp, #124]
   8fdac:	b9404fe1 	ldr	w1, [sp, #76]
   8fdb0:	b9401fe0 	ldr	w0, [sp, #28]
   8fdb4:	4b000020 	sub	w0, w1, w0
   8fdb8:	b9004be0 	str	w0, [sp, #72]
   8fdbc:	b9404be0 	ldr	w0, [sp, #72]
   8fdc0:	71007c1f 	cmp	w0, #0x1f
   8fdc4:	54000469 	b.ls	8fe50 <CEcoMemoryAllocator1Lab_623E1838_Realloc+0x2c4>  // b.plast
   8fdc8:	b9401fe0 	ldr	w0, [sp, #28]
   8fdcc:	91006000 	add	x0, x0, #0x18
   8fdd0:	f94037e1 	ldr	x1, [sp, #104]
   8fdd4:	8b000020 	add	x0, x1, x0
   8fdd8:	f90023e0 	str	x0, [sp, #64]
   8fddc:	b9404be0 	ldr	w0, [sp, #72]
   8fde0:	51006001 	sub	w1, w0, #0x18
   8fde4:	f94023e0 	ldr	x0, [sp, #64]
   8fde8:	b9001001 	str	w1, [x0, #16]
   8fdec:	f94023e0 	ldr	x0, [sp, #64]
   8fdf0:	52800021 	mov	w1, #0x1                   	// #1
   8fdf4:	39005001 	strb	w1, [x0, #20]
   8fdf8:	f94023e0 	ldr	x0, [sp, #64]
   8fdfc:	f94037e1 	ldr	x1, [sp, #104]
   8fe00:	f9000401 	str	x1, [x0, #8]
   8fe04:	f9402be0 	ldr	x0, [sp, #80]
   8fe08:	f9400001 	ldr	x1, [x0]
   8fe0c:	f94023e0 	ldr	x0, [sp, #64]
   8fe10:	f9000001 	str	x1, [x0]
   8fe14:	f94023e0 	ldr	x0, [sp, #64]
   8fe18:	f9400000 	ldr	x0, [x0]
   8fe1c:	f100001f 	cmp	x0, #0x0
   8fe20:	540000a0 	b.eq	8fe34 <CEcoMemoryAllocator1Lab_623E1838_Realloc+0x2a8>  // b.none
   8fe24:	f94023e0 	ldr	x0, [sp, #64]
   8fe28:	f9400000 	ldr	x0, [x0]
   8fe2c:	f94023e1 	ldr	x1, [sp, #64]
   8fe30:	f9000401 	str	x1, [x0, #8]
   8fe34:	f94037e0 	ldr	x0, [sp, #104]
   8fe38:	f94023e1 	ldr	x1, [sp, #64]
   8fe3c:	f9000001 	str	x1, [x0]
   8fe40:	f94037e0 	ldr	x0, [sp, #104]
   8fe44:	b9401fe1 	ldr	w1, [sp, #28]
   8fe48:	b9001001 	str	w1, [x0, #16]
   8fe4c:	14000015 	b	8fea0 <CEcoMemoryAllocator1Lab_623E1838_Realloc+0x314>
   8fe50:	f9402be0 	ldr	x0, [sp, #80]
   8fe54:	f9400001 	ldr	x1, [x0]
   8fe58:	f94037e0 	ldr	x0, [sp, #104]
   8fe5c:	f9000001 	str	x1, [x0]
   8fe60:	f94037e0 	ldr	x0, [sp, #104]
   8fe64:	f9400000 	ldr	x0, [x0]
   8fe68:	f100001f 	cmp	x0, #0x0
   8fe6c:	540000a0 	b.eq	8fe80 <CEcoMemoryAllocator1Lab_623E1838_Realloc+0x2f4>  // b.none
   8fe70:	f94037e0 	ldr	x0, [sp, #104]
   8fe74:	f9400000 	ldr	x0, [x0]
   8fe78:	f94037e1 	ldr	x1, [sp, #104]
   8fe7c:	f9000401 	str	x1, [x0, #8]
   8fe80:	f94037e0 	ldr	x0, [sp, #104]
   8fe84:	b9404fe1 	ldr	w1, [sp, #76]
   8fe88:	b9001001 	str	w1, [x0, #16]
   8fe8c:	f94037e0 	ldr	x0, [sp, #104]
   8fe90:	b9401001 	ldr	w1, [x0, #16]
   8fe94:	b94067e0 	ldr	w0, [sp, #100]
   8fe98:	4b000020 	sub	w0, w1, w0
   8fe9c:	b9007fe0 	str	w0, [sp, #124]
   8fea0:	f9403be0 	ldr	x0, [sp, #112]
   8fea4:	b9405801 	ldr	w1, [x0, #88]
   8fea8:	b9407fe0 	ldr	w0, [sp, #124]
   8feac:	0b000021 	add	w1, w1, w0
   8feb0:	f9403be0 	ldr	x0, [sp, #112]
   8feb4:	b9005801 	str	w1, [x0, #88]
   8feb8:	f94013e0 	ldr	x0, [sp, #32]
   8febc:	14000013 	b	8ff08 <CEcoMemoryAllocator1Lab_623E1838_Realloc+0x37c>
   8fec0:	b9401fe1 	ldr	w1, [sp, #28]
   8fec4:	f94017e0 	ldr	x0, [sp, #40]
   8fec8:	97fffd9a 	bl	8f530 <CEcoMemoryAllocator1Lab_623E1838_Alloc>
   8fecc:	f9002fe0 	str	x0, [sp, #88]
   8fed0:	f9402fe0 	ldr	x0, [sp, #88]
   8fed4:	f100001f 	cmp	x0, #0x0
   8fed8:	54000061 	b.ne	8fee4 <CEcoMemoryAllocator1Lab_623E1838_Realloc+0x358>  // b.any
   8fedc:	d2800000 	mov	x0, #0x0                   	// #0
   8fee0:	1400000a 	b	8ff08 <CEcoMemoryAllocator1Lab_623E1838_Realloc+0x37c>
   8fee4:	b94067e3 	ldr	w3, [sp, #100]
   8fee8:	f94013e2 	ldr	x2, [sp, #32]
   8feec:	f9402fe1 	ldr	x1, [sp, #88]
   8fef0:	f94017e0 	ldr	x0, [sp, #40]
   8fef4:	97fffed5 	bl	8fa48 <CEcoMemoryAllocator1Lab_623E1838_Copy>
   8fef8:	f94013e1 	ldr	x1, [sp, #32]
   8fefc:	f94017e0 	ldr	x0, [sp, #40]
   8ff00:	97fffe15 	bl	8f754 <CEcoMemoryAllocator1Lab_623E1838_Free>
   8ff04:	f9402fe0 	ldr	x0, [sp, #88]
   8ff08:	a8c87bfd 	ldp	x29, x30, [sp], #128
   8ff0c:	d65f03c0 	ret

000000000008ff10 <CEcoMemoryAllocator1Lab_623E1838_Fill>:
   8ff10:	d100c3ff 	sub	sp, sp, #0x30
   8ff14:	f9000fe0 	str	x0, [sp, #24]
   8ff18:	f9000be1 	str	x1, [sp, #16]
   8ff1c:	39003fe2 	strb	w2, [sp, #15]
   8ff20:	b9000be3 	str	w3, [sp, #8]
   8ff24:	f90013ff 	str	xzr, [sp, #32]
   8ff28:	b9002fff 	str	wzr, [sp, #44]
   8ff2c:	f9400be0 	ldr	x0, [sp, #16]
   8ff30:	f100001f 	cmp	x0, #0x0
   8ff34:	54000061 	b.ne	8ff40 <CEcoMemoryAllocator1Lab_623E1838_Fill+0x30>  // b.any
   8ff38:	f9400be0 	ldr	x0, [sp, #16]
   8ff3c:	14000017 	b	8ff98 <CEcoMemoryAllocator1Lab_623E1838_Fill+0x88>
   8ff40:	b9400be0 	ldr	w0, [sp, #8]
   8ff44:	7100001f 	cmp	w0, #0x0
   8ff48:	54000061 	b.ne	8ff54 <CEcoMemoryAllocator1Lab_623E1838_Fill+0x44>  // b.any
   8ff4c:	f9400be0 	ldr	x0, [sp, #16]
   8ff50:	14000012 	b	8ff98 <CEcoMemoryAllocator1Lab_623E1838_Fill+0x88>
   8ff54:	f9400be0 	ldr	x0, [sp, #16]
   8ff58:	f90013e0 	str	x0, [sp, #32]
   8ff5c:	b9002fff 	str	wzr, [sp, #44]
   8ff60:	14000009 	b	8ff84 <CEcoMemoryAllocator1Lab_623E1838_Fill+0x74>
   8ff64:	b9402fe0 	ldr	w0, [sp, #44]
   8ff68:	f94013e1 	ldr	x1, [sp, #32]
   8ff6c:	8b000020 	add	x0, x1, x0
   8ff70:	39403fe1 	ldrb	w1, [sp, #15]
   8ff74:	39000001 	strb	w1, [x0]
   8ff78:	b9402fe0 	ldr	w0, [sp, #44]
   8ff7c:	11000400 	add	w0, w0, #0x1
   8ff80:	b9002fe0 	str	w0, [sp, #44]
   8ff84:	b9402fe1 	ldr	w1, [sp, #44]
   8ff88:	b9400be0 	ldr	w0, [sp, #8]
   8ff8c:	6b00003f 	cmp	w1, w0
   8ff90:	54fffea3 	b.cc	8ff64 <CEcoMemoryAllocator1Lab_623E1838_Fill+0x54>  // b.lo, b.ul, b.last
   8ff94:	f9400be0 	ldr	x0, [sp, #16]
   8ff98:	9100c3ff 	add	sp, sp, #0x30
   8ff9c:	d65f03c0 	ret

000000000008ffa0 <CEcoMemoryAllocator1Lab_623E1838_Compare>:
   8ffa0:	d10103ff 	sub	sp, sp, #0x40
   8ffa4:	f9000fe0 	str	x0, [sp, #24]
   8ffa8:	f9000be1 	str	x1, [sp, #16]
   8ffac:	f90007e2 	str	x2, [sp, #8]
   8ffb0:	b90007e3 	str	w3, [sp, #4]
   8ffb4:	f9001bff 	str	xzr, [sp, #48]
   8ffb8:	f90017ff 	str	xzr, [sp, #40]
   8ffbc:	b9003fff 	str	wzr, [sp, #60]
   8ffc0:	b94007e0 	ldr	w0, [sp, #4]
   8ffc4:	7100001f 	cmp	w0, #0x0
   8ffc8:	54000061 	b.ne	8ffd4 <CEcoMemoryAllocator1Lab_623E1838_Compare+0x34>  // b.any
   8ffcc:	52800000 	mov	w0, #0x0                   	// #0
   8ffd0:	14000037 	b	900ac <CEcoMemoryAllocator1Lab_623E1838_Compare+0x10c>
   8ffd4:	f9400be1 	ldr	x1, [sp, #16]
   8ffd8:	f94007e0 	ldr	x0, [sp, #8]
   8ffdc:	eb00003f 	cmp	x1, x0
   8ffe0:	54000061 	b.ne	8ffec <CEcoMemoryAllocator1Lab_623E1838_Compare+0x4c>  // b.any
   8ffe4:	52800000 	mov	w0, #0x0                   	// #0
   8ffe8:	14000031 	b	900ac <CEcoMemoryAllocator1Lab_623E1838_Compare+0x10c>
   8ffec:	f9400be0 	ldr	x0, [sp, #16]
   8fff0:	f100001f 	cmp	x0, #0x0
   8fff4:	54000061 	b.ne	90000 <CEcoMemoryAllocator1Lab_623E1838_Compare+0x60>  // b.any
   8fff8:	12800000 	mov	w0, #0xffffffff            	// #-1
   8fffc:	1400002c 	b	900ac <CEcoMemoryAllocator1Lab_623E1838_Compare+0x10c>
   90000:	f94007e0 	ldr	x0, [sp, #8]
   90004:	f100001f 	cmp	x0, #0x0
   90008:	54000061 	b.ne	90014 <CEcoMemoryAllocator1Lab_623E1838_Compare+0x74>  // b.any
   9000c:	52800020 	mov	w0, #0x1                   	// #1
   90010:	14000027 	b	900ac <CEcoMemoryAllocator1Lab_623E1838_Compare+0x10c>
   90014:	f9400be0 	ldr	x0, [sp, #16]
   90018:	f9001be0 	str	x0, [sp, #48]
   9001c:	f94007e0 	ldr	x0, [sp, #8]
   90020:	f90017e0 	str	x0, [sp, #40]
   90024:	b9003fff 	str	wzr, [sp, #60]
   90028:	1400001c 	b	90098 <CEcoMemoryAllocator1Lab_623E1838_Compare+0xf8>
   9002c:	b9403fe0 	ldr	w0, [sp, #60]
   90030:	f9401be1 	ldr	x1, [sp, #48]
   90034:	8b000020 	add	x0, x1, x0
   90038:	39400001 	ldrb	w1, [x0]
   9003c:	b9403fe0 	ldr	w0, [sp, #60]
   90040:	f94017e2 	ldr	x2, [sp, #40]
   90044:	8b000040 	add	x0, x2, x0
   90048:	39400000 	ldrb	w0, [x0]
   9004c:	6b00003f 	cmp	w1, w0
   90050:	540001e0 	b.eq	9008c <CEcoMemoryAllocator1Lab_623E1838_Compare+0xec>  // b.none
   90054:	b9403fe0 	ldr	w0, [sp, #60]
   90058:	f9401be1 	ldr	x1, [sp, #48]
   9005c:	8b000020 	add	x0, x1, x0
   90060:	39400001 	ldrb	w1, [x0]
   90064:	b9403fe0 	ldr	w0, [sp, #60]
   90068:	f94017e2 	ldr	x2, [sp, #40]
   9006c:	8b000040 	add	x0, x2, x0
   90070:	39400000 	ldrb	w0, [x0]
   90074:	6b00003f 	cmp	w1, w0
   90078:	54000062 	b.cs	90084 <CEcoMemoryAllocator1Lab_623E1838_Compare+0xe4>  // b.hs, b.nlast
   9007c:	12800000 	mov	w0, #0xffffffff            	// #-1
   90080:	1400000b 	b	900ac <CEcoMemoryAllocator1Lab_623E1838_Compare+0x10c>
   90084:	52800020 	mov	w0, #0x1                   	// #1
   90088:	14000009 	b	900ac <CEcoMemoryAllocator1Lab_623E1838_Compare+0x10c>
   9008c:	b9403fe0 	ldr	w0, [sp, #60]
   90090:	11000400 	add	w0, w0, #0x1
   90094:	b9003fe0 	str	w0, [sp, #60]
   90098:	b9403fe1 	ldr	w1, [sp, #60]
   9009c:	b94007e0 	ldr	w0, [sp, #4]
   900a0:	6b00003f 	cmp	w1, w0
   900a4:	54fffc43 	b.cc	9002c <CEcoMemoryAllocator1Lab_623E1838_Compare+0x8c>  // b.lo, b.ul, b.last
   900a8:	52800000 	mov	w0, #0x0                   	// #0
   900ac:	910103ff 	add	sp, sp, #0x40
   900b0:	d65f03c0 	ret

00000000000900b4 <CEcoVirtualMemory1Lab_623E1838_QueryInterface>:
   900b4:	a9bc7bfd 	stp	x29, x30, [sp, #-64]!
   900b8:	910003fd 	mov	x29, sp
   900bc:	f90017e0 	str	x0, [sp, #40]
   900c0:	f90013e1 	str	x1, [sp, #32]
   900c4:	f9000fe2 	str	x2, [sp, #24]
   900c8:	f94017e0 	ldr	x0, [sp, #40]
   900cc:	d1004000 	sub	x0, x0, #0x10
   900d0:	f9001fe0 	str	x0, [sp, #56]
   900d4:	f94017e0 	ldr	x0, [sp, #40]
   900d8:	f100001f 	cmp	x0, #0x0
   900dc:	54000080 	b.eq	900ec <CEcoVirtualMemory1Lab_623E1838_QueryInterface+0x38>  // b.none
   900e0:	f9400fe0 	ldr	x0, [sp, #24]
   900e4:	f100001f 	cmp	x0, #0x0
   900e8:	54000061 	b.ne	900f4 <CEcoVirtualMemory1Lab_623E1838_QueryInterface+0x40>  // b.any
   900ec:	12800220 	mov	w0, #0xffffffee            	// #-18
   900f0:	14000268 	b	90a90 <CEcoVirtualMemory1Lab_623E1838_QueryInterface+0x9dc>
   900f4:	f94013e0 	ldr	x0, [sp, #32]
   900f8:	39400001 	ldrb	w1, [x0]
   900fc:	b0000400 	adrp	x0, 111000 <GID_IEcoSystem_AARCH64>
   90100:	912ce000 	add	x0, x0, #0xb38
   90104:	39400000 	ldrb	w0, [x0]
   90108:	6b00003f 	cmp	w1, w0
   9010c:	54001241 	b.ne	90354 <CEcoVirtualMemory1Lab_623E1838_QueryInterface+0x2a0>  // b.any
   90110:	f94013e0 	ldr	x0, [sp, #32]
   90114:	91000400 	add	x0, x0, #0x1
   90118:	39400001 	ldrb	w1, [x0]
   9011c:	b0000400 	adrp	x0, 111000 <GID_IEcoSystem_AARCH64>
   90120:	912ce400 	add	x0, x0, #0xb39
   90124:	39400000 	ldrb	w0, [x0]
   90128:	6b00003f 	cmp	w1, w0
   9012c:	54001141 	b.ne	90354 <CEcoVirtualMemory1Lab_623E1838_QueryInterface+0x2a0>  // b.any
   90130:	f94013e0 	ldr	x0, [sp, #32]
   90134:	91000800 	add	x0, x0, #0x2
   90138:	39400001 	ldrb	w1, [x0]
   9013c:	b0000400 	adrp	x0, 111000 <GID_IEcoSystem_AARCH64>
   90140:	912ce800 	add	x0, x0, #0xb3a
   90144:	39400000 	ldrb	w0, [x0]
   90148:	6b00003f 	cmp	w1, w0
   9014c:	54001041 	b.ne	90354 <CEcoVirtualMemory1Lab_623E1838_QueryInterface+0x2a0>  // b.any
   90150:	f94013e0 	ldr	x0, [sp, #32]
   90154:	91000c00 	add	x0, x0, #0x3
   90158:	39400001 	ldrb	w1, [x0]
   9015c:	b0000400 	adrp	x0, 111000 <GID_IEcoSystem_AARCH64>
   90160:	912cec00 	add	x0, x0, #0xb3b
   90164:	39400000 	ldrb	w0, [x0]
   90168:	6b00003f 	cmp	w1, w0
   9016c:	54000f41 	b.ne	90354 <CEcoVirtualMemory1Lab_623E1838_QueryInterface+0x2a0>  // b.any
   90170:	f94013e0 	ldr	x0, [sp, #32]
   90174:	91001000 	add	x0, x0, #0x4
   90178:	39400001 	ldrb	w1, [x0]
   9017c:	b0000400 	adrp	x0, 111000 <GID_IEcoSystem_AARCH64>
   90180:	912cf000 	add	x0, x0, #0xb3c
   90184:	39400000 	ldrb	w0, [x0]
   90188:	6b00003f 	cmp	w1, w0
   9018c:	54000e41 	b.ne	90354 <CEcoVirtualMemory1Lab_623E1838_QueryInterface+0x2a0>  // b.any
   90190:	f94013e0 	ldr	x0, [sp, #32]
   90194:	91001400 	add	x0, x0, #0x5
   90198:	39400001 	ldrb	w1, [x0]
   9019c:	b0000400 	adrp	x0, 111000 <GID_IEcoSystem_AARCH64>
   901a0:	912cf400 	add	x0, x0, #0xb3d
   901a4:	39400000 	ldrb	w0, [x0]
   901a8:	6b00003f 	cmp	w1, w0
   901ac:	54000d41 	b.ne	90354 <CEcoVirtualMemory1Lab_623E1838_QueryInterface+0x2a0>  // b.any
   901b0:	f94013e0 	ldr	x0, [sp, #32]
   901b4:	91001800 	add	x0, x0, #0x6
   901b8:	39400001 	ldrb	w1, [x0]
   901bc:	b0000400 	adrp	x0, 111000 <GID_IEcoSystem_AARCH64>
   901c0:	912cf800 	add	x0, x0, #0xb3e
   901c4:	39400000 	ldrb	w0, [x0]
   901c8:	6b00003f 	cmp	w1, w0
   901cc:	54000c41 	b.ne	90354 <CEcoVirtualMemory1Lab_623E1838_QueryInterface+0x2a0>  // b.any
   901d0:	f94013e0 	ldr	x0, [sp, #32]
   901d4:	91001c00 	add	x0, x0, #0x7
   901d8:	39400001 	ldrb	w1, [x0]
   901dc:	b0000400 	adrp	x0, 111000 <GID_IEcoSystem_AARCH64>
   901e0:	912cfc00 	add	x0, x0, #0xb3f
   901e4:	39400000 	ldrb	w0, [x0]
   901e8:	6b00003f 	cmp	w1, w0
   901ec:	54000b41 	b.ne	90354 <CEcoVirtualMemory1Lab_623E1838_QueryInterface+0x2a0>  // b.any
   901f0:	f94013e0 	ldr	x0, [sp, #32]
   901f4:	91002000 	add	x0, x0, #0x8
   901f8:	39400001 	ldrb	w1, [x0]
   901fc:	b0000400 	adrp	x0, 111000 <GID_IEcoSystem_AARCH64>
   90200:	912d0000 	add	x0, x0, #0xb40
   90204:	39400000 	ldrb	w0, [x0]
   90208:	6b00003f 	cmp	w1, w0
   9020c:	54000a41 	b.ne	90354 <CEcoVirtualMemory1Lab_623E1838_QueryInterface+0x2a0>  // b.any
   90210:	f94013e0 	ldr	x0, [sp, #32]
   90214:	91002400 	add	x0, x0, #0x9
   90218:	39400001 	ldrb	w1, [x0]
   9021c:	b0000400 	adrp	x0, 111000 <GID_IEcoSystem_AARCH64>
   90220:	912d0400 	add	x0, x0, #0xb41
   90224:	39400000 	ldrb	w0, [x0]
   90228:	6b00003f 	cmp	w1, w0
   9022c:	54000941 	b.ne	90354 <CEcoVirtualMemory1Lab_623E1838_QueryInterface+0x2a0>  // b.any
   90230:	f94013e0 	ldr	x0, [sp, #32]
   90234:	91002800 	add	x0, x0, #0xa
   90238:	39400001 	ldrb	w1, [x0]
   9023c:	b0000400 	adrp	x0, 111000 <GID_IEcoSystem_AARCH64>
   90240:	912d0800 	add	x0, x0, #0xb42
   90244:	39400000 	ldrb	w0, [x0]
   90248:	6b00003f 	cmp	w1, w0
   9024c:	54000841 	b.ne	90354 <CEcoVirtualMemory1Lab_623E1838_QueryInterface+0x2a0>  // b.any
   90250:	f94013e0 	ldr	x0, [sp, #32]
   90254:	91002c00 	add	x0, x0, #0xb
   90258:	39400001 	ldrb	w1, [x0]
   9025c:	b0000400 	adrp	x0, 111000 <GID_IEcoSystem_AARCH64>
   90260:	912d0c00 	add	x0, x0, #0xb43
   90264:	39400000 	ldrb	w0, [x0]
   90268:	6b00003f 	cmp	w1, w0
   9026c:	54000741 	b.ne	90354 <CEcoVirtualMemory1Lab_623E1838_QueryInterface+0x2a0>  // b.any
   90270:	f94013e0 	ldr	x0, [sp, #32]
   90274:	91003000 	add	x0, x0, #0xc
   90278:	39400001 	ldrb	w1, [x0]
   9027c:	b0000400 	adrp	x0, 111000 <GID_IEcoSystem_AARCH64>
   90280:	912d1000 	add	x0, x0, #0xb44
   90284:	39400000 	ldrb	w0, [x0]
   90288:	6b00003f 	cmp	w1, w0
   9028c:	54000641 	b.ne	90354 <CEcoVirtualMemory1Lab_623E1838_QueryInterface+0x2a0>  // b.any
   90290:	f94013e0 	ldr	x0, [sp, #32]
   90294:	91003400 	add	x0, x0, #0xd
   90298:	39400001 	ldrb	w1, [x0]
   9029c:	b0000400 	adrp	x0, 111000 <GID_IEcoSystem_AARCH64>
   902a0:	912d1400 	add	x0, x0, #0xb45
   902a4:	39400000 	ldrb	w0, [x0]
   902a8:	6b00003f 	cmp	w1, w0
   902ac:	54000541 	b.ne	90354 <CEcoVirtualMemory1Lab_623E1838_QueryInterface+0x2a0>  // b.any
   902b0:	f94013e0 	ldr	x0, [sp, #32]
   902b4:	91003800 	add	x0, x0, #0xe
   902b8:	39400001 	ldrb	w1, [x0]
   902bc:	b0000400 	adrp	x0, 111000 <GID_IEcoSystem_AARCH64>
   902c0:	912d1800 	add	x0, x0, #0xb46
   902c4:	39400000 	ldrb	w0, [x0]
   902c8:	6b00003f 	cmp	w1, w0
   902cc:	54000441 	b.ne	90354 <CEcoVirtualMemory1Lab_623E1838_QueryInterface+0x2a0>  // b.any
   902d0:	f94013e0 	ldr	x0, [sp, #32]
   902d4:	91003c00 	add	x0, x0, #0xf
   902d8:	39400001 	ldrb	w1, [x0]
   902dc:	b0000400 	adrp	x0, 111000 <GID_IEcoSystem_AARCH64>
   902e0:	912d1c00 	add	x0, x0, #0xb47
   902e4:	39400000 	ldrb	w0, [x0]
   902e8:	6b00003f 	cmp	w1, w0
   902ec:	54000341 	b.ne	90354 <CEcoVirtualMemory1Lab_623E1838_QueryInterface+0x2a0>  // b.any
   902f0:	f94013e0 	ldr	x0, [sp, #32]
   902f4:	91004000 	add	x0, x0, #0x10
   902f8:	39400001 	ldrb	w1, [x0]
   902fc:	b0000400 	adrp	x0, 111000 <GID_IEcoSystem_AARCH64>
   90300:	912d2000 	add	x0, x0, #0xb48
   90304:	39400000 	ldrb	w0, [x0]
   90308:	6b00003f 	cmp	w1, w0
   9030c:	54000241 	b.ne	90354 <CEcoVirtualMemory1Lab_623E1838_QueryInterface+0x2a0>  // b.any
   90310:	f94013e0 	ldr	x0, [sp, #32]
   90314:	91004400 	add	x0, x0, #0x11
   90318:	39400001 	ldrb	w1, [x0]
   9031c:	b0000400 	adrp	x0, 111000 <GID_IEcoSystem_AARCH64>
   90320:	912d2400 	add	x0, x0, #0xb49
   90324:	39400000 	ldrb	w0, [x0]
   90328:	6b00003f 	cmp	w1, w0
   9032c:	54000141 	b.ne	90354 <CEcoVirtualMemory1Lab_623E1838_QueryInterface+0x2a0>  // b.any
   90330:	f9401fe1 	ldr	x1, [sp, #56]
   90334:	f9400fe0 	ldr	x0, [sp, #24]
   90338:	f9000001 	str	x1, [x0]
   9033c:	f9401fe0 	ldr	x0, [sp, #56]
   90340:	f9400000 	ldr	x0, [x0]
   90344:	f9400401 	ldr	x1, [x0, #8]
   90348:	f9401fe0 	ldr	x0, [sp, #56]
   9034c:	d63f0020 	blr	x1
   90350:	140001cf 	b	90a8c <CEcoVirtualMemory1Lab_623E1838_QueryInterface+0x9d8>
   90354:	f94013e0 	ldr	x0, [sp, #32]
   90358:	39400001 	ldrb	w1, [x0]
   9035c:	b0000400 	adrp	x0, 111000 <GID_IEcoSystem_AARCH64>
   90360:	912c8000 	add	x0, x0, #0xb20
   90364:	39400000 	ldrb	w0, [x0]
   90368:	6b00003f 	cmp	w1, w0
   9036c:	54001261 	b.ne	905b8 <CEcoVirtualMemory1Lab_623E1838_QueryInterface+0x504>  // b.any
   90370:	f94013e0 	ldr	x0, [sp, #32]
   90374:	91000400 	add	x0, x0, #0x1
   90378:	39400001 	ldrb	w1, [x0]
   9037c:	b0000400 	adrp	x0, 111000 <GID_IEcoSystem_AARCH64>
   90380:	912c8400 	add	x0, x0, #0xb21
   90384:	39400000 	ldrb	w0, [x0]
   90388:	6b00003f 	cmp	w1, w0
   9038c:	54001161 	b.ne	905b8 <CEcoVirtualMemory1Lab_623E1838_QueryInterface+0x504>  // b.any
   90390:	f94013e0 	ldr	x0, [sp, #32]
   90394:	91000800 	add	x0, x0, #0x2
   90398:	39400001 	ldrb	w1, [x0]
   9039c:	b0000400 	adrp	x0, 111000 <GID_IEcoSystem_AARCH64>
   903a0:	912c8800 	add	x0, x0, #0xb22
   903a4:	39400000 	ldrb	w0, [x0]
   903a8:	6b00003f 	cmp	w1, w0
   903ac:	54001061 	b.ne	905b8 <CEcoVirtualMemory1Lab_623E1838_QueryInterface+0x504>  // b.any
   903b0:	f94013e0 	ldr	x0, [sp, #32]
   903b4:	91000c00 	add	x0, x0, #0x3
   903b8:	39400001 	ldrb	w1, [x0]
   903bc:	b0000400 	adrp	x0, 111000 <GID_IEcoSystem_AARCH64>
   903c0:	912c8c00 	add	x0, x0, #0xb23
   903c4:	39400000 	ldrb	w0, [x0]
   903c8:	6b00003f 	cmp	w1, w0
   903cc:	54000f61 	b.ne	905b8 <CEcoVirtualMemory1Lab_623E1838_QueryInterface+0x504>  // b.any
   903d0:	f94013e0 	ldr	x0, [sp, #32]
   903d4:	91001000 	add	x0, x0, #0x4
   903d8:	39400001 	ldrb	w1, [x0]
   903dc:	b0000400 	adrp	x0, 111000 <GID_IEcoSystem_AARCH64>
   903e0:	912c9000 	add	x0, x0, #0xb24
   903e4:	39400000 	ldrb	w0, [x0]
   903e8:	6b00003f 	cmp	w1, w0
   903ec:	54000e61 	b.ne	905b8 <CEcoVirtualMemory1Lab_623E1838_QueryInterface+0x504>  // b.any
   903f0:	f94013e0 	ldr	x0, [sp, #32]
   903f4:	91001400 	add	x0, x0, #0x5
   903f8:	39400001 	ldrb	w1, [x0]
   903fc:	b0000400 	adrp	x0, 111000 <GID_IEcoSystem_AARCH64>
   90400:	912c9400 	add	x0, x0, #0xb25
   90404:	39400000 	ldrb	w0, [x0]
   90408:	6b00003f 	cmp	w1, w0
   9040c:	54000d61 	b.ne	905b8 <CEcoVirtualMemory1Lab_623E1838_QueryInterface+0x504>  // b.any
   90410:	f94013e0 	ldr	x0, [sp, #32]
   90414:	91001800 	add	x0, x0, #0x6
   90418:	39400001 	ldrb	w1, [x0]
   9041c:	b0000400 	adrp	x0, 111000 <GID_IEcoSystem_AARCH64>
   90420:	912c9800 	add	x0, x0, #0xb26
   90424:	39400000 	ldrb	w0, [x0]
   90428:	6b00003f 	cmp	w1, w0
   9042c:	54000c61 	b.ne	905b8 <CEcoVirtualMemory1Lab_623E1838_QueryInterface+0x504>  // b.any
   90430:	f94013e0 	ldr	x0, [sp, #32]
   90434:	91001c00 	add	x0, x0, #0x7
   90438:	39400001 	ldrb	w1, [x0]
   9043c:	b0000400 	adrp	x0, 111000 <GID_IEcoSystem_AARCH64>
   90440:	912c9c00 	add	x0, x0, #0xb27
   90444:	39400000 	ldrb	w0, [x0]
   90448:	6b00003f 	cmp	w1, w0
   9044c:	54000b61 	b.ne	905b8 <CEcoVirtualMemory1Lab_623E1838_QueryInterface+0x504>  // b.any
   90450:	f94013e0 	ldr	x0, [sp, #32]
   90454:	91002000 	add	x0, x0, #0x8
   90458:	39400001 	ldrb	w1, [x0]
   9045c:	b0000400 	adrp	x0, 111000 <GID_IEcoSystem_AARCH64>
   90460:	912ca000 	add	x0, x0, #0xb28
   90464:	39400000 	ldrb	w0, [x0]
   90468:	6b00003f 	cmp	w1, w0
   9046c:	54000a61 	b.ne	905b8 <CEcoVirtualMemory1Lab_623E1838_QueryInterface+0x504>  // b.any
   90470:	f94013e0 	ldr	x0, [sp, #32]
   90474:	91002400 	add	x0, x0, #0x9
   90478:	39400001 	ldrb	w1, [x0]
   9047c:	b0000400 	adrp	x0, 111000 <GID_IEcoSystem_AARCH64>
   90480:	912ca400 	add	x0, x0, #0xb29
   90484:	39400000 	ldrb	w0, [x0]
   90488:	6b00003f 	cmp	w1, w0
   9048c:	54000961 	b.ne	905b8 <CEcoVirtualMemory1Lab_623E1838_QueryInterface+0x504>  // b.any
   90490:	f94013e0 	ldr	x0, [sp, #32]
   90494:	91002800 	add	x0, x0, #0xa
   90498:	39400001 	ldrb	w1, [x0]
   9049c:	b0000400 	adrp	x0, 111000 <GID_IEcoSystem_AARCH64>
   904a0:	912ca800 	add	x0, x0, #0xb2a
   904a4:	39400000 	ldrb	w0, [x0]
   904a8:	6b00003f 	cmp	w1, w0
   904ac:	54000861 	b.ne	905b8 <CEcoVirtualMemory1Lab_623E1838_QueryInterface+0x504>  // b.any
   904b0:	f94013e0 	ldr	x0, [sp, #32]
   904b4:	91002c00 	add	x0, x0, #0xb
   904b8:	39400001 	ldrb	w1, [x0]
   904bc:	b0000400 	adrp	x0, 111000 <GID_IEcoSystem_AARCH64>
   904c0:	912cac00 	add	x0, x0, #0xb2b
   904c4:	39400000 	ldrb	w0, [x0]
   904c8:	6b00003f 	cmp	w1, w0
   904cc:	54000761 	b.ne	905b8 <CEcoVirtualMemory1Lab_623E1838_QueryInterface+0x504>  // b.any
   904d0:	f94013e0 	ldr	x0, [sp, #32]
   904d4:	91003000 	add	x0, x0, #0xc
   904d8:	39400001 	ldrb	w1, [x0]
   904dc:	b0000400 	adrp	x0, 111000 <GID_IEcoSystem_AARCH64>
   904e0:	912cb000 	add	x0, x0, #0xb2c
   904e4:	39400000 	ldrb	w0, [x0]
   904e8:	6b00003f 	cmp	w1, w0
   904ec:	54000661 	b.ne	905b8 <CEcoVirtualMemory1Lab_623E1838_QueryInterface+0x504>  // b.any
   904f0:	f94013e0 	ldr	x0, [sp, #32]
   904f4:	91003400 	add	x0, x0, #0xd
   904f8:	39400001 	ldrb	w1, [x0]
   904fc:	b0000400 	adrp	x0, 111000 <GID_IEcoSystem_AARCH64>
   90500:	912cb400 	add	x0, x0, #0xb2d
   90504:	39400000 	ldrb	w0, [x0]
   90508:	6b00003f 	cmp	w1, w0
   9050c:	54000561 	b.ne	905b8 <CEcoVirtualMemory1Lab_623E1838_QueryInterface+0x504>  // b.any
   90510:	f94013e0 	ldr	x0, [sp, #32]
   90514:	91003800 	add	x0, x0, #0xe
   90518:	39400001 	ldrb	w1, [x0]
   9051c:	b0000400 	adrp	x0, 111000 <GID_IEcoSystem_AARCH64>
   90520:	912cb800 	add	x0, x0, #0xb2e
   90524:	39400000 	ldrb	w0, [x0]
   90528:	6b00003f 	cmp	w1, w0
   9052c:	54000461 	b.ne	905b8 <CEcoVirtualMemory1Lab_623E1838_QueryInterface+0x504>  // b.any
   90530:	f94013e0 	ldr	x0, [sp, #32]
   90534:	91003c00 	add	x0, x0, #0xf
   90538:	39400001 	ldrb	w1, [x0]
   9053c:	b0000400 	adrp	x0, 111000 <GID_IEcoSystem_AARCH64>
   90540:	912cbc00 	add	x0, x0, #0xb2f
   90544:	39400000 	ldrb	w0, [x0]
   90548:	6b00003f 	cmp	w1, w0
   9054c:	54000361 	b.ne	905b8 <CEcoVirtualMemory1Lab_623E1838_QueryInterface+0x504>  // b.any
   90550:	f94013e0 	ldr	x0, [sp, #32]
   90554:	91004000 	add	x0, x0, #0x10
   90558:	39400001 	ldrb	w1, [x0]
   9055c:	b0000400 	adrp	x0, 111000 <GID_IEcoSystem_AARCH64>
   90560:	912cc000 	add	x0, x0, #0xb30
   90564:	39400000 	ldrb	w0, [x0]
   90568:	6b00003f 	cmp	w1, w0
   9056c:	54000261 	b.ne	905b8 <CEcoVirtualMemory1Lab_623E1838_QueryInterface+0x504>  // b.any
   90570:	f94013e0 	ldr	x0, [sp, #32]
   90574:	91004400 	add	x0, x0, #0x11
   90578:	39400001 	ldrb	w1, [x0]
   9057c:	b0000400 	adrp	x0, 111000 <GID_IEcoSystem_AARCH64>
   90580:	912cc400 	add	x0, x0, #0xb31
   90584:	39400000 	ldrb	w0, [x0]
   90588:	6b00003f 	cmp	w1, w0
   9058c:	54000161 	b.ne	905b8 <CEcoVirtualMemory1Lab_623E1838_QueryInterface+0x504>  // b.any
   90590:	f9401fe0 	ldr	x0, [sp, #56]
   90594:	91002001 	add	x1, x0, #0x8
   90598:	f9400fe0 	ldr	x0, [sp, #24]
   9059c:	f9000001 	str	x1, [x0]
   905a0:	f9401fe0 	ldr	x0, [sp, #56]
   905a4:	f9400000 	ldr	x0, [x0]
   905a8:	f9400401 	ldr	x1, [x0, #8]
   905ac:	f9401fe0 	ldr	x0, [sp, #56]
   905b0:	d63f0020 	blr	x1
   905b4:	14000136 	b	90a8c <CEcoVirtualMemory1Lab_623E1838_QueryInterface+0x9d8>
   905b8:	f94013e0 	ldr	x0, [sp, #32]
   905bc:	39400001 	ldrb	w1, [x0]
   905c0:	b0000400 	adrp	x0, 111000 <GID_IEcoSystem_AARCH64>
   905c4:	912da000 	add	x0, x0, #0xb68
   905c8:	39400000 	ldrb	w0, [x0]
   905cc:	6b00003f 	cmp	w1, w0
   905d0:	54001261 	b.ne	9081c <CEcoVirtualMemory1Lab_623E1838_QueryInterface+0x768>  // b.any
   905d4:	f94013e0 	ldr	x0, [sp, #32]
   905d8:	91000400 	add	x0, x0, #0x1
   905dc:	39400001 	ldrb	w1, [x0]
   905e0:	b0000400 	adrp	x0, 111000 <GID_IEcoSystem_AARCH64>
   905e4:	912da400 	add	x0, x0, #0xb69
   905e8:	39400000 	ldrb	w0, [x0]
   905ec:	6b00003f 	cmp	w1, w0
   905f0:	54001161 	b.ne	9081c <CEcoVirtualMemory1Lab_623E1838_QueryInterface+0x768>  // b.any
   905f4:	f94013e0 	ldr	x0, [sp, #32]
   905f8:	91000800 	add	x0, x0, #0x2
   905fc:	39400001 	ldrb	w1, [x0]
   90600:	b0000400 	adrp	x0, 111000 <GID_IEcoSystem_AARCH64>
   90604:	912da800 	add	x0, x0, #0xb6a
   90608:	39400000 	ldrb	w0, [x0]
   9060c:	6b00003f 	cmp	w1, w0
   90610:	54001061 	b.ne	9081c <CEcoVirtualMemory1Lab_623E1838_QueryInterface+0x768>  // b.any
   90614:	f94013e0 	ldr	x0, [sp, #32]
   90618:	91000c00 	add	x0, x0, #0x3
   9061c:	39400001 	ldrb	w1, [x0]
   90620:	b0000400 	adrp	x0, 111000 <GID_IEcoSystem_AARCH64>
   90624:	912dac00 	add	x0, x0, #0xb6b
   90628:	39400000 	ldrb	w0, [x0]
   9062c:	6b00003f 	cmp	w1, w0
   90630:	54000f61 	b.ne	9081c <CEcoVirtualMemory1Lab_623E1838_QueryInterface+0x768>  // b.any
   90634:	f94013e0 	ldr	x0, [sp, #32]
   90638:	91001000 	add	x0, x0, #0x4
   9063c:	39400001 	ldrb	w1, [x0]
   90640:	b0000400 	adrp	x0, 111000 <GID_IEcoSystem_AARCH64>
   90644:	912db000 	add	x0, x0, #0xb6c
   90648:	39400000 	ldrb	w0, [x0]
   9064c:	6b00003f 	cmp	w1, w0
   90650:	54000e61 	b.ne	9081c <CEcoVirtualMemory1Lab_623E1838_QueryInterface+0x768>  // b.any
   90654:	f94013e0 	ldr	x0, [sp, #32]
   90658:	91001400 	add	x0, x0, #0x5
   9065c:	39400001 	ldrb	w1, [x0]
   90660:	b0000400 	adrp	x0, 111000 <GID_IEcoSystem_AARCH64>
   90664:	912db400 	add	x0, x0, #0xb6d
   90668:	39400000 	ldrb	w0, [x0]
   9066c:	6b00003f 	cmp	w1, w0
   90670:	54000d61 	b.ne	9081c <CEcoVirtualMemory1Lab_623E1838_QueryInterface+0x768>  // b.any
   90674:	f94013e0 	ldr	x0, [sp, #32]
   90678:	91001800 	add	x0, x0, #0x6
   9067c:	39400001 	ldrb	w1, [x0]
   90680:	b0000400 	adrp	x0, 111000 <GID_IEcoSystem_AARCH64>
   90684:	912db800 	add	x0, x0, #0xb6e
   90688:	39400000 	ldrb	w0, [x0]
   9068c:	6b00003f 	cmp	w1, w0
   90690:	54000c61 	b.ne	9081c <CEcoVirtualMemory1Lab_623E1838_QueryInterface+0x768>  // b.any
   90694:	f94013e0 	ldr	x0, [sp, #32]
   90698:	91001c00 	add	x0, x0, #0x7
   9069c:	39400001 	ldrb	w1, [x0]
   906a0:	b0000400 	adrp	x0, 111000 <GID_IEcoSystem_AARCH64>
   906a4:	912dbc00 	add	x0, x0, #0xb6f
   906a8:	39400000 	ldrb	w0, [x0]
   906ac:	6b00003f 	cmp	w1, w0
   906b0:	54000b61 	b.ne	9081c <CEcoVirtualMemory1Lab_623E1838_QueryInterface+0x768>  // b.any
   906b4:	f94013e0 	ldr	x0, [sp, #32]
   906b8:	91002000 	add	x0, x0, #0x8
   906bc:	39400001 	ldrb	w1, [x0]
   906c0:	b0000400 	adrp	x0, 111000 <GID_IEcoSystem_AARCH64>
   906c4:	912dc000 	add	x0, x0, #0xb70
   906c8:	39400000 	ldrb	w0, [x0]
   906cc:	6b00003f 	cmp	w1, w0
   906d0:	54000a61 	b.ne	9081c <CEcoVirtualMemory1Lab_623E1838_QueryInterface+0x768>  // b.any
   906d4:	f94013e0 	ldr	x0, [sp, #32]
   906d8:	91002400 	add	x0, x0, #0x9
   906dc:	39400001 	ldrb	w1, [x0]
   906e0:	b0000400 	adrp	x0, 111000 <GID_IEcoSystem_AARCH64>
   906e4:	912dc400 	add	x0, x0, #0xb71
   906e8:	39400000 	ldrb	w0, [x0]
   906ec:	6b00003f 	cmp	w1, w0
   906f0:	54000961 	b.ne	9081c <CEcoVirtualMemory1Lab_623E1838_QueryInterface+0x768>  // b.any
   906f4:	f94013e0 	ldr	x0, [sp, #32]
   906f8:	91002800 	add	x0, x0, #0xa
   906fc:	39400001 	ldrb	w1, [x0]
   90700:	b0000400 	adrp	x0, 111000 <GID_IEcoSystem_AARCH64>
   90704:	912dc800 	add	x0, x0, #0xb72
   90708:	39400000 	ldrb	w0, [x0]
   9070c:	6b00003f 	cmp	w1, w0
   90710:	54000861 	b.ne	9081c <CEcoVirtualMemory1Lab_623E1838_QueryInterface+0x768>  // b.any
   90714:	f94013e0 	ldr	x0, [sp, #32]
   90718:	91002c00 	add	x0, x0, #0xb
   9071c:	39400001 	ldrb	w1, [x0]
   90720:	b0000400 	adrp	x0, 111000 <GID_IEcoSystem_AARCH64>
   90724:	912dcc00 	add	x0, x0, #0xb73
   90728:	39400000 	ldrb	w0, [x0]
   9072c:	6b00003f 	cmp	w1, w0
   90730:	54000761 	b.ne	9081c <CEcoVirtualMemory1Lab_623E1838_QueryInterface+0x768>  // b.any
   90734:	f94013e0 	ldr	x0, [sp, #32]
   90738:	91003000 	add	x0, x0, #0xc
   9073c:	39400001 	ldrb	w1, [x0]
   90740:	b0000400 	adrp	x0, 111000 <GID_IEcoSystem_AARCH64>
   90744:	912dd000 	add	x0, x0, #0xb74
   90748:	39400000 	ldrb	w0, [x0]
   9074c:	6b00003f 	cmp	w1, w0
   90750:	54000661 	b.ne	9081c <CEcoVirtualMemory1Lab_623E1838_QueryInterface+0x768>  // b.any
   90754:	f94013e0 	ldr	x0, [sp, #32]
   90758:	91003400 	add	x0, x0, #0xd
   9075c:	39400001 	ldrb	w1, [x0]
   90760:	b0000400 	adrp	x0, 111000 <GID_IEcoSystem_AARCH64>
   90764:	912dd400 	add	x0, x0, #0xb75
   90768:	39400000 	ldrb	w0, [x0]
   9076c:	6b00003f 	cmp	w1, w0
   90770:	54000561 	b.ne	9081c <CEcoVirtualMemory1Lab_623E1838_QueryInterface+0x768>  // b.any
   90774:	f94013e0 	ldr	x0, [sp, #32]
   90778:	91003800 	add	x0, x0, #0xe
   9077c:	39400001 	ldrb	w1, [x0]
   90780:	b0000400 	adrp	x0, 111000 <GID_IEcoSystem_AARCH64>
   90784:	912dd800 	add	x0, x0, #0xb76
   90788:	39400000 	ldrb	w0, [x0]
   9078c:	6b00003f 	cmp	w1, w0
   90790:	54000461 	b.ne	9081c <CEcoVirtualMemory1Lab_623E1838_QueryInterface+0x768>  // b.any
   90794:	f94013e0 	ldr	x0, [sp, #32]
   90798:	91003c00 	add	x0, x0, #0xf
   9079c:	39400001 	ldrb	w1, [x0]
   907a0:	b0000400 	adrp	x0, 111000 <GID_IEcoSystem_AARCH64>
   907a4:	912ddc00 	add	x0, x0, #0xb77
   907a8:	39400000 	ldrb	w0, [x0]
   907ac:	6b00003f 	cmp	w1, w0
   907b0:	54000361 	b.ne	9081c <CEcoVirtualMemory1Lab_623E1838_QueryInterface+0x768>  // b.any
   907b4:	f94013e0 	ldr	x0, [sp, #32]
   907b8:	91004000 	add	x0, x0, #0x10
   907bc:	39400001 	ldrb	w1, [x0]
   907c0:	b0000400 	adrp	x0, 111000 <GID_IEcoSystem_AARCH64>
   907c4:	912de000 	add	x0, x0, #0xb78
   907c8:	39400000 	ldrb	w0, [x0]
   907cc:	6b00003f 	cmp	w1, w0
   907d0:	54000261 	b.ne	9081c <CEcoVirtualMemory1Lab_623E1838_QueryInterface+0x768>  // b.any
   907d4:	f94013e0 	ldr	x0, [sp, #32]
   907d8:	91004400 	add	x0, x0, #0x11
   907dc:	39400001 	ldrb	w1, [x0]
   907e0:	b0000400 	adrp	x0, 111000 <GID_IEcoSystem_AARCH64>
   907e4:	912de400 	add	x0, x0, #0xb79
   907e8:	39400000 	ldrb	w0, [x0]
   907ec:	6b00003f 	cmp	w1, w0
   907f0:	54000161 	b.ne	9081c <CEcoVirtualMemory1Lab_623E1838_QueryInterface+0x768>  // b.any
   907f4:	f9401fe0 	ldr	x0, [sp, #56]
   907f8:	91004001 	add	x1, x0, #0x10
   907fc:	f9400fe0 	ldr	x0, [sp, #24]
   90800:	f9000001 	str	x1, [x0]
   90804:	f9401fe0 	ldr	x0, [sp, #56]
   90808:	f9400000 	ldr	x0, [x0]
   9080c:	f9400401 	ldr	x1, [x0, #8]
   90810:	f9401fe0 	ldr	x0, [sp, #56]
   90814:	d63f0020 	blr	x1
   90818:	1400009d 	b	90a8c <CEcoVirtualMemory1Lab_623E1838_QueryInterface+0x9d8>
   9081c:	f94013e0 	ldr	x0, [sp, #32]
   90820:	39400001 	ldrb	w1, [x0]
   90824:	b0000400 	adrp	x0, 111000 <GID_IEcoSystem_AARCH64>
   90828:	9126e000 	add	x0, x0, #0x9b8
   9082c:	39400000 	ldrb	w0, [x0]
   90830:	6b00003f 	cmp	w1, w0
   90834:	54001241 	b.ne	90a7c <CEcoVirtualMemory1Lab_623E1838_QueryInterface+0x9c8>  // b.any
   90838:	f94013e0 	ldr	x0, [sp, #32]
   9083c:	91000400 	add	x0, x0, #0x1
   90840:	39400001 	ldrb	w1, [x0]
   90844:	b0000400 	adrp	x0, 111000 <GID_IEcoSystem_AARCH64>
   90848:	9126e400 	add	x0, x0, #0x9b9
   9084c:	39400000 	ldrb	w0, [x0]
   90850:	6b00003f 	cmp	w1, w0
   90854:	54001141 	b.ne	90a7c <CEcoVirtualMemory1Lab_623E1838_QueryInterface+0x9c8>  // b.any
   90858:	f94013e0 	ldr	x0, [sp, #32]
   9085c:	91000800 	add	x0, x0, #0x2
   90860:	39400001 	ldrb	w1, [x0]
   90864:	b0000400 	adrp	x0, 111000 <GID_IEcoSystem_AARCH64>
   90868:	9126e800 	add	x0, x0, #0x9ba
   9086c:	39400000 	ldrb	w0, [x0]
   90870:	6b00003f 	cmp	w1, w0
   90874:	54001041 	b.ne	90a7c <CEcoVirtualMemory1Lab_623E1838_QueryInterface+0x9c8>  // b.any
   90878:	f94013e0 	ldr	x0, [sp, #32]
   9087c:	91000c00 	add	x0, x0, #0x3
   90880:	39400001 	ldrb	w1, [x0]
   90884:	b0000400 	adrp	x0, 111000 <GID_IEcoSystem_AARCH64>
   90888:	9126ec00 	add	x0, x0, #0x9bb
   9088c:	39400000 	ldrb	w0, [x0]
   90890:	6b00003f 	cmp	w1, w0
   90894:	54000f41 	b.ne	90a7c <CEcoVirtualMemory1Lab_623E1838_QueryInterface+0x9c8>  // b.any
   90898:	f94013e0 	ldr	x0, [sp, #32]
   9089c:	91001000 	add	x0, x0, #0x4
   908a0:	39400001 	ldrb	w1, [x0]
   908a4:	b0000400 	adrp	x0, 111000 <GID_IEcoSystem_AARCH64>
   908a8:	9126f000 	add	x0, x0, #0x9bc
   908ac:	39400000 	ldrb	w0, [x0]
   908b0:	6b00003f 	cmp	w1, w0
   908b4:	54000e41 	b.ne	90a7c <CEcoVirtualMemory1Lab_623E1838_QueryInterface+0x9c8>  // b.any
   908b8:	f94013e0 	ldr	x0, [sp, #32]
   908bc:	91001400 	add	x0, x0, #0x5
   908c0:	39400001 	ldrb	w1, [x0]
   908c4:	b0000400 	adrp	x0, 111000 <GID_IEcoSystem_AARCH64>
   908c8:	9126f400 	add	x0, x0, #0x9bd
   908cc:	39400000 	ldrb	w0, [x0]
   908d0:	6b00003f 	cmp	w1, w0
   908d4:	54000d41 	b.ne	90a7c <CEcoVirtualMemory1Lab_623E1838_QueryInterface+0x9c8>  // b.any
   908d8:	f94013e0 	ldr	x0, [sp, #32]
   908dc:	91001800 	add	x0, x0, #0x6
   908e0:	39400001 	ldrb	w1, [x0]
   908e4:	b0000400 	adrp	x0, 111000 <GID_IEcoSystem_AARCH64>
   908e8:	9126f800 	add	x0, x0, #0x9be
   908ec:	39400000 	ldrb	w0, [x0]
   908f0:	6b00003f 	cmp	w1, w0
   908f4:	54000c41 	b.ne	90a7c <CEcoVirtualMemory1Lab_623E1838_QueryInterface+0x9c8>  // b.any
   908f8:	f94013e0 	ldr	x0, [sp, #32]
   908fc:	91001c00 	add	x0, x0, #0x7
   90900:	39400001 	ldrb	w1, [x0]
   90904:	b0000400 	adrp	x0, 111000 <GID_IEcoSystem_AARCH64>
   90908:	9126fc00 	add	x0, x0, #0x9bf
   9090c:	39400000 	ldrb	w0, [x0]
   90910:	6b00003f 	cmp	w1, w0
   90914:	54000b41 	b.ne	90a7c <CEcoVirtualMemory1Lab_623E1838_QueryInterface+0x9c8>  // b.any
   90918:	f94013e0 	ldr	x0, [sp, #32]
   9091c:	91002000 	add	x0, x0, #0x8
   90920:	39400001 	ldrb	w1, [x0]
   90924:	b0000400 	adrp	x0, 111000 <GID_IEcoSystem_AARCH64>
   90928:	91270000 	add	x0, x0, #0x9c0
   9092c:	39400000 	ldrb	w0, [x0]
   90930:	6b00003f 	cmp	w1, w0
   90934:	54000a41 	b.ne	90a7c <CEcoVirtualMemory1Lab_623E1838_QueryInterface+0x9c8>  // b.any
   90938:	f94013e0 	ldr	x0, [sp, #32]
   9093c:	91002400 	add	x0, x0, #0x9
   90940:	39400001 	ldrb	w1, [x0]
   90944:	b0000400 	adrp	x0, 111000 <GID_IEcoSystem_AARCH64>
   90948:	91270400 	add	x0, x0, #0x9c1
   9094c:	39400000 	ldrb	w0, [x0]
   90950:	6b00003f 	cmp	w1, w0
   90954:	54000941 	b.ne	90a7c <CEcoVirtualMemory1Lab_623E1838_QueryInterface+0x9c8>  // b.any
   90958:	f94013e0 	ldr	x0, [sp, #32]
   9095c:	91002800 	add	x0, x0, #0xa
   90960:	39400001 	ldrb	w1, [x0]
   90964:	b0000400 	adrp	x0, 111000 <GID_IEcoSystem_AARCH64>
   90968:	91270800 	add	x0, x0, #0x9c2
   9096c:	39400000 	ldrb	w0, [x0]
   90970:	6b00003f 	cmp	w1, w0
   90974:	54000841 	b.ne	90a7c <CEcoVirtualMemory1Lab_623E1838_QueryInterface+0x9c8>  // b.any
   90978:	f94013e0 	ldr	x0, [sp, #32]
   9097c:	91002c00 	add	x0, x0, #0xb
   90980:	39400001 	ldrb	w1, [x0]
   90984:	b0000400 	adrp	x0, 111000 <GID_IEcoSystem_AARCH64>
   90988:	91270c00 	add	x0, x0, #0x9c3
   9098c:	39400000 	ldrb	w0, [x0]
   90990:	6b00003f 	cmp	w1, w0
   90994:	54000741 	b.ne	90a7c <CEcoVirtualMemory1Lab_623E1838_QueryInterface+0x9c8>  // b.any
   90998:	f94013e0 	ldr	x0, [sp, #32]
   9099c:	91003000 	add	x0, x0, #0xc
   909a0:	39400001 	ldrb	w1, [x0]
   909a4:	b0000400 	adrp	x0, 111000 <GID_IEcoSystem_AARCH64>
   909a8:	91271000 	add	x0, x0, #0x9c4
   909ac:	39400000 	ldrb	w0, [x0]
   909b0:	6b00003f 	cmp	w1, w0
   909b4:	54000641 	b.ne	90a7c <CEcoVirtualMemory1Lab_623E1838_QueryInterface+0x9c8>  // b.any
   909b8:	f94013e0 	ldr	x0, [sp, #32]
   909bc:	91003400 	add	x0, x0, #0xd
   909c0:	39400001 	ldrb	w1, [x0]
   909c4:	b0000400 	adrp	x0, 111000 <GID_IEcoSystem_AARCH64>
   909c8:	91271400 	add	x0, x0, #0x9c5
   909cc:	39400000 	ldrb	w0, [x0]
   909d0:	6b00003f 	cmp	w1, w0
   909d4:	54000541 	b.ne	90a7c <CEcoVirtualMemory1Lab_623E1838_QueryInterface+0x9c8>  // b.any
   909d8:	f94013e0 	ldr	x0, [sp, #32]
   909dc:	91003800 	add	x0, x0, #0xe
   909e0:	39400001 	ldrb	w1, [x0]
   909e4:	b0000400 	adrp	x0, 111000 <GID_IEcoSystem_AARCH64>
   909e8:	91271800 	add	x0, x0, #0x9c6
   909ec:	39400000 	ldrb	w0, [x0]
   909f0:	6b00003f 	cmp	w1, w0
   909f4:	54000441 	b.ne	90a7c <CEcoVirtualMemory1Lab_623E1838_QueryInterface+0x9c8>  // b.any
   909f8:	f94013e0 	ldr	x0, [sp, #32]
   909fc:	91003c00 	add	x0, x0, #0xf
   90a00:	39400001 	ldrb	w1, [x0]
   90a04:	b0000400 	adrp	x0, 111000 <GID_IEcoSystem_AARCH64>
   90a08:	91271c00 	add	x0, x0, #0x9c7
   90a0c:	39400000 	ldrb	w0, [x0]
   90a10:	6b00003f 	cmp	w1, w0
   90a14:	54000341 	b.ne	90a7c <CEcoVirtualMemory1Lab_623E1838_QueryInterface+0x9c8>  // b.any
   90a18:	f94013e0 	ldr	x0, [sp, #32]
   90a1c:	91004000 	add	x0, x0, #0x10
   90a20:	39400001 	ldrb	w1, [x0]
   90a24:	b0000400 	adrp	x0, 111000 <GID_IEcoSystem_AARCH64>
   90a28:	91272000 	add	x0, x0, #0x9c8
   90a2c:	39400000 	ldrb	w0, [x0]
   90a30:	6b00003f 	cmp	w1, w0
   90a34:	54000241 	b.ne	90a7c <CEcoVirtualMemory1Lab_623E1838_QueryInterface+0x9c8>  // b.any
   90a38:	f94013e0 	ldr	x0, [sp, #32]
   90a3c:	91004400 	add	x0, x0, #0x11
   90a40:	39400001 	ldrb	w1, [x0]
   90a44:	b0000400 	adrp	x0, 111000 <GID_IEcoSystem_AARCH64>
   90a48:	91272400 	add	x0, x0, #0x9c9
   90a4c:	39400000 	ldrb	w0, [x0]
   90a50:	6b00003f 	cmp	w1, w0
   90a54:	54000141 	b.ne	90a7c <CEcoVirtualMemory1Lab_623E1838_QueryInterface+0x9c8>  // b.any
   90a58:	f9401fe1 	ldr	x1, [sp, #56]
   90a5c:	f9400fe0 	ldr	x0, [sp, #24]
   90a60:	f9000001 	str	x1, [x0]
   90a64:	f9401fe0 	ldr	x0, [sp, #56]
   90a68:	f9400000 	ldr	x0, [x0]
   90a6c:	f9400401 	ldr	x1, [x0, #8]
   90a70:	f9401fe0 	ldr	x0, [sp, #56]
   90a74:	d63f0020 	blr	x1
   90a78:	14000005 	b	90a8c <CEcoVirtualMemory1Lab_623E1838_QueryInterface+0x9d8>
   90a7c:	f9400fe0 	ldr	x0, [sp, #24]
   90a80:	f900001f 	str	xzr, [x0]
   90a84:	12800240 	mov	w0, #0xffffffed            	// #-19
   90a88:	14000002 	b	90a90 <CEcoVirtualMemory1Lab_623E1838_QueryInterface+0x9dc>
   90a8c:	52800000 	mov	w0, #0x0                   	// #0
   90a90:	a8c47bfd 	ldp	x29, x30, [sp], #64
   90a94:	d65f03c0 	ret

0000000000090a98 <CEcoVirtualMemory1Lab_623E1838_AddRef>:
   90a98:	d10083ff 	sub	sp, sp, #0x20
   90a9c:	f90007e0 	str	x0, [sp, #8]
   90aa0:	f94007e0 	ldr	x0, [sp, #8]
   90aa4:	d1004000 	sub	x0, x0, #0x10
   90aa8:	f9000fe0 	str	x0, [sp, #24]
   90aac:	f94007e0 	ldr	x0, [sp, #8]
   90ab0:	f100001f 	cmp	x0, #0x0
   90ab4:	54000061 	b.ne	90ac0 <CEcoVirtualMemory1Lab_623E1838_AddRef+0x28>  // b.any
   90ab8:	12800000 	mov	w0, #0xffffffff            	// #-1
   90abc:	14000006 	b	90ad4 <CEcoVirtualMemory1Lab_623E1838_AddRef+0x3c>
   90ac0:	f9400fe0 	ldr	x0, [sp, #24]
   90ac4:	b9401800 	ldr	w0, [x0, #24]
   90ac8:	11000402 	add	w2, w0, #0x1
   90acc:	f9400fe1 	ldr	x1, [sp, #24]
   90ad0:	b9001822 	str	w2, [x1, #24]
   90ad4:	910083ff 	add	sp, sp, #0x20
   90ad8:	d65f03c0 	ret

0000000000090adc <CEcoVirtualMemory1Lab_623E1838_Release>:
   90adc:	a9bd7bfd 	stp	x29, x30, [sp, #-48]!
   90ae0:	910003fd 	mov	x29, sp
   90ae4:	f9000fe0 	str	x0, [sp, #24]
   90ae8:	f9400fe0 	ldr	x0, [sp, #24]
   90aec:	d1004000 	sub	x0, x0, #0x10
   90af0:	f90017e0 	str	x0, [sp, #40]
   90af4:	f9400fe0 	ldr	x0, [sp, #24]
   90af8:	f100001f 	cmp	x0, #0x0
   90afc:	54000061 	b.ne	90b08 <CEcoVirtualMemory1Lab_623E1838_Release+0x2c>  // b.any
   90b00:	12800000 	mov	w0, #0xffffffff            	// #-1
   90b04:	14000010 	b	90b44 <CEcoVirtualMemory1Lab_623E1838_Release+0x68>
   90b08:	f94017e0 	ldr	x0, [sp, #40]
   90b0c:	b9401800 	ldr	w0, [x0, #24]
   90b10:	51000401 	sub	w1, w0, #0x1
   90b14:	f94017e0 	ldr	x0, [sp, #40]
   90b18:	b9001801 	str	w1, [x0, #24]
   90b1c:	f94017e0 	ldr	x0, [sp, #40]
   90b20:	b9401800 	ldr	w0, [x0, #24]
   90b24:	7100001f 	cmp	w0, #0x0
   90b28:	540000a1 	b.ne	90b3c <CEcoVirtualMemory1Lab_623E1838_Release+0x60>  // b.any
   90b2c:	f94017e0 	ldr	x0, [sp, #40]
   90b30:	97fff7d5 	bl	8ea84 <deleteCEcoMemoryManager1Lab_623E1838>
   90b34:	52800000 	mov	w0, #0x0                   	// #0
   90b38:	14000003 	b	90b44 <CEcoVirtualMemory1Lab_623E1838_Release+0x68>
   90b3c:	f94017e0 	ldr	x0, [sp, #40]
   90b40:	b9401800 	ldr	w0, [x0, #24]
   90b44:	a8c37bfd 	ldp	x29, x30, [sp], #48
   90b48:	d65f03c0 	ret

0000000000090b4c <CEcoVirtualMemory1Lab_623E1838_Init>:
   90b4c:	d10143ff 	sub	sp, sp, #0x50
   90b50:	a9017bfd 	stp	x29, x30, [sp, #16]
   90b54:	910043fd 	add	x29, sp, #0x10
   90b58:	f90017e0 	str	x0, [sp, #40]
   90b5c:	f94017e0 	ldr	x0, [sp, #40]
   90b60:	d1004000 	sub	x0, x0, #0x10
   90b64:	f90027e0 	str	x0, [sp, #72]
   90b68:	a9037fff 	stp	xzr, xzr, [sp, #48]
   90b6c:	b90043ff 	str	wzr, [sp, #64]
   90b70:	f94027e0 	ldr	x0, [sp, #72]
   90b74:	f9402400 	ldr	x0, [x0, #72]
   90b78:	f9400000 	ldr	x0, [x0]
   90b7c:	f9401c08 	ldr	x8, [x0, #56]
   90b80:	f94027e0 	ldr	x0, [sp, #72]
   90b84:	f9402400 	ldr	x0, [x0, #72]
   90b88:	9100c3e1 	add	x1, sp, #0x30
   90b8c:	b90003ff 	str	wzr, [sp]
   90b90:	52800007 	mov	w7, #0x0                   	// #0
   90b94:	52800106 	mov	w6, #0x8                   	// #8
   90b98:	52800105 	mov	w5, #0x8                   	// #8
   90b9c:	528000c4 	mov	w4, #0x6                   	// #6
   90ba0:	72a00024 	movk	w4, #0x1, lsl #16
   90ba4:	528000a3 	mov	w3, #0x5                   	// #5
   90ba8:	aa0103e2 	mov	x2, x1
   90bac:	52800101 	mov	w1, #0x8                   	// #8
   90bb0:	d63f0100 	blr	x8
   90bb4:	d2800020 	mov	x0, #0x1                   	// #1
   90bb8:	d5181000 	msr	sctlr_el1, x0
   90bbc:	52800000 	mov	w0, #0x0                   	// #0
   90bc0:	a9417bfd 	ldp	x29, x30, [sp, #16]
   90bc4:	910143ff 	add	sp, sp, #0x50
   90bc8:	d65f03c0 	ret

0000000000090bcc <CEcoVirtualMemory1Lab_623E1838_AllocPage>:
   90bcc:	d10083ff 	sub	sp, sp, #0x20
   90bd0:	f90007e0 	str	x0, [sp, #8]
   90bd4:	f9000bff 	str	xzr, [sp, #16]
   90bd8:	79003fff 	strh	wzr, [sp, #30]
   90bdc:	79003fff 	strh	wzr, [sp, #30]
   90be0:	79c03fe1 	ldrsh	w1, [sp, #30]
   90be4:	b0000000 	adrp	x0, 91000 <g_xF10BC39A4F2143CF8A1E104650A2C302Factory+0x58>
   90be8:	9127c000 	add	x0, x0, #0x9f0
   90bec:	93407c21 	sxtw	x1, w1
   90bf0:	78617800 	ldrh	w0, [x0, x1, lsl #1]
   90bf4:	7100001f 	cmp	w0, #0x0
   90bf8:	540001c1 	b.ne	90c30 <CEcoVirtualMemory1Lab_623E1838_AllocPage+0x64>  // b.any
   90bfc:	79c03fe1 	ldrsh	w1, [sp, #30]
   90c00:	b0000000 	adrp	x0, 91000 <g_xF10BC39A4F2143CF8A1E104650A2C302Factory+0x58>
   90c04:	9127c000 	add	x0, x0, #0x9f0
   90c08:	93407c21 	sxtw	x1, w1
   90c0c:	52800022 	mov	w2, #0x1                   	// #1
   90c10:	78217802 	strh	w2, [x0, x1, lsl #1]
   90c14:	79c03fe0 	ldrsh	w0, [sp, #30]
   90c18:	11100000 	add	w0, w0, #0x400
   90c1c:	53144c00 	lsl	w0, w0, #12
   90c20:	93407c00 	sxtw	x0, w0
   90c24:	f9000be0 	str	x0, [sp, #16]
   90c28:	f9400be0 	ldr	x0, [sp, #16]
   90c2c:	14000007 	b	90c48 <CEcoVirtualMemory1Lab_623E1838_AllocPage+0x7c>
   90c30:	79c03fe0 	ldrsh	w0, [sp, #30]
   90c34:	12003c00 	and	w0, w0, #0xffff
   90c38:	11000400 	add	w0, w0, #0x1
   90c3c:	12003c00 	and	w0, w0, #0xffff
   90c40:	79003fe0 	strh	w0, [sp, #30]
   90c44:	17ffffe7 	b	90be0 <CEcoVirtualMemory1Lab_623E1838_AllocPage+0x14>
   90c48:	910083ff 	add	sp, sp, #0x20
   90c4c:	d65f03c0 	ret

0000000000090c50 <CEcoVirtualMemory1Lab_623E1838_FreePage>:
   90c50:	d10043ff 	sub	sp, sp, #0x10
   90c54:	f90007e0 	str	x0, [sp, #8]
   90c58:	f90003e1 	str	x1, [sp]
   90c5c:	f94003e0 	ldr	x0, [sp]
   90c60:	d1500000 	sub	x0, x0, #0x400, lsl #12
   90c64:	d34cfc01 	lsr	x1, x0, #12
   90c68:	b0000000 	adrp	x0, 91000 <g_xF10BC39A4F2143CF8A1E104650A2C302Factory+0x58>
   90c6c:	9127c000 	add	x0, x0, #0x9f0
   90c70:	7821781f 	strh	wzr, [x0, x1, lsl #1]
   90c74:	d503201f 	nop
   90c78:	910043ff 	add	sp, sp, #0x10
   90c7c:	d65f03c0 	ret

0000000000090c80 <CEcoVirtualMemory1Lab_623E1838_MapTable>:
   90c80:	d10043ff 	sub	sp, sp, #0x10
   90c84:	f90007e0 	str	x0, [sp, #8]
   90c88:	f90003e1 	str	x1, [sp]
   90c8c:	d503201f 	nop
   90c90:	910043ff 	add	sp, sp, #0x10
   90c94:	d65f03c0 	ret

0000000000090c98 <CEcoVirtualMemory1Lab_623E1838_MapPage>:
   90c98:	d10083ff 	sub	sp, sp, #0x20
   90c9c:	f9000fe0 	str	x0, [sp, #24]
   90ca0:	f9000be1 	str	x1, [sp, #16]
   90ca4:	f90007e2 	str	x2, [sp, #8]
   90ca8:	d503201f 	nop
   90cac:	910083ff 	add	sp, sp, #0x20
   90cb0:	d65f03c0 	ret

0000000000090cb4 <CEcoVirtualMemory1Lab_623E1838_Alloc>:
   90cb4:	a9bc7bfd 	stp	x29, x30, [sp, #-64]!
   90cb8:	910003fd 	mov	x29, sp
   90cbc:	f90017e0 	str	x0, [sp, #40]
   90cc0:	f90013e1 	str	x1, [sp, #32]
   90cc4:	b9001fe2 	str	w2, [sp, #28]
   90cc8:	f9001fff 	str	xzr, [sp, #56]
   90ccc:	f94017e0 	ldr	x0, [sp, #40]
   90cd0:	97ffffbf 	bl	90bcc <CEcoVirtualMemory1Lab_623E1838_AllocPage>
   90cd4:	f9001fe0 	str	x0, [sp, #56]
   90cd8:	f9401fe0 	ldr	x0, [sp, #56]
   90cdc:	f100001f 	cmp	x0, #0x0
   90ce0:	54000061 	b.ne	90cec <CEcoVirtualMemory1Lab_623E1838_Alloc+0x38>  // b.any
   90ce4:	d2800000 	mov	x0, #0x0                   	// #0
   90ce8:	14000008 	b	90d08 <CEcoVirtualMemory1Lab_623E1838_Alloc+0x54>
   90cec:	f9401fe2 	ldr	x2, [sp, #56]
   90cf0:	f94013e1 	ldr	x1, [sp, #32]
   90cf4:	f94017e0 	ldr	x0, [sp, #40]
   90cf8:	97ffffe8 	bl	90c98 <CEcoVirtualMemory1Lab_623E1838_MapPage>
   90cfc:	f9401fe1 	ldr	x1, [sp, #56]
   90d00:	d2ffffe0 	mov	x0, #0xffff000000000000    	// #-281474976710656
   90d04:	8b000020 	add	x0, x1, x0
   90d08:	a8c47bfd 	ldp	x29, x30, [sp], #64
   90d0c:	d65f03c0 	ret

0000000000090d10 <CEcoVirtualMemory1Lab_623E1838_Free>:
   90d10:	d10043ff 	sub	sp, sp, #0x10
   90d14:	f90007e0 	str	x0, [sp, #8]
   90d18:	f90003e1 	str	x1, [sp]
   90d1c:	d503201f 	nop
   90d20:	910043ff 	add	sp, sp, #0x10
   90d24:	d65f03c0 	ret

0000000000090d28 <CEcoVirtualMemory1Lab_623E1838_PageFault>:
   90d28:	a9bd7bfd 	stp	x29, x30, [sp, #-48]!
   90d2c:	910003fd 	mov	x29, sp
   90d30:	f9000fe0 	str	x0, [sp, #24]
   90d34:	f9000be1 	str	x1, [sp, #16]
   90d38:	f9400be0 	ldr	x0, [sp, #16]
   90d3c:	92401400 	and	x0, x0, #0x3f
   90d40:	f90017e0 	str	x0, [sp, #40]
   90d44:	f94017e0 	ldr	x0, [sp, #40]
   90d48:	927e0c00 	and	x0, x0, #0x3c
   90d4c:	f100101f 	cmp	x0, #0x4
   90d50:	540002c1 	b.ne	90da8 <CEcoVirtualMemory1Lab_623E1838_PageFault+0x80>  // b.any
   90d54:	b0000000 	adrp	x0, 91000 <g_xF10BC39A4F2143CF8A1E104650A2C302Factory+0x58>
   90d58:	9125c000 	add	x0, x0, #0x970
   90d5c:	f9400800 	ldr	x0, [x0, #16]
   90d60:	97ffff9b 	bl	90bcc <CEcoVirtualMemory1Lab_623E1838_AllocPage>
   90d64:	f90013e0 	str	x0, [sp, #32]
   90d68:	f94013e0 	ldr	x0, [sp, #32]
   90d6c:	f100001f 	cmp	x0, #0x0
   90d70:	54000061 	b.ne	90d7c <CEcoVirtualMemory1Lab_623E1838_PageFault+0x54>  // b.any
   90d74:	12800000 	mov	w0, #0xffffffff            	// #-1
   90d78:	1400000d 	b	90dac <CEcoVirtualMemory1Lab_623E1838_PageFault+0x84>
   90d7c:	b0000000 	adrp	x0, 91000 <g_xF10BC39A4F2143CF8A1E104650A2C302Factory+0x58>
   90d80:	9125c000 	add	x0, x0, #0x970
   90d84:	f9400803 	ldr	x3, [x0, #16]
   90d88:	f9400fe0 	ldr	x0, [sp, #24]
   90d8c:	9274cc00 	and	x0, x0, #0xfffffffffffff000
   90d90:	f94013e2 	ldr	x2, [sp, #32]
   90d94:	aa0003e1 	mov	x1, x0
   90d98:	aa0303e0 	mov	x0, x3
   90d9c:	97ffffbf 	bl	90c98 <CEcoVirtualMemory1Lab_623E1838_MapPage>
   90da0:	52800000 	mov	w0, #0x0                   	// #0
   90da4:	14000002 	b	90dac <CEcoVirtualMemory1Lab_623E1838_PageFault+0x84>
   90da8:	12800000 	mov	w0, #0xffffffff            	// #-1
   90dac:	a8c37bfd 	ldp	x29, x30, [sp], #48
   90db0:	d65f03c0 	ret
